###############################################################################
#                                                                             #
# IAR C/C++ Compiler V8.10.3.10338/W32 for 8051         08/Aug/2016  14:20:37 #
# Copyright 2004-2011 IAR Systems AB.                                         #
#                                                                             #
#    Core               =  plain                                              #
#    Code model         =  banked                                             #
#    Data model         =  large                                              #
#    Calling convention =  xdata reentrant                                    #
#    Constant location  =  data_rom                                           #
#    Dptr setup         =  1,16                                               #
#    Source file        =  C:\Users\zhuyi\Desktop\2016 µçÈü                   #
#                          ¾öÈü\8.6\Components\stack\zdo\ZDObject.c           #
#    Command line       =  -f "C:\Users\zhuyi\Desktop\2016 µçÈü               #
#                          ¾öÈü\8.6\Projects\zstack\Utilities\SerialApp\CC253 #
#                          0DB\..\..\..\Tools\CC2530DB\f8wCoord.cfg"          #
#                          (-DCPU32MHZ -DROOT=__near_func                     #
#                          -DMAC_CFG_APP_PENDING_QUEUE=TRUE                   #
#                          -DZDO_COORDINATOR -DRTR_NWK -DBLINK_LEDS) -f       #
#                          "C:\Users\zhuyi\Desktop\2016 µçÈü                  #
#                          ¾öÈü\8.6\Projects\zstack\Utilities\SerialApp\CC253 #
#                          0DB\..\..\..\Tools\CC2530DB\f8wConfig.cfg"         #
#                          (-DSECURE=0 -DZG_SECURE_DYNAMIC=0 -DREFLECTOR      #
#                          -DDEFAULT_CHANLIST=0x00000800                      #
#                          -DZDAPP_CONFIG_PAN_ID=0xFFF1                       #
#                          -DNWK_START_DELAY=100 -DEXTENDED_JOINING_RANDOM_MA #
#                          SK=0x007F -DBEACON_REQUEST_DELAY=100               #
#                          -DBEACON_REQ_DELAY_MASK=0x00FF                     #
#                          -DROUTE_EXPIRY_TIME=30 -DAPSC_ACK_WAIT_DURATION_PO #
#                          LLED=3000 -DNWK_INDIRECT_MSG_TIMEOUT=7             #
#                          -DMAX_RREQ_ENTRIES=8 -DAPSC_MAX_FRAME_RETRIES=3    #
#                          -DNWK_MAX_DATA_RETRIES=2                           #
#                          -DMAX_POLL_FAILURE_RETRIES=2 -DMAX_BCAST=9         #
#                          -DAPS_MAX_GROUPS=16 -DMAX_RTG_ENTRIES=40           #
#                          -DNWK_MAX_BINDING_ENTRIES=4                        #
#                          -DMAX_BINDING_CLUSTER_IDS=4 "-DDEFAULT_KEY={0x01,  #
#                          0x03, 0x05, 0x07, 0x09, 0x0B, 0x0D, 0x0F, 0x00,    #
#                          0x02, 0x04, 0x06, 0x08, 0x0A, 0x0C, 0x0D}"         #
#                          -DMAC_MAX_FRAME_SIZE=116 "-DCONST=const __code"    #
#                          -DGENERIC=__generic -DRFD_RCVC_ALWAYS_ON=FALSE     #
#                          -DPOLL_RATE=1000 -DQUEUED_POLL_RATE=100            #
#                          -DRESPONSE_POLL_RATE=100) -DREJOIN_POLL_RATE=440   #
#                          "C:\Users\zhuyi\Desktop\2016 µçÈü                  #
#                          ¾öÈü\8.6\Components\stack\zdo\ZDObject.c" -D       #
#                          ZIGBEEPRO -D HAL_UART=TRUE -D SERIAL_APP_PORT=0    #
#                          -D LCD_SUPPORTED -D NV_RESTORE -lC                 #
#                          "C:\Users\zhuyi\Desktop\2016 µçÈü                  #
#                          ¾öÈü\8.6\Projects\zstack\Utilities\SerialApp\CC253 #
#                          0DB\CoordinatorEB-Pro\List\" -lA                   #
#                          "C:\Users\zhuyi\Desktop\2016 µçÈü                  #
#                          ¾öÈü\8.6\Projects\zstack\Utilities\SerialApp\CC253 #
#                          0DB\CoordinatorEB-Pro\List\" --diag_suppress       #
#                          Pe001,Pa010 -o "C:\Users\zhuyi\Desktop\2016 µçÈü   #
#                          ¾öÈü\8.6\Projects\zstack\Utilities\SerialApp\CC253 #
#                          0DB\CoordinatorEB-Pro\Obj\" -e --no_unroll         #
#                          --no_inline --no_tbaa --debug --core=plain         #
#                          --dptr=16,1 --data_model=large                     #
#                          --code_model=banked --calling_convention=xdata_ree #
#                          ntrant --place_constants=data_rom                  #
#                          --nr_virtual_regs 8 -I "C:\Users\zhuyi\Desktop\201 #
#                          6 µçÈü  ¾öÈü\8.6\Projects\zstack\Utilities\SerialA #
#                          pp\CC2530DB\" -I "C:\Users\zhuyi\Desktop\2016      #
#                          µçÈü  ¾öÈü\8.6\Projects\zstack\Utilities\SerialApp #
#                          \CC2530DB\..\SOURCE\" -I                           #
#                          "C:\Users\zhuyi\Desktop\2016 µçÈü                  #
#                          ¾öÈü\8.6\Projects\zstack\Utilities\SerialApp\CC253 #
#                          0DB\..\..\..\ZMAIN\TI2530DB\" -I                   #
#                          "C:\Users\zhuyi\Desktop\2016 µçÈü                  #
#                          ¾öÈü\8.6\Projects\zstack\Utilities\SerialApp\CC253 #
#                          0DB\..\..\..\..\..\COMPONENTS\MT\" -I              #
#                          "C:\Users\zhuyi\Desktop\2016 µçÈü                  #
#                          ¾öÈü\8.6\Projects\zstack\Utilities\SerialApp\CC253 #
#                          0DB\..\..\..\..\..\COMPONENTS\HAL\INCLUDE\" -I     #
#                          "C:\Users\zhuyi\Desktop\2016 µçÈü                  #
#                          ¾öÈü\8.6\Projects\zstack\Utilities\SerialApp\CC253 #
#                          0DB\..\..\..\..\..\COMPONENTS\HAL\TARGET\CC2530EB\ #
#                          " -I "C:\Users\zhuyi\Desktop\2016 µçÈü             #
#                          ¾öÈü\8.6\Projects\zstack\Utilities\SerialApp\CC253 #
#                          0DB\..\..\..\..\..\COMPONENTS\OSAL\MCU\CCSOC\" -I  #
#                          "C:\Users\zhuyi\Desktop\2016 µçÈü                  #
#                          ¾öÈü\8.6\Projects\zstack\Utilities\SerialApp\CC253 #
#                          0DB\..\..\..\..\..\COMPONENTS\OSAL\INCLUDE\" -I    #
#                          "C:\Users\zhuyi\Desktop\2016 µçÈü                  #
#                          ¾öÈü\8.6\Projects\zstack\Utilities\SerialApp\CC253 #
#                          0DB\..\..\..\..\..\COMPONENTS\STACK\AF\" -I        #
#                          "C:\Users\zhuyi\Desktop\2016 µçÈü                  #
#                          ¾öÈü\8.6\Projects\zstack\Utilities\SerialApp\CC253 #
#                          0DB\..\..\..\..\..\COMPONENTS\STACK\NWK\" -I       #
#                          "C:\Users\zhuyi\Desktop\2016 µçÈü                  #
#                          ¾öÈü\8.6\Projects\zstack\Utilities\SerialApp\CC253 #
#                          0DB\..\..\..\..\..\COMPONENTS\STACK\SEC\" -I       #
#                          "C:\Users\zhuyi\Desktop\2016 µçÈü                  #
#                          ¾öÈü\8.6\Projects\zstack\Utilities\SerialApp\CC253 #
#                          0DB\..\..\..\..\..\COMPONENTS\STACK\SAPI\" -I      #
#                          "C:\Users\zhuyi\Desktop\2016 µçÈü                  #
#                          ¾öÈü\8.6\Projects\zstack\Utilities\SerialApp\CC253 #
#                          0DB\..\..\..\..\..\COMPONENTS\STACK\SYS\" -I       #
#                          "C:\Users\zhuyi\Desktop\2016 µçÈü                  #
#                          ¾öÈü\8.6\Projects\zstack\Utilities\SerialApp\CC253 #
#                          0DB\..\..\..\..\..\COMPONENTS\STACK\ZDO\" -I       #
#                          "C:\Users\zhuyi\Desktop\2016 µçÈü                  #
#                          ¾öÈü\8.6\Projects\zstack\Utilities\SerialApp\CC253 #
#                          0DB\..\..\..\..\..\COMPONENTS\ZMAC\F8W\" -I        #
#                          "C:\Users\zhuyi\Desktop\2016 µçÈü                  #
#                          ¾öÈü\8.6\Projects\zstack\Utilities\SerialApp\CC253 #
#                          0DB\..\..\..\..\..\COMPONENTS\ZMAC\" -I            #
#                          "C:\Users\zhuyi\Desktop\2016 µçÈü                  #
#                          ¾öÈü\8.6\Projects\zstack\Utilities\SerialApp\CC253 #
#                          0DB\..\..\..\..\..\COMPONENTS\SERVICES\SADDR\" -I  #
#                          "C:\Users\zhuyi\Desktop\2016 µçÈü                  #
#                          ¾öÈü\8.6\Projects\zstack\Utilities\SerialApp\CC253 #
#                          0DB\..\..\..\..\..\COMPONENTS\SERVICES\SDATA\" -I  #
#                          "C:\Users\zhuyi\Desktop\2016 µçÈü                  #
#                          ¾öÈü\8.6\Projects\zstack\Utilities\SerialApp\CC253 #
#                          0DB\..\..\..\..\..\COMPONENTS\MAC\INCLUDE\" -I     #
#                          "C:\Users\zhuyi\Desktop\2016 µçÈü                  #
#                          ¾öÈü\8.6\Projects\zstack\Utilities\SerialApp\CC253 #
#                          0DB\..\..\..\..\..\COMPONENTS\MAC\HIGH_LEVEL\" -I  #
#                          "C:\Users\zhuyi\Desktop\2016 µçÈü                  #
#                          ¾öÈü\8.6\Projects\zstack\Utilities\SerialApp\CC253 #
#                          0DB\..\..\..\..\..\COMPONENTS\MAC\LOW_LEVEL\srf04\ #
#                          " -I "C:\Users\zhuyi\Desktop\2016 µçÈü             #
#                          ¾öÈü\8.6\Projects\zstack\Utilities\SerialApp\CC253 #
#                          0DB\..\..\..\..\..\COMPONENTS\MAC\LOW_LEVEL\srf04\ #
#                          SINGLE_CHIP\" -Om --require_prototypes             #
#    List file          =  C:\Users\zhuyi\Desktop\2016 µçÈü                   #
#                          ¾öÈü\8.6\Projects\zstack\Utilities\SerialApp\CC253 #
#                          0DB\CoordinatorEB-Pro\List\ZDObject.lst            #
#    Object file        =  C:\Users\zhuyi\Desktop\2016 µçÈü                   #
#                          ¾öÈü\8.6\Projects\zstack\Utilities\SerialApp\CC253 #
#                          0DB\CoordinatorEB-Pro\Obj\ZDObject.r51             #
#                                                                             #
#                                                                             #
###############################################################################

C:\Users\zhuyi\Desktop\2016 µçÈü  ¾öÈü\8.6\Components\stack\zdo\ZDObject.c
      1          /**************************************************************************************************
      2            Filename:       ZDObject.c
      3            Revised:        $Date: 2009-03-19 11:37:20 -0700 (Thu, 19 Mar 2009) $
      4            Revision:       $Revision: 19466 $
      5          
      6            Description:    This is the Zigbee Device Object.
      7          
      8          
      9            Copyright 2004-2009 Texas Instruments Incorporated. All rights reserved.
     10          
     11            IMPORTANT: Your use of this Software is limited to those specific rights
     12            granted under the terms of a software license agreement between the user
     13            who downloaded the software, his/her employer (which must be your employer)
     14            and Texas Instruments Incorporated (the "License").  You may not use this
     15            Software unless you agree to abide by the terms of the License. The License
     16            limits your use, and you acknowledge, that the Software may not be modified,
     17            copied or distributed unless embedded on a Texas Instruments microcontroller
     18            or used solely and exclusively in conjunction with a Texas Instruments radio
     19            frequency transceiver, which is integrated into your product.  Other than for
     20            the foregoing purpose, you may not use, reproduce, copy, prepare derivative
     21            works of, modify, distribute, perform, display or sell this Software and/or
     22            its documentation for any purpose.
     23          
     24            YOU FURTHER ACKNOWLEDGE AND AGREE THAT THE SOFTWARE AND DOCUMENTATION ARE
     25            PROVIDED “AS IS” WITHOUT WARRANTY OF ANY KIND, EITHER EXPRESS OR IMPLIED,
     26            INCLUDING WITHOUT LIMITATION, ANY WARRANTY OF MERCHANTABILITY, TITLE,
     27            NON-INFRINGEMENT AND FITNESS FOR A PARTICULAR PURPOSE. IN NO EVENT SHALL
     28            TEXAS INSTRUMENTS OR ITS LICENSORS BE LIABLE OR OBLIGATED UNDER CONTRACT,
     29            NEGLIGENCE, STRICT LIABILITY, CONTRIBUTION, BREACH OF WARRANTY, OR OTHER
     30            LEGAL EQUITABLE THEORY ANY DIRECT OR INDIRECT DAMAGES OR EXPENSES
     31            INCLUDING BUT NOT LIMITED TO ANY INCIDENTAL, SPECIAL, INDIRECT, PUNITIVE
     32            OR CONSEQUENTIAL DAMAGES, LOST PROFITS OR LOST DATA, COST OF PROCUREMENT
     33            OF SUBSTITUTE GOODS, TECHNOLOGY, SERVICES, OR ANY CLAIMS BY THIRD PARTIES
     34            (INCLUDING BUT NOT LIMITED TO ANY DEFENSE THEREOF), OR OTHER SIMILAR COSTS.
     35          
     36            Should you have any questions regarding your right to use this Software,
     37            contact Texas Instruments Incorporated at www.TI.com.
     38          **************************************************************************************************/
     39          
     40          /*********************************************************************
     41           * INCLUDES
     42           */
     43          #include "ZComdef.h"
     44          #include "OSAL.h"
     45          #include "OSAL_Nv.h"
     46          #include "rtg.h"
     47          #include "NLMEDE.h"
     48          #include "nwk_globals.h"
     49          #include "APS.h"
     50          #include "APSMEDE.h"
     51          #include "AssocList.h"
     52          #include "BindingTable.h"
     53          #include "AddrMgr.h"
     54          #include "AF.h"
     55          #include "ZDObject.h"
     56          #include "ZDProfile.h"
     57          #include "ZDConfig.h"
     58          #include "ZDSecMgr.h"
     59          #include "ZDApp.h"
     60          #include "nwk_util.h"   // NLME_IsAddressBroadcast()
     61          #include "ZGlobals.h"
     62          
     63          #if defined( LCD_SUPPORTED )
     64            #include "OnBoard.h"
     65          #endif
     66          
     67          /* HAL */
     68          #include "hal_lcd.h"
     69          
     70          /*********************************************************************
     71           * MACROS
     72           */
     73          
     74          /*********************************************************************
     75           * CONSTANTS
     76           */
     77          // NLME Stub Implementations
     78          #define ZDO_ProcessMgmtPermitJoinTimeout NLME_PermitJoiningTimeout
     79          
     80          // Status fields used by ZDO_ProcessMgmtRtgReq
     81          #define ZDO_MGMT_RTG_ENTRY_ACTIVE             0x00
     82          #define ZDO_MGMT_RTG_ENTRY_DISCOVERY_UNDERWAY 0x01
     83          #define ZDO_MGMT_RTG_ENTRY_DISCOVERY_FAILED   0x02
     84          #define ZDO_MGMT_RTG_ENTRY_INACTIVE           0x03
     85          
     86          /*********************************************************************
     87           * TYPEDEFS
     88           */
     89          #if defined ( REFLECTOR )
     90          typedef struct
     91          {
     92            byte SrcTransSeq;
     93            zAddrType_t SrcAddr;
     94            uint16 LocalCoordinator;
     95            byte epIntf;
     96            uint16 ProfileID;
     97            byte numInClusters;
     98            uint16 *inClusters;
     99            byte numOutClusters;
    100            uint16 *outClusters;
    101            byte SecurityUse;
    102            byte status;
    103          } ZDO_EDBind_t;
    104          #endif // defined ( REFLECTOR )
    105          
    106          enum
    107          {
    108            ZDMATCH_INIT,           // Initialized
    109            ZDMATCH_WAIT_REQ,       // Received first request, waiting for second
    110            ZDMATCH_SENDING_BINDS   // Received both requests, sending unbind/binds
    111          };
    112          
    113          enum
    114          {
    115            ZDMATCH_SENDING_NOT,
    116            ZDMATCH_SENDING_UNBIND,
    117            ZDMATCH_SENDING_BIND
    118          };
    119          
    120          /*********************************************************************
    121           * GLOBAL VARIABLES
    122           */
    123          
    124          /*********************************************************************
    125           * EXTERNAL VARIABLES
    126           */
    127          
    128          /*********************************************************************
    129           * EXTERNAL FUNCTIONS
    130           */
    131          
    132          /*********************************************************************
    133           * LOCAL VARIABLES
    134           */

   \                                 In  segment XDATA_Z, align 1, keep-with-next
    135          static uint16 ZDOBuildBuf[26];  // temp area to build data without allocation
   \                     ZDOBuildBuf:
   \   000000                DS 52
   \   000034                REQUIRE __INIT_XDATA_Z
    136          
    137          #if defined ( REFLECTOR )

   \                                 In  segment XDATA_Z, align 1, keep-with-next
    138          static ZDO_EDBind_t *ZDO_EDBind;     // Null when not used
   \                     ZDO_EDBind:
   \   000000                DS 2
   \   000002                REQUIRE __INIT_XDATA_Z
    139          #endif
    140          
    141          #if defined ( MANAGED_SCAN )
    142            uint32 managedScanNextChannel = 0;
    143            uint32 managedScanChannelMask = 0;
    144            uint8  managedScanTimesPerChannel = 0;
    145          #endif
    146          

   \                                 In  segment XDATA_Z, align 1, keep-with-next
    147          ZDMatchEndDeviceBind_t *matchED = (ZDMatchEndDeviceBind_t *)NULL;
   \                     matchED:
   \   000000                DS 2
   \   000002                REQUIRE __INIT_XDATA_Z
    148          

   \                                 In  segment XDATA_Z, align 1, keep-with-next
    149          uint32 apsChannelMask = 0;
   \                     apsChannelMask:
   \   000000                DS 4
   \   000004                REQUIRE __INIT_XDATA_Z
    150          
    151          /*********************************************************************
    152           * LOCAL FUNCTIONS
    153           */
    154          static void ZDODeviceSetup( void );
    155          #if defined ( MANAGED_SCAN )
    156            static void ZDOManagedScan_Next( void );
    157          #endif
    158          #if defined ( REFLECTOR )
    159            static void ZDO_RemoveEndDeviceBind( void );
    160            static void ZDO_SendEDBindRsp( byte TransSeq, zAddrType_t *dstAddr, byte Status, byte secUse );
    161          #endif
    162          static byte ZDO_CompareClusterLists( byte numList1, uint16 *list1,
    163                                          byte numList2, uint16 *list2, uint16 *pMatches );
    164          static void ZDO_RemoveMatchMemory( void );
    165          static uint8 ZDO_CopyMatchInfo( ZDEndDeviceBind_t *destReq, ZDEndDeviceBind_t *srcReq );
    166          static void ZDO_EndDeviceBindMatchTimeoutCB( void );
    167          uint8 *ZDO_ConvertOTAClusters( uint8 cnt, uint8 *inBuf, uint16 *outList );
    168          
    169          /*********************************************************************
    170           * @fn          ZDO_Init
    171           *
    172           * @brief       ZDObject and ZDProfile initialization.
    173           *
    174           * @param       none
    175           *
    176           * @return      none
    177           */

   \                                 In  segment BANKED_CODE, align 1, keep-with-next
    178          void ZDO_Init( void )
   \                     ZDO_Init:
    179          {
   \   000000   C082         PUSH    DPL
   \   000002   C083         PUSH    DPH
   \   000004                ; Saved register size: 2
   \   000004                ; Auto size: 0
    180            // Initialize ZD items
    181            #if defined ( REFLECTOR )
    182            ZDO_EDBind = NULL;
   \   000004   90....       MOV     DPTR,#ZDO_EDBind
   \   000007   E4           CLR     A
   \   000008   F0           MOVX    @DPTR,A
   \   000009   A3           INC     DPTR
   \   00000A   F0           MOVX    @DPTR,A
    183            #endif
    184          
    185            // Initialize default ZDO_UseExtendedPANID to the APS one.
    186            osal_cpyExtAddr( ZDO_UseExtendedPANID, AIB_apsUseExtendedPANID );
   \   00000B                ; Setup parameters for call to function sAddrExtCpy
   \   00000B   7C..         MOV     R4,#AIB_apsUseExtendedPANID & 0xff
   \   00000D   7D..         MOV     R5,#(AIB_apsUseExtendedPANID >> 8) & 0xff
   \   00000F   7A..         MOV     R2,#ZDO_UseExtendedPANID & 0xff
   \   000011   7B..         MOV     R3,#(ZDO_UseExtendedPANID >> 8) & 0xff
   \   000013   12....       LCALL   ??sAddrExtCpy?relay
    187          
    188            // Setup the device - type of device to create.
    189            ZDODeviceSetup();
   \   000016                ; Setup parameters for call to function ZDODeviceSetup
   \   000016   12....       LCALL   ??ZDODeviceSetup?relay
    190          }
   \   000019   D083         POP     DPH
   \   00001B   D082         POP     DPL
   \   00001D   02....       LJMP    ?BRET
    191          
    192          #if defined ( MANAGED_SCAN )
    193          /*********************************************************************
    194           * @fn      ZDOManagedScan_Next()
    195           *
    196           * @brief   Setup a managed scan.
    197           *
    198           * @param   none
    199           *
    200           * @return  none
    201           */
    202          static void ZDOManagedScan_Next( void )
    203          {
    204            // Is it the first time
    205            if ( managedScanNextChannel == 0 && managedScanTimesPerChannel == 0 )
    206            {
    207              // Setup the defaults
    208              managedScanNextChannel  = 1;
    209          
    210              while( managedScanNextChannel && (zgDefaultChannelList & managedScanNextChannel) == 0 )
    211                managedScanNextChannel <<= 1;
    212          
    213              managedScanChannelMask = managedScanNextChannel;
    214              managedScanTimesPerChannel = MANAGEDSCAN_TIMES_PRE_CHANNEL;
    215            }
    216            else
    217            {
    218              // Do we need to go to the next channel
    219              if ( managedScanTimesPerChannel == 0 )
    220              {
    221                // Find next active channel
    222                managedScanChannelMask  = managedScanNextChannel;
    223                managedScanTimesPerChannel = MANAGEDSCAN_TIMES_PRE_CHANNEL;
    224              }
    225              else
    226              {
    227                managedScanTimesPerChannel--;
    228          
    229                if ( managedScanTimesPerChannel == 0 )
    230                {
    231                  managedScanNextChannel  <<= 1;
    232                  while( managedScanNextChannel && (zgDefaultChannelList & managedScanNextChannel) == 0 )
    233                    managedScanNextChannel <<= 1;
    234          
    235                  if ( managedScanNextChannel == 0 )
    236                    zdoDiscCounter  = NUM_DISC_ATTEMPTS + 1; // Stop
    237                }
    238              }
    239            }
    240          }
    241          #endif // MANAGED_SCAN
    242          
    243          /*********************************************************************
    244           * @fn      ZDODeviceSetup()
    245           *
    246           * @brief   Call set functions depending on the type of device compiled.
    247           *
    248           * @param   none
    249           *
    250           * @return  none
    251           */

   \                                 In  segment BANKED_CODE, align 1, keep-with-next
    252          static void ZDODeviceSetup( void )
   \                     ZDODeviceSetup:
    253          {
   \   000000   C082         PUSH    DPL
   \   000002   C083         PUSH    DPH
   \   000004                ; Saved register size: 2
   \   000004                ; Auto size: 0
    254            if ( ZG_BUILD_COORDINATOR_TYPE )
    255            {
    256              NLME_CoordinatorInit();
   \   000004                ; Setup parameters for call to function NLME_CoordinatorInit
   \   000004   12....       LCALL   ??NLME_CoordinatorInit?relay
    257            }
    258          
    259          #if defined ( REFLECTOR )
    260            APS_ReflectorInit( (ZG_DEVICE_COORDINATOR_TYPE) ? APS_REFLECTOR_PUBLIC :  APS_REFLECTOR_PRIVATE );
   \   000007                ; Setup parameters for call to function APS_ReflectorInit
   \   000007   7900         MOV     R1,#0x0
   \   000009   12....       LCALL   ??APS_ReflectorInit?relay
    261          #endif
    262          
    263            if ( ZG_BUILD_JOINING_TYPE )
    264            {
    265              NLME_DeviceJoiningInit();
    266            }
    267          }
   \   00000C   D083         POP     DPH
   \   00000E   D082         POP     DPL
   \   000010   02....       LJMP    ?BRET
    268          
    269          /*********************************************************************
    270           * @fn          ZDO_StartDevice
    271           *
    272           * @brief       This function starts a device in a network.
    273           *
    274           * @param       logicalType     - Device type to start
    275           *              startMode       - indicates mode of device startup
    276           *              beaconOrder     - indicates time betwen beacons
    277           *              superframeOrder - indicates length of active superframe
    278           *
    279           * @return      none
    280           */

   \                                 In  segment BANKED_CODE, align 1, keep-with-next
    281          void ZDO_StartDevice( byte logicalType, devStartModes_t startMode, byte beaconOrder, byte superframeOrder )
   \                     ZDO_StartDevice:
    282          {
   \   000000   74F5         MOV     A,#-0xb
   \   000002   12....       LCALL   ?BANKED_ENTER_XDATA
   \   000005                ; Saved register size: 11
   \   000005                ; Auto size: 0
   \   000005   EA           MOV     A,R2
   \   000006   FF           MOV     R7,A
   \   000007   EB           MOV     A,R3
   \   000008   FE           MOV     R6,A
    283            ZStatus_t ret;
    284          #if defined ( ZIGBEE_FREQ_AGILITY )
    285            static uint8 discRetries = 0;
    286          #endif
    287          #if defined ( ZIGBEE_COMMISSIONING )
    288            static uint8 scanCnt = 0;
    289          #endif
    290            
    291            ret = ZUnsupportedMode;
   \   000009   75..12       MOV     ?V0 + 1,#0x12
    292          
    293            if ( ZG_BUILD_COORDINATOR_TYPE && logicalType == NODETYPE_COORDINATOR )
   \   00000C   E9           MOV     A,R1
   \   00000D   7067         JNZ     ??ZDO_StartDevice_0
    294            {
    295              if ( startMode == MODE_HARD )
   \   00000F   7402         MOV     A,#0x2
   \   000011   6F           XRL     A,R7
   \   000012   7042         JNZ     ??ZDO_StartDevice_1
    296              {
    297                devState = DEV_COORD_STARTING;
   \   000014   90....       MOV     DPTR,#devState
   \   000017   7408         MOV     A,#0x8
   \   000019   F0           MOVX    @DPTR,A
    298                ret = NLME_NetworkFormationRequest( zgConfigPANID, zgApsUseExtendedPANID, zgDefaultChannelList,
    299                                                    zgDefaultStartingScanDuration, beaconOrder,
    300                                                    superframeOrder, false );
   \   00001A                ; Setup parameters for call to function NLME_NetworkFormationRequest
   \   00001A   75..00       MOV     ?V0 + 1,#0x0
   \   00001D   78..         MOV     R0,#?V0 + 1
   \   00001F   12....       LCALL   ?PUSH_XSTACK_I_ONE
   \   000022   EC           MOV     A,R4
   \   000023   F5..         MOV     ?V0 + 1,A
   \   000025   78..         MOV     R0,#?V0 + 1
   \   000027   12....       LCALL   ?PUSH_XSTACK_I_ONE
   \   00002A   EE           MOV     A,R6
   \   00002B   F5..         MOV     ?V0 + 1,A
   \   00002D   78..         MOV     R0,#?V0 + 1
   \   00002F   12....       LCALL   ?PUSH_XSTACK_I_ONE
   \   000032   90....       MOV     DPTR,#zgDefaultChannelList
   \   000035   12....       LCALL   ?PUSH_XSTACK8_X_FOUR
   \   000038   90....       MOV     DPTR,#zgDefaultStartingScanDuration
   \   00003B   E0           MOVX    A,@DPTR
   \   00003C   F9           MOV     R1,A
   \   00003D   7C..         MOV     R4,#zgApsUseExtendedPANID & 0xff
   \   00003F   7D..         MOV     R5,#(zgApsUseExtendedPANID >> 8) & 0xff
   \   000041   90....       MOV     DPTR,#zgConfigPANID
   \   000044   E0           MOVX    A,@DPTR
   \   000045   FA           MOV     R2,A
   \   000046   A3           INC     DPTR
   \   000047   E0           MOVX    A,@DPTR
   \   000048   FB           MOV     R3,A
   \   000049   12....       LCALL   ??NLME_NetworkFormationRequest?relay
   \   00004C   7407         MOV     A,#0x7
   \   00004E   12....       LCALL   ?DEALLOC_XSTACK8
   \                     ??ZDO_StartDevice_2:
   \   000051   E9           MOV     A,R1
   \   000052   F5..         MOV     ?V0 + 1,A
   \   000054   8020         SJMP    ??ZDO_StartDevice_0
    301              }
    302              else if ( startMode == MODE_RESUME )
   \                     ??ZDO_StartDevice_1:
   \   000056   7401         MOV     A,#0x1
   \   000058   6F           XRL     A,R7
   \   000059   7010         JNZ     ??ZDO_StartDevice_3
    303              {
    304                // Just start the coordinator
    305                devState = DEV_COORD_STARTING;
   \   00005B   90....       MOV     DPTR,#devState
   \   00005E   7408         MOV     A,#0x8
   \   000060   F0           MOVX    @DPTR,A
    306                ret = NLME_StartRouterRequest( beaconOrder, beaconOrder, false );
   \   000061                ; Setup parameters for call to function NLME_StartRouterRequest
   \   000061   7B00         MOV     R3,#0x0
   \   000063   EE           MOV     A,R6
   \   000064   FA           MOV     R2,A
   \   000065   F9           MOV     R1,A
   \   000066   12....       LCALL   ??NLME_StartRouterRequest?relay
   \   000069   80E6         SJMP    ??ZDO_StartDevice_2
    307              }
    308              else
    309              {
    310          #if defined( LCD_SUPPORTED )
    311                HalLcdWriteScreen( "StartDevice ERR", "MODE unknown" );
   \                     ??ZDO_StartDevice_3:
   \   00006B                ; Setup parameters for call to function HalLcdWriteScreen
   \   00006B   7C..         MOV     R4,#`?<Constant "MODE unknown">` & 0xff
   \   00006D   7D..         MOV     R5,#(`?<Constant "MODE unknown">` >> 8) & 0xff
   \   00006F   7A..         MOV     R2,#`?<Constant "StartDevice ERR">` & 0xff
   \   000071   7B..         MOV     R3,#(`?<Constant "StartDevice ERR">` >> 8) & 0xff
   \   000073   12....       LCALL   ??HalLcdWriteScreen?relay
    312          #endif
    313              }
    314            }
    315          
    316            if ( ZG_BUILD_JOINING_TYPE && (logicalType == NODETYPE_ROUTER || logicalType == NODETYPE_DEVICE) )
    317            {
    318              if ( (startMode == MODE_JOIN) || (startMode == MODE_REJOIN) )
    319              {
    320                devState = DEV_NWK_DISC;
    321          
    322            #if defined( MANAGED_SCAN )
    323                ZDOManagedScan_Next();
    324                ret = NLME_NetworkDiscoveryRequest( managedScanChannelMask, BEACON_ORDER_15_MSEC );
    325            #else
    326                ret = NLME_NetworkDiscoveryRequest( zgDefaultChannelList, zgDefaultStartingScanDuration );
    327              #if defined ( ZIGBEE_FREQ_AGILITY )
    328                if ( !( ZDO_Config_Node_Descriptor.CapabilityFlags & CAPINFO_RCVR_ON_IDLE ) &&
    329                      ( ret == ZSuccess ) && ( ++discRetries == 4 ) )
    330                {
    331                  // For devices with RxOnWhenIdle equals to FALSE, any network channel
    332                  // change will not be recieved. On these devices or routers that have 
    333                  // lost the network, an active scan shall be conducted on the Default
    334                  // Channel list using the extended PANID to find the network. If the 
    335                  // extended PANID isn't found using the Default Channel list, an scan
    336                  // should be completed using all channels.
    337                  zgDefaultChannelList = MAX_CHANNELS_24GHZ;
    338                }
    339              #endif // ZIGBEE_FREQ_AGILITY
    340              #if defined ( ZIGBEE_COMMISSIONING )
    341                if (startMode == MODE_REJOIN && scanCnt++ >= 5 )
    342                {
    343                  // When ApsUseExtendedPanID is commissioned to a non zero value via 
    344                  // application specific means, the device shall conduct an active scan
    345                  // on the Default Channel list and join the PAN with the same
    346                  // ExtendedPanID. If the PAN is not found, an scan should be completed
    347                  // on all channels.
    348                  // When devices rejoin the network and the PAN is not found from 
    349                  zgDefaultChannelList = MAX_CHANNELS_24GHZ;
    350                }  
    351              #endif // ZIGBEE_COMMISSIONING
    352            #endif
    353              }
    354              else if ( startMode == MODE_RESUME )
    355              {
    356                if ( logicalType == NODETYPE_ROUTER )
    357                {
    358                  ZMacScanCnf_t scanCnf;
    359                  devState = DEV_NWK_ORPHAN;
    360          
    361                  /* if router and nvram is available, fake successful orphan scan */
    362                  scanCnf.hdr.Status = ZSUCCESS;
    363                  scanCnf.ScanType = ZMAC_ORPHAN_SCAN;
    364                  scanCnf.UnscannedChannels = 0;
    365                  scanCnf.ResultListSize = 0;
    366                  nwk_ScanJoiningOrphan(&scanCnf);
    367          
    368                  ret = ZSuccess;
    369                }
    370                else
    371                {
    372                  devState = DEV_NWK_ORPHAN;
    373                  ret = NLME_OrphanJoinRequest( zgDefaultChannelList,
    374                                                zgDefaultStartingScanDuration );
    375                }
    376              }
    377              else
    378              {
    379          #if defined( LCD_SUPPORTED )
    380                HalLcdWriteScreen( "StartDevice ERR", "MODE unknown" );
    381          #endif
    382              }
    383            }
    384          
    385            if ( ret != ZSuccess )
   \                     ??ZDO_StartDevice_0:
   \   000076   E5..         MOV     A,?V0 + 1
   \   000078   6010         JZ      ??ZDO_StartDevice_4
    386              osal_start_timerEx(ZDAppTaskID, ZDO_NETWORK_INIT, NWK_RETRY_DELAY );
   \   00007A                ; Setup parameters for call to function osal_start_timerEx
   \   00007A   7CE8         MOV     R4,#-0x18
   \   00007C   7D03         MOV     R5,#0x3
   \   00007E   7A01         MOV     R2,#0x1
   \   000080   7B00         MOV     R3,#0x0
   \   000082   90....       MOV     DPTR,#ZDAppTaskID
   \   000085   E0           MOVX    A,@DPTR
   \   000086   F9           MOV     R1,A
   \   000087   12....       LCALL   ??osal_start_timerEx?relay
    387          }
   \                     ??ZDO_StartDevice_4:
   \   00008A   7F03         MOV     R7,#0x3
   \   00008C   02....       LJMP    ?BANKED_LEAVE_XDATA
    388          
    389          /*********************************************************************
    390           * @fn      ZDO_UpdateNwkStatus()
    391           *
    392           * @brief
    393           *
    394           *   This function will send an update message to each registered
    395           *   application endpoint/interface about a network status change.
    396           *
    397           * @param   none
    398           *
    399           * @return  none
    400           */

   \                                 In  segment BANKED_CODE, align 1, keep-with-next
    401          void ZDO_UpdateNwkStatus( devStates_t state )
   \                     ZDO_UpdateNwkStatus:
    402          {
   \   000000   74F4         MOV     A,#-0xc
   \   000002   12....       LCALL   ?BANKED_ENTER_XDATA
   \   000005                ; Saved register size: 12
   \   000005                ; Auto size: 0
   \   000005   89..         MOV     ?V0 + 0,R1
    403            // Endpoint/Interface descriptor list.
    404            epList_t *epDesc = epList;
   \   000007   90....       MOV     DPTR,#epList
   \   00000A   E0           MOVX    A,@DPTR
   \   00000B   FE           MOV     R6,A
   \   00000C   A3           INC     DPTR
   \   00000D   E0           MOVX    A,@DPTR
   \   00000E   FF           MOV     R7,A
    405            byte bufLen = sizeof(osal_event_hdr_t);
    406            osal_event_hdr_t *msgPtr;
    407          
    408            ZDAppNwkAddr.addr.shortAddr = NLME_GetShortAddr();
   \   00000F                ; Setup parameters for call to function NLME_GetShortAddr
   \   00000F   12....       LCALL   ??NLME_GetShortAddr?relay
   \   000012   90....       MOV     DPTR,#ZDAppNwkAddr
   \   000015   EA           MOV     A,R2
   \   000016   F0           MOVX    @DPTR,A
   \   000017   A3           INC     DPTR
   \   000018   EB           MOV     A,R3
   \   000019   F0           MOVX    @DPTR,A
    409            (void)NLME_GetExtAddr();  // Load the saveExtAddr pointer.
   \   00001A                ; Setup parameters for call to function NLME_GetExtAddr
   \   00001A   12....       LCALL   ??NLME_GetExtAddr?relay
   \   00001D   804D         SJMP    ??ZDO_UpdateNwkStatus_0
    410          
    411            while ( epDesc )
    412            {
    413              if ( epDesc->epDesc->endPoint != ZDO_EP )
   \                     ??ZDO_UpdateNwkStatus_1:
   \   00001F   8E82         MOV     DPL,R6
   \   000021   8F83         MOV     DPH,R7
   \   000023   E0           MOVX    A,@DPTR
   \   000024   F8           MOV     R0,A
   \   000025   A3           INC     DPTR
   \   000026   E0           MOVX    A,@DPTR
   \   000027   F583         MOV     DPH,A
   \   000029   8882         MOV     DPL,R0
   \   00002B   E0           MOVX    A,@DPTR
   \   00002C   6030         JZ      ??ZDO_UpdateNwkStatus_2
    414              {
    415                msgPtr = (osal_event_hdr_t *)osal_msg_allocate( bufLen );
   \   00002E                ; Setup parameters for call to function osal_msg_allocate
   \   00002E   7A02         MOV     R2,#0x2
   \   000030   7B00         MOV     R3,#0x0
   \   000032   12....       LCALL   ??osal_msg_allocate?relay
    416                if ( msgPtr )
   \   000035   EA           MOV     A,R2
   \   000036   4B           ORL     A,R3
   \   000037   6025         JZ      ??ZDO_UpdateNwkStatus_2
    417                {
    418                  msgPtr->event = ZDO_STATE_CHANGE; // Command ID
   \   000039   8A82         MOV     DPL,R2
   \   00003B   8B83         MOV     DPH,R3
   \   00003D   74D1         MOV     A,#-0x2f
   \   00003F   F0           MOVX    @DPTR,A
    419                  msgPtr->status = (byte)state;
   \   000040   A3           INC     DPTR
   \   000041   E5..         MOV     A,?V0 + 0
   \   000043   F0           MOVX    @DPTR,A
    420          
    421                  osal_msg_send( *(epDesc->epDesc->task_id), (uint8 *)msgPtr );
   \   000044                ; Setup parameters for call to function osal_msg_send
   \   000044   8E82         MOV     DPL,R6
   \   000046   8F83         MOV     DPH,R7
   \   000048   E0           MOVX    A,@DPTR
   \   000049   F8           MOV     R0,A
   \   00004A   A3           INC     DPTR
   \   00004B   E0           MOVX    A,@DPTR
   \   00004C   F583         MOV     DPH,A
   \   00004E   8882         MOV     DPL,R0
   \   000050   A3           INC     DPTR
   \   000051   E0           MOVX    A,@DPTR
   \   000052   F8           MOV     R0,A
   \   000053   A3           INC     DPTR
   \   000054   E0           MOVX    A,@DPTR
   \   000055   F583         MOV     DPH,A
   \   000057   8882         MOV     DPL,R0
   \   000059   E0           MOVX    A,@DPTR
   \   00005A   F9           MOV     R1,A
   \   00005B   12....       LCALL   ??osal_msg_send?relay
    422                }
    423              }
    424              epDesc = epDesc->nextDesc;
   \                     ??ZDO_UpdateNwkStatus_2:
   \   00005E   8E82         MOV     DPL,R6
   \   000060   8F83         MOV     DPH,R7
   \   000062   A3           INC     DPTR
   \   000063   A3           INC     DPTR
   \   000064   A3           INC     DPTR
   \   000065   A3           INC     DPTR
   \   000066   A3           INC     DPTR
   \   000067   E0           MOVX    A,@DPTR
   \   000068   FE           MOV     R6,A
   \   000069   A3           INC     DPTR
   \   00006A   E0           MOVX    A,@DPTR
   \   00006B   FF           MOV     R7,A
    425            }
   \                     ??ZDO_UpdateNwkStatus_0:
   \   00006C   EE           MOV     A,R6
   \   00006D   4F           ORL     A,R7
   \   00006E   70AF         JNZ     ??ZDO_UpdateNwkStatus_1
    426          }
   \   000070   7F04         MOV     R7,#0x4
   \   000072   02....       LJMP    ?BANKED_LEAVE_XDATA
    427          
    428          #if defined ( REFLECTOR )
    429          /*********************************************************************
    430           * @fn          ZDO_RemoveEndDeviceBind
    431           *
    432           * @brief       Remove the end device bind
    433           *
    434           * @param  none
    435           *
    436           * @return      none
    437           */

   \                                 In  segment BANKED_CODE, align 1, keep-with-next
    438          static void ZDO_RemoveEndDeviceBind( void )
   \                     ZDO_RemoveEndDeviceBind:
    439          {
   \   000000   C082         PUSH    DPL
   \   000002   C083         PUSH    DPH
   \   000004                ; Saved register size: 2
   \   000004                ; Auto size: 0
    440            if ( ZDO_EDBind != NULL )
   \   000004   90....       MOV     DPTR,#ZDO_EDBind
   \   000007   E0           MOVX    A,@DPTR
   \   000008   F8           MOV     R0,A
   \   000009   A3           INC     DPTR
   \   00000A   E0           MOVX    A,@DPTR
   \   00000B   F9           MOV     R1,A
   \   00000C   E8           MOV     A,R0
   \   00000D   49           ORL     A,R1
   \   00000E   605C         JZ      ??ZDO_RemoveEndDeviceBind_0
    441            {
    442              // Free the RAM
    443              if ( ZDO_EDBind->inClusters != NULL )
   \   000010   90....       MOV     DPTR,#ZDO_EDBind
   \   000013   E0           MOVX    A,@DPTR
   \   000014   2410         ADD     A,#0x10
   \   000016   F8           MOV     R0,A
   \   000017   A3           INC     DPTR
   \   000018   E0           MOVX    A,@DPTR
   \   000019   3400         ADDC    A,#0x0
   \   00001B   F9           MOV     R1,A
   \   00001C   8882         MOV     DPL,R0
   \   00001E   8983         MOV     DPH,R1
   \   000020   E0           MOVX    A,@DPTR
   \   000021   FA           MOV     R2,A
   \   000022   A3           INC     DPTR
   \   000023   E0           MOVX    A,@DPTR
   \   000024   FB           MOV     R3,A
   \   000025   EA           MOV     A,R2
   \   000026   4B           ORL     A,R3
   \   000027   600C         JZ      ??ZDO_RemoveEndDeviceBind_1
    444                osal_mem_free( ZDO_EDBind->inClusters );
   \   000029                ; Setup parameters for call to function osal_mem_free
   \   000029   8882         MOV     DPL,R0
   \   00002B   8983         MOV     DPH,R1
   \   00002D   E0           MOVX    A,@DPTR
   \   00002E   FA           MOV     R2,A
   \   00002F   A3           INC     DPTR
   \   000030   E0           MOVX    A,@DPTR
   \   000031   FB           MOV     R3,A
   \   000032   12....       LCALL   ??osal_mem_free?relay
    445              if ( ZDO_EDBind->outClusters != NULL )
   \                     ??ZDO_RemoveEndDeviceBind_1:
   \   000035   90....       MOV     DPTR,#ZDO_EDBind
   \   000038   E0           MOVX    A,@DPTR
   \   000039   2413         ADD     A,#0x13
   \   00003B   F8           MOV     R0,A
   \   00003C   A3           INC     DPTR
   \   00003D   E0           MOVX    A,@DPTR
   \   00003E   3400         ADDC    A,#0x0
   \   000040   F9           MOV     R1,A
   \   000041   8882         MOV     DPL,R0
   \   000043   8983         MOV     DPH,R1
   \   000045   E0           MOVX    A,@DPTR
   \   000046   FA           MOV     R2,A
   \   000047   A3           INC     DPTR
   \   000048   E0           MOVX    A,@DPTR
   \   000049   FB           MOV     R3,A
   \   00004A   EA           MOV     A,R2
   \   00004B   4B           ORL     A,R3
   \   00004C   600C         JZ      ??ZDO_RemoveEndDeviceBind_2
    446                osal_mem_free( ZDO_EDBind->outClusters );
   \   00004E                ; Setup parameters for call to function osal_mem_free
   \   00004E   8882         MOV     DPL,R0
   \   000050   8983         MOV     DPH,R1
   \   000052   E0           MOVX    A,@DPTR
   \   000053   FA           MOV     R2,A
   \   000054   A3           INC     DPTR
   \   000055   E0           MOVX    A,@DPTR
   \   000056   FB           MOV     R3,A
   \   000057   12....       LCALL   ??osal_mem_free?relay
    447              osal_mem_free( ZDO_EDBind );
   \                     ??ZDO_RemoveEndDeviceBind_2:
   \   00005A                ; Setup parameters for call to function osal_mem_free
   \   00005A   90....       MOV     DPTR,#ZDO_EDBind
   \   00005D   E0           MOVX    A,@DPTR
   \   00005E   FA           MOV     R2,A
   \   00005F   A3           INC     DPTR
   \   000060   E0           MOVX    A,@DPTR
   \   000061   FB           MOV     R3,A
   \   000062   12....       LCALL   ??osal_mem_free?relay
    448              ZDO_EDBind = NULL;
   \   000065   90....       MOV     DPTR,#ZDO_EDBind
   \   000068   E4           CLR     A
   \   000069   F0           MOVX    @DPTR,A
   \   00006A   A3           INC     DPTR
   \   00006B   F0           MOVX    @DPTR,A
    449            }
    450          }
   \                     ??ZDO_RemoveEndDeviceBind_0:
   \   00006C   D083         POP     DPH
   \   00006E   D082         POP     DPL
   \   000070   02....       LJMP    ?BRET
    451          #endif // REFLECTOR
    452          
    453          #if defined ( REFLECTOR )
    454          /*********************************************************************
    455           * @fn          ZDO_RemoveEndDeviceBind
    456           *
    457           * @brief       Remove the end device bind
    458           *
    459           * @param  none
    460           *
    461           * @return      none
    462           */

   \                                 In  segment BANKED_CODE, align 1, keep-with-next
    463          static void ZDO_SendEDBindRsp( byte TransSeq, zAddrType_t *dstAddr, byte Status, byte secUse )
   \                     ZDO_SendEDBindRsp:
    464          {
   \   000000   74F6         MOV     A,#-0xa
   \   000002   12....       LCALL   ?BANKED_ENTER_XDATA
   \   000005                ; Saved register size: 10
   \   000005                ; Auto size: 2
   \   000005   74FE         MOV     A,#-0x2
   \   000007   12....       LCALL   ?ALLOC_XSTACK8
   \   00000A   E9           MOV     A,R1
   \   00000B   C0E0         PUSH    A
   \   00000D   7401         MOV     A,#0x1
   \   00000F   12....       LCALL   ?XSTACK_DISP0_8
   \   000012   D0E0         POP     A
   \   000014   F0           MOVX    @DPTR,A
   \   000015   EC           MOV     A,R4
   \   000016   85..82       MOV     DPL,?XSP + 0
   \   000019   85..83       MOV     DPH,?XSP + 1
   \   00001C   F0           MOVX    @DPTR,A
   \   00001D   ED           MOV     A,R5
    465            ZDP_EndDeviceBindRsp( TransSeq, dstAddr, Status, secUse );
   \   00001E                ; Setup parameters for call to function ZDP_SendData
   \   00001E   F5..         MOV     ?V0 + 0,A
   \   000020   78..         MOV     R0,#?V0 + 0
   \   000022   12....       LCALL   ?PUSH_XSTACK_I_ONE
   \   000025   7401         MOV     A,#0x1
   \   000027   12....       LCALL   ?XSTACK_DISP0_8
   \   00002A   8582..       MOV     ?V0 + 0,DPL
   \   00002D   8583..       MOV     ?V0 + 1,DPH
   \   000030   78..         MOV     R0,#?V0 + 0
   \   000032   12....       LCALL   ?PUSH_XSTACK_I_TWO
   \   000035   75..20       MOV     ?V0 + 0,#0x20
   \   000038   75..80       MOV     ?V0 + 1,#-0x80
   \   00003B   78..         MOV     R0,#?V0 + 0
   \   00003D   12....       LCALL   ?PUSH_XSTACK_I_TWO
   \   000040   7901         MOV     R1,#0x1
   \   000042   EA           MOV     A,R2
   \   000043   FC           MOV     R4,A
   \   000044   EB           MOV     A,R3
   \   000045   FD           MOV     R5,A
   \   000046   7406         MOV     A,#0x6
   \   000048   12....       LCALL   ?XSTACK_DISP0_8
   \   00004B   AA82         MOV     R2,DPL
   \   00004D   AB83         MOV     R3,DPH
   \   00004F   12....       LCALL   ??ZDP_SendData?relay
   \   000052   7405         MOV     A,#0x5
   \   000054   12....       LCALL   ?DEALLOC_XSTACK8
    466          
    467          #if defined( LCD_SUPPORTED )
    468            HalLcdWriteString( "End Device Bind", HAL_LCD_LINE_1 );
   \   000057                ; Setup parameters for call to function HalLcdWriteString
   \   000057   7901         MOV     R1,#0x1
   \   000059   7A..         MOV     R2,#`?<Constant "End Device Bind">` & 0xff
   \   00005B   7B..         MOV     R3,#(`?<Constant "End Device Bind">` >> 8) & 0xff
   \   00005D   12....       LCALL   ??HalLcdWriteString?relay
    469            if ( Status == ZDP_SUCCESS )
   \   000060   85..82       MOV     DPL,?XSP + 0
   \   000063   85..83       MOV     DPH,?XSP + 1
   \   000066   E0           MOVX    A,@DPTR
   \   000067   7902         MOV     R1,#0x2
   \   000069   7006         JNZ     ??ZDO_SendEDBindRsp_0
    470              HalLcdWriteString( "Success Sent", HAL_LCD_LINE_2 );
   \   00006B                ; Setup parameters for call to function HalLcdWriteString
   \   00006B   7A..         MOV     R2,#`?<Constant "Success Sent">` & 0xff
   \   00006D   7B..         MOV     R3,#(`?<Constant "Success Sent">` >> 8) & 0xff
   \   00006F   8004         SJMP    ??ZDO_SendEDBindRsp_1
    471            else
    472              HalLcdWriteString( "Timeout", HAL_LCD_LINE_2 );
   \                     ??ZDO_SendEDBindRsp_0:
   \   000071                ; Setup parameters for call to function HalLcdWriteString
   \   000071   7A..         MOV     R2,#`?<Constant "Timeout">` & 0xff
   \   000073   7B..         MOV     R3,#(`?<Constant "Timeout">` >> 8) & 0xff
   \                     ??ZDO_SendEDBindRsp_1:
   \   000075   12....       LCALL   ??HalLcdWriteString?relay
    473          #endif
    474          
    475          }
   \   000078   7402         MOV     A,#0x2
   \   00007A   12....       LCALL   ?DEALLOC_XSTACK8
   \   00007D   7F02         MOV     R7,#0x2
   \   00007F   02....       LJMP    ?BANKED_LEAVE_XDATA
    476          #endif // REFLECTOR
    477          
    478          /*********************************************************************
    479           * @fn          ZDO_CompareClusterLists
    480           *
    481           * @brief       Compare one list to another list
    482           *
    483           * @param       numList1 - number of items in list 1
    484           * @param       list1 - first list of cluster IDs
    485           * @param       numList2 - number of items in list 2
    486           * @param       list2 - second list of cluster IDs
    487           * @param       pMatches - buffer to put matches
    488           *
    489           * @return      number of matches
    490           */

   \                                 In  segment BANKED_CODE, align 1, keep-with-next
    491          static byte ZDO_CompareClusterLists( byte numList1, uint16 *list1,
   \                     ZDO_CompareClusterLists:
    492                                    byte numList2, uint16 *list2, uint16 *pMatches )
    493          {
   \   000000   74F0         MOV     A,#-0x10
   \   000002   12....       LCALL   ?BANKED_ENTER_XDATA
   \   000005                ; Saved register size: 16
   \   000005                ; Auto size: 0
   \   000005   E9           MOV     A,R1
   \   000006   FD           MOV     R5,A
   \   000007   8A..         MOV     ?V0 + 6,R2
   \   000009   8B..         MOV     ?V0 + 7,R3
   \   00000B   7410         MOV     A,#0x10
   \   00000D   12....       LCALL   ?XSTACK_DISP0_8
   \   000010   E0           MOVX    A,@DPTR
   \   000011   FE           MOV     R6,A
   \   000012   A3           INC     DPTR
   \   000013   E0           MOVX    A,@DPTR
   \   000014   FF           MOV     R7,A
   \   000015   7412         MOV     A,#0x12
   \   000017   12....       LCALL   ?XSTACK_DISP0_8
   \   00001A   E0           MOVX    A,@DPTR
   \   00001B   F5..         MOV     ?V0 + 0,A
   \   00001D   A3           INC     DPTR
   \   00001E   E0           MOVX    A,@DPTR
   \   00001F   F5..         MOV     ?V0 + 1,A
    494            byte x, y;
    495            uint16 z;
    496            byte numMatches = 0;
   \   000021   7A00         MOV     R2,#0x0
    497          
    498            // Check the first in against the seconds out
    499            for ( x = 0; x < numList1; x++ )
   \   000023   7B00         MOV     R3,#0x0
   \   000025   8055         SJMP    ??ZDO_CompareClusterLists_0
    500            {
    501              for ( y = 0; y < numList2; y++ )
    502              {
    503                z = list2[y];
   \                     ??ZDO_CompareClusterLists_1:
   \   000027   E5..         MOV     A,?V0 + 4
   \   000029   C3           CLR     C
   \   00002A   33           RLC     A
   \   00002B   F8           MOV     R0,A
   \   00002C   E4           CLR     A
   \   00002D   33           RLC     A
   \   00002E   F9           MOV     R1,A
   \   00002F   EE           MOV     A,R6
   \   000030   28           ADD     A,R0
   \   000031   F582         MOV     DPL,A
   \   000033   EF           MOV     A,R7
   \   000034   39           ADDC    A,R1
   \   000035   F583         MOV     DPH,A
   \   000037   E0           MOVX    A,@DPTR
   \   000038   F5..         MOV     ?V0 + 2,A
   \   00003A   A3           INC     DPTR
   \   00003B   E0           MOVX    A,@DPTR
   \   00003C   F5..         MOV     ?V0 + 3,A
    504                if ( list1[x] == z )
   \   00003E   EB           MOV     A,R3
   \   00003F   C3           CLR     C
   \   000040   33           RLC     A
   \   000041   F8           MOV     R0,A
   \   000042   E4           CLR     A
   \   000043   33           RLC     A
   \   000044   F9           MOV     R1,A
   \   000045   E5..         MOV     A,?V0 + 6
   \   000047   28           ADD     A,R0
   \   000048   F582         MOV     DPL,A
   \   00004A   E5..         MOV     A,?V0 + 7
   \   00004C   39           ADDC    A,R1
   \   00004D   F583         MOV     DPH,A
   \   00004F   E0           MOVX    A,@DPTR
   \   000050   65..         XRL     A,?V0 + 2
   \   000052   7004         JNZ     ??ZDO_CompareClusterLists_2
   \   000054   A3           INC     DPTR
   \   000055   E0           MOVX    A,@DPTR
   \   000056   65..         XRL     A,?V0 + 3
   \                     ??ZDO_CompareClusterLists_2:
   \   000058   7019         JNZ     ??ZDO_CompareClusterLists_3
    505                  pMatches[numMatches++] = z;
   \   00005A   EA           MOV     A,R2
   \   00005B   C3           CLR     C
   \   00005C   33           RLC     A
   \   00005D   F8           MOV     R0,A
   \   00005E   E4           CLR     A
   \   00005F   33           RLC     A
   \   000060   F9           MOV     R1,A
   \   000061   E5..         MOV     A,?V0 + 0
   \   000063   28           ADD     A,R0
   \   000064   F582         MOV     DPL,A
   \   000066   E5..         MOV     A,?V0 + 1
   \   000068   39           ADDC    A,R1
   \   000069   F583         MOV     DPH,A
   \   00006B   E5..         MOV     A,?V0 + 2
   \   00006D   F0           MOVX    @DPTR,A
   \   00006E   A3           INC     DPTR
   \   00006F   E5..         MOV     A,?V0 + 3
   \   000071   F0           MOVX    @DPTR,A
   \   000072   0A           INC     R2
    506              }
   \                     ??ZDO_CompareClusterLists_3:
   \   000073   05..         INC     ?V0 + 4
   \                     ??ZDO_CompareClusterLists_4:
   \   000075   E5..         MOV     A,?V0 + 4
   \   000077   C3           CLR     C
   \   000078   9C           SUBB    A,R4
   \   000079   40AC         JC      ??ZDO_CompareClusterLists_1
   \   00007B   0B           INC     R3
   \                     ??ZDO_CompareClusterLists_0:
   \   00007C   EB           MOV     A,R3
   \   00007D   C3           CLR     C
   \   00007E   9D           SUBB    A,R5
   \   00007F   5005         JNC     ??ZDO_CompareClusterLists_5
   \   000081   75..00       MOV     ?V0 + 4,#0x0
   \   000084   80EF         SJMP    ??ZDO_CompareClusterLists_4
    507            }
    508          
    509            return ( numMatches );
   \                     ??ZDO_CompareClusterLists_5:
   \   000086   EA           MOV     A,R2
   \   000087   F9           MOV     R1,A
   \   000088   7F08         MOV     R7,#0x8
   \   00008A   02....       LJMP    ?BANKED_LEAVE_XDATA
    510          }
    511          
    512          /*********************************************************************
    513           * Utility functions
    514           */
    515          
    516          /*********************************************************************
    517           * @fn          ZDO_CompareByteLists
    518           *
    519           * @brief       Compares two lists for matches.
    520           *
    521           * @param       ACnt  - number of entries in list A
    522           * @param       AList  - List A
    523           * @param       BCnt  - number of entries in list B
    524           * @param       BList  - List B
    525           *
    526           * @return      true if a match is found
    527           */

   \                                 In  segment BANKED_CODE, align 1, keep-with-next
    528          byte ZDO_AnyClusterMatches( byte ACnt, uint16 *AList, byte BCnt, uint16 *BList )
   \                     ZDO_AnyClusterMatches:
    529          {
   \   000000   74F4         MOV     A,#-0xc
   \   000002   12....       LCALL   ?BANKED_ENTER_XDATA
   \   000005                ; Saved register size: 12
   \   000005                ; Auto size: 0
   \   000005   E9           MOV     A,R1
   \   000006   FE           MOV     R6,A
   \   000007   EC           MOV     A,R4
   \   000008   FF           MOV     R7,A
   \   000009   740C         MOV     A,#0xc
   \   00000B   12....       LCALL   ?XSTACK_DISP0_8
   \   00000E   E0           MOVX    A,@DPTR
   \   00000F   F8           MOV     R0,A
   \   000010   A3           INC     DPTR
   \   000011   E0           MOVX    A,@DPTR
   \   000012   F9           MOV     R1,A
    530            byte x, y;
    531          
    532            for ( x = 0; x < ACnt; x++ )
   \   000013   75..00       MOV     ?V0 + 3,#0x0
   \   000016   8002         SJMP    ??ZDO_AnyClusterMatches_0
   \                     ??ZDO_AnyClusterMatches_1:
   \   000018   05..         INC     ?V0 + 3
   \                     ??ZDO_AnyClusterMatches_0:
   \   00001A   E5..         MOV     A,?V0 + 3
   \   00001C   C3           CLR     C
   \   00001D   9E           SUBB    A,R6
   \   00001E   5043         JNC     ??ZDO_AnyClusterMatches_2
    533            {
    534              for ( y = 0; y < BCnt; y++ )
   \   000020   75..00       MOV     ?V0 + 2,#0x0
   \   000023   8002         SJMP    ??ZDO_AnyClusterMatches_3
   \                     ??ZDO_AnyClusterMatches_4:
   \   000025   05..         INC     ?V0 + 2
   \                     ??ZDO_AnyClusterMatches_3:
   \   000027   E5..         MOV     A,?V0 + 2
   \   000029   C3           CLR     C
   \   00002A   9F           SUBB    A,R7
   \   00002B   50EB         JNC     ??ZDO_AnyClusterMatches_1
    535              {
    536                if ( AList[x] == BList[y] )
   \   00002D   E5..         MOV     A,?V0 + 3
   \   00002F   C3           CLR     C
   \   000030   33           RLC     A
   \   000031   FC           MOV     R4,A
   \   000032   E4           CLR     A
   \   000033   33           RLC     A
   \   000034   FD           MOV     R5,A
   \   000035   EA           MOV     A,R2
   \   000036   2C           ADD     A,R4
   \   000037   F582         MOV     DPL,A
   \   000039   EB           MOV     A,R3
   \   00003A   3D           ADDC    A,R5
   \   00003B   F583         MOV     DPH,A
   \   00003D   E0           MOVX    A,@DPTR
   \   00003E   F5..         MOV     ?V0 + 0,A
   \   000040   A3           INC     DPTR
   \   000041   E0           MOVX    A,@DPTR
   \   000042   F5..         MOV     ?V0 + 1,A
   \   000044   E5..         MOV     A,?V0 + 2
   \   000046   C3           CLR     C
   \   000047   33           RLC     A
   \   000048   FC           MOV     R4,A
   \   000049   E4           CLR     A
   \   00004A   33           RLC     A
   \   00004B   FD           MOV     R5,A
   \   00004C   E8           MOV     A,R0
   \   00004D   2C           ADD     A,R4
   \   00004E   F582         MOV     DPL,A
   \   000050   E9           MOV     A,R1
   \   000051   3D           ADDC    A,R5
   \   000052   F583         MOV     DPH,A
   \   000054   E0           MOVX    A,@DPTR
   \   000055   65..         XRL     A,?V0 + 0
   \   000057   7004         JNZ     ??ZDO_AnyClusterMatches_5
   \   000059   A3           INC     DPTR
   \   00005A   E0           MOVX    A,@DPTR
   \   00005B   65..         XRL     A,?V0 + 1
   \                     ??ZDO_AnyClusterMatches_5:
   \   00005D   70C6         JNZ     ??ZDO_AnyClusterMatches_4
    537                {
    538                  return true;
   \   00005F   7901         MOV     R1,#0x1
   \   000061   8002         SJMP    ??ZDO_AnyClusterMatches_6
    539                }
    540              }
    541            }
    542          
    543            return false;
   \                     ??ZDO_AnyClusterMatches_2:
   \   000063   7900         MOV     R1,#0x0
   \                     ??ZDO_AnyClusterMatches_6:
   \   000065   7F04         MOV     R7,#0x4
   \   000067   02....       LJMP    ?BANKED_LEAVE_XDATA
    544          }
    545          
    546          /*********************************************************************
    547           * Callback functions from ZDProfile
    548           */
    549          
    550          /*********************************************************************
    551           * @fn          ZDO_ProcessNodeDescReq
    552           *
    553           * @brief       This function processes and responds to the
    554           *              Node_Desc_req message.
    555           *
    556           * @param       inMsg - incoming message
    557           *
    558           * @return      none
    559           */

   \                                 In  segment BANKED_CODE, align 1, keep-with-next
    560          void ZDO_ProcessNodeDescReq( zdoIncomingMsg_t *inMsg ) 
   \                     ZDO_ProcessNodeDescReq:
    561          {
   \   000000   74F6         MOV     A,#-0xa
   \   000002   12....       LCALL   ?BANKED_ENTER_XDATA
   \   000005                ; Saved register size: 10
   \   000005                ; Auto size: 0
   \   000005   EA           MOV     A,R2
   \   000006   FE           MOV     R6,A
   \   000007   EB           MOV     A,R3
   \   000008   FF           MOV     R7,A
    562            uint16 aoi = BUILD_UINT16( inMsg->asdu[0], inMsg->asdu[1] );
   \   000009   EE           MOV     A,R6
   \   00000A   2413         ADD     A,#0x13
   \   00000C   F8           MOV     R0,A
   \   00000D   EF           MOV     A,R7
   \   00000E   3400         ADDC    A,#0x0
   \   000010   F9           MOV     R1,A
   \   000011   8882         MOV     DPL,R0
   \   000013   8983         MOV     DPH,R1
   \   000015   E0           MOVX    A,@DPTR
   \   000016   FA           MOV     R2,A
   \   000017   A3           INC     DPTR
   \   000018   E0           MOVX    A,@DPTR
   \   000019   F583         MOV     DPH,A
   \   00001B   8A82         MOV     DPL,R2
   \   00001D   E0           MOVX    A,@DPTR
   \   00001E   FA           MOV     R2,A
   \   00001F   8882         MOV     DPL,R0
   \   000021   8983         MOV     DPH,R1
   \   000023   E0           MOVX    A,@DPTR
   \   000024   F8           MOV     R0,A
   \   000025   A3           INC     DPTR
   \   000026   E0           MOVX    A,@DPTR
   \   000027   F583         MOV     DPH,A
   \   000029   8882         MOV     DPL,R0
   \   00002B   A3           INC     DPTR
   \   00002C   E0           MOVX    A,@DPTR
   \   00002D   F8           MOV     R0,A
   \   00002E   E4           CLR     A
   \   00002F   C8           XCH     A,R0
   \   000030   F9           MOV     R1,A
   \   000031   EA           MOV     A,R2
   \   000032   2400         ADD     A,#0x0
   \   000034   FC           MOV     R4,A
   \   000035   E4           CLR     A
   \   000036   39           ADDC    A,R1
   \   000037   FD           MOV     R5,A
    563            NodeDescriptorFormat_t *desc = NULL;
   \   000038   88..         MOV     ?V0 + 0,R0
   \   00003A   88..         MOV     ?V0 + 1,R0
    564          
    565            if ( aoi == ZDAppNwkAddr.addr.shortAddr )
   \   00003C   90....       MOV     DPTR,#ZDAppNwkAddr
   \   00003F   E0           MOVX    A,@DPTR
   \   000040   6C           XRL     A,R4
   \   000041   7003         JNZ     ??ZDO_ProcessNodeDescReq_0
   \   000043   A3           INC     DPTR
   \   000044   E0           MOVX    A,@DPTR
   \   000045   6D           XRL     A,R5
   \                     ??ZDO_ProcessNodeDescReq_0:
   \   000046   7006         JNZ     ??ZDO_ProcessNodeDescReq_1
    566            {
    567              desc = &ZDO_Config_Node_Descriptor;
   \   000048   75....       MOV     ?V0 + 0,#ZDO_Config_Node_Descriptor & 0xff
   \   00004B   75....       MOV     ?V0 + 1,#(ZDO_Config_Node_Descriptor >> 8) & 0xff
    568            }
    569          
    570            if ( desc != NULL )
   \                     ??ZDO_ProcessNodeDescReq_1:
   \   00004E   E5..         MOV     A,?V0 + 0
   \   000050   45..         ORL     A,?V0 + 1
   \   000052   6011         JZ      ??ZDO_ProcessNodeDescReq_2
    571            {
    572              ZDP_NodeDescMsg( inMsg, aoi, desc );
   \   000054                ; Setup parameters for call to function ZDP_NodeDescMsg
   \   000054   78..         MOV     R0,#?V0 + 0
   \   000056   12....       LCALL   ?PUSH_XSTACK_I_TWO
   \   000059   EE           MOV     A,R6
   \   00005A   FA           MOV     R2,A
   \   00005B   12....       LCALL   ??ZDP_NodeDescMsg?relay
   \   00005E   7402         MOV     A,#0x2
   \   000060   12....       LCALL   ?DEALLOC_XSTACK8
   \   000063   803E         SJMP    ??ZDO_ProcessNodeDescReq_3
    573            }
    574            else
    575            {
    576              ZDP_GenericRsp( inMsg->TransSeq, &(inMsg->srcAddr), 
    577                        ZDP_INVALID_REQTYPE, aoi, Node_Desc_rsp, inMsg->SecurityUse );
   \                     ??ZDO_ProcessNodeDescReq_2:
   \   000065                ; Setup parameters for call to function ZDP_GenericRsp
   \   000065   75..02       MOV     ?V0 + 0,#0x2
   \   000068   75..80       MOV     ?V0 + 1,#-0x80
   \   00006B   78..         MOV     R0,#?V0 + 0
   \   00006D   12....       LCALL   ?PUSH_XSTACK_I_TWO
   \   000070   8C..         MOV     ?V0 + 0,R4
   \   000072   8D..         MOV     ?V0 + 1,R5
   \   000074   78..         MOV     R0,#?V0 + 0
   \   000076   12....       LCALL   ?PUSH_XSTACK_I_TWO
   \   000079   EE           MOV     A,R6
   \   00007A   240E         ADD     A,#0xe
   \   00007C   F582         MOV     DPL,A
   \   00007E   EF           MOV     A,R7
   \   00007F   3400         ADDC    A,#0x0
   \   000081   F583         MOV     DPH,A
   \   000083   E0           MOVX    A,@DPTR
   \   000084   FD           MOV     R5,A
   \   000085   7C80         MOV     R4,#-0x80
   \   000087   EE           MOV     A,R6
   \   000088   2402         ADD     A,#0x2
   \   00008A   FA           MOV     R2,A
   \   00008B   EF           MOV     A,R7
   \   00008C   3400         ADDC    A,#0x0
   \   00008E   FB           MOV     R3,A
   \   00008F   EE           MOV     A,R6
   \   000090   240F         ADD     A,#0xf
   \   000092   F582         MOV     DPL,A
   \   000094   EF           MOV     A,R7
   \   000095   3400         ADDC    A,#0x0
   \   000097   F583         MOV     DPH,A
   \   000099   E0           MOVX    A,@DPTR
   \   00009A   F9           MOV     R1,A
   \   00009B   12....       LCALL   ??ZDP_GenericRsp?relay
   \   00009E   7404         MOV     A,#0x4
   \   0000A0   12....       LCALL   ?DEALLOC_XSTACK8
    578            }
    579          }
   \                     ??ZDO_ProcessNodeDescReq_3:
   \   0000A3   7F02         MOV     R7,#0x2
   \   0000A5   02....       LJMP    ?BANKED_LEAVE_XDATA
    580          
    581          /*********************************************************************
    582           * @fn          ZDO_ProcessPowerDescReq
    583           *
    584           * @brief       This function processes and responds to the
    585           *              Node_Power_req message.
    586           *
    587           * @param       inMsg  - incoming request
    588           *
    589           * @return      none
    590           */

   \                                 In  segment BANKED_CODE, align 1, keep-with-next
    591          void ZDO_ProcessPowerDescReq( zdoIncomingMsg_t *inMsg )
   \                     ZDO_ProcessPowerDescReq:
    592          {
   \   000000   74F6         MOV     A,#-0xa
   \   000002   12....       LCALL   ?BANKED_ENTER_XDATA
   \   000005                ; Saved register size: 10
   \   000005                ; Auto size: 0
   \   000005   EA           MOV     A,R2
   \   000006   FE           MOV     R6,A
   \   000007   EB           MOV     A,R3
   \   000008   FF           MOV     R7,A
    593            uint16 aoi = BUILD_UINT16( inMsg->asdu[0], inMsg->asdu[1] );
   \   000009   EE           MOV     A,R6
   \   00000A   2413         ADD     A,#0x13
   \   00000C   F8           MOV     R0,A
   \   00000D   EF           MOV     A,R7
   \   00000E   3400         ADDC    A,#0x0
   \   000010   F9           MOV     R1,A
   \   000011   8882         MOV     DPL,R0
   \   000013   8983         MOV     DPH,R1
   \   000015   E0           MOVX    A,@DPTR
   \   000016   FA           MOV     R2,A
   \   000017   A3           INC     DPTR
   \   000018   E0           MOVX    A,@DPTR
   \   000019   F583         MOV     DPH,A
   \   00001B   8A82         MOV     DPL,R2
   \   00001D   E0           MOVX    A,@DPTR
   \   00001E   FA           MOV     R2,A
   \   00001F   8882         MOV     DPL,R0
   \   000021   8983         MOV     DPH,R1
   \   000023   E0           MOVX    A,@DPTR
   \   000024   F8           MOV     R0,A
   \   000025   A3           INC     DPTR
   \   000026   E0           MOVX    A,@DPTR
   \   000027   F583         MOV     DPH,A
   \   000029   8882         MOV     DPL,R0
   \   00002B   A3           INC     DPTR
   \   00002C   E0           MOVX    A,@DPTR
   \   00002D   F8           MOV     R0,A
   \   00002E   E4           CLR     A
   \   00002F   C8           XCH     A,R0
   \   000030   F9           MOV     R1,A
   \   000031   EA           MOV     A,R2
   \   000032   2400         ADD     A,#0x0
   \   000034   FC           MOV     R4,A
   \   000035   E4           CLR     A
   \   000036   39           ADDC    A,R1
   \   000037   FD           MOV     R5,A
    594            NodePowerDescriptorFormat_t *desc = NULL;
   \   000038   88..         MOV     ?V0 + 0,R0
   \   00003A   88..         MOV     ?V0 + 1,R0
    595          
    596            if ( aoi == ZDAppNwkAddr.addr.shortAddr )
   \   00003C   90....       MOV     DPTR,#ZDAppNwkAddr
   \   00003F   E0           MOVX    A,@DPTR
   \   000040   6C           XRL     A,R4
   \   000041   7003         JNZ     ??ZDO_ProcessPowerDescReq_0
   \   000043   A3           INC     DPTR
   \   000044   E0           MOVX    A,@DPTR
   \   000045   6D           XRL     A,R5
   \                     ??ZDO_ProcessPowerDescReq_0:
   \   000046   7006         JNZ     ??ZDO_ProcessPowerDescReq_1
    597            {
    598              desc = &ZDO_Config_Power_Descriptor;
   \   000048   75....       MOV     ?V0 + 0,#ZDO_Config_Power_Descriptor & 0xff
   \   00004B   75....       MOV     ?V0 + 1,#(ZDO_Config_Power_Descriptor >> 8) & 0xff
    599            }
    600          
    601            if ( desc != NULL )
   \                     ??ZDO_ProcessPowerDescReq_1:
   \   00004E   E5..         MOV     A,?V0 + 0
   \   000050   45..         ORL     A,?V0 + 1
   \   000052   6011         JZ      ??ZDO_ProcessPowerDescReq_2
    602            {
    603              ZDP_PowerDescMsg( inMsg, aoi, desc );
   \   000054                ; Setup parameters for call to function ZDP_PowerDescMsg
   \   000054   78..         MOV     R0,#?V0 + 0
   \   000056   12....       LCALL   ?PUSH_XSTACK_I_TWO
   \   000059   EE           MOV     A,R6
   \   00005A   FA           MOV     R2,A
   \   00005B   12....       LCALL   ??ZDP_PowerDescMsg?relay
   \   00005E   7402         MOV     A,#0x2
   \   000060   12....       LCALL   ?DEALLOC_XSTACK8
   \   000063   803E         SJMP    ??ZDO_ProcessPowerDescReq_3
    604            }
    605            else
    606            {
    607              ZDP_GenericRsp( inMsg->TransSeq, &(inMsg->srcAddr), 
    608                        ZDP_INVALID_REQTYPE, aoi, Power_Desc_rsp, inMsg->SecurityUse );
   \                     ??ZDO_ProcessPowerDescReq_2:
   \   000065                ; Setup parameters for call to function ZDP_GenericRsp
   \   000065   75..03       MOV     ?V0 + 0,#0x3
   \   000068   75..80       MOV     ?V0 + 1,#-0x80
   \   00006B   78..         MOV     R0,#?V0 + 0
   \   00006D   12....       LCALL   ?PUSH_XSTACK_I_TWO
   \   000070   8C..         MOV     ?V0 + 0,R4
   \   000072   8D..         MOV     ?V0 + 1,R5
   \   000074   78..         MOV     R0,#?V0 + 0
   \   000076   12....       LCALL   ?PUSH_XSTACK_I_TWO
   \   000079   EE           MOV     A,R6
   \   00007A   240E         ADD     A,#0xe
   \   00007C   F582         MOV     DPL,A
   \   00007E   EF           MOV     A,R7
   \   00007F   3400         ADDC    A,#0x0
   \   000081   F583         MOV     DPH,A
   \   000083   E0           MOVX    A,@DPTR
   \   000084   FD           MOV     R5,A
   \   000085   7C80         MOV     R4,#-0x80
   \   000087   EE           MOV     A,R6
   \   000088   2402         ADD     A,#0x2
   \   00008A   FA           MOV     R2,A
   \   00008B   EF           MOV     A,R7
   \   00008C   3400         ADDC    A,#0x0
   \   00008E   FB           MOV     R3,A
   \   00008F   EE           MOV     A,R6
   \   000090   240F         ADD     A,#0xf
   \   000092   F582         MOV     DPL,A
   \   000094   EF           MOV     A,R7
   \   000095   3400         ADDC    A,#0x0
   \   000097   F583         MOV     DPH,A
   \   000099   E0           MOVX    A,@DPTR
   \   00009A   F9           MOV     R1,A
   \   00009B   12....       LCALL   ??ZDP_GenericRsp?relay
   \   00009E   7404         MOV     A,#0x4
   \   0000A0   12....       LCALL   ?DEALLOC_XSTACK8
    609            }
    610          }
   \                     ??ZDO_ProcessPowerDescReq_3:
   \   0000A3   7F02         MOV     R7,#0x2
   \   0000A5   02....       LJMP    ?BANKED_LEAVE_XDATA
    611          
    612          /*********************************************************************
    613           * @fn          ZDO_ProcessSimpleDescReq
    614           *
    615           * @brief       This function processes and responds to the
    616           *              Simple_Desc_req message.
    617           *
    618           * @param       inMsg - incoming message (request)
    619           *
    620           * @return      none
    621           */

   \                                 In  segment BANKED_CODE, align 1, keep-with-next
    622          void ZDO_ProcessSimpleDescReq( zdoIncomingMsg_t *inMsg )
   \                     ZDO_ProcessSimpleDescReq:
    623          {
   \   000000   74F6         MOV     A,#-0xa
   \   000002   12....       LCALL   ?BANKED_ENTER_XDATA
   \   000005                ; Saved register size: 10
   \   000005                ; Auto size: 2
   \   000005   74FE         MOV     A,#-0x2
   \   000007   12....       LCALL   ?ALLOC_XSTACK8
   \   00000A   EA           MOV     A,R2
   \   00000B   FE           MOV     R6,A
   \   00000C   EB           MOV     A,R3
   \   00000D   FF           MOV     R7,A
    624            SimpleDescriptionFormat_t *sDesc = NULL;
   \   00000E   85..82       MOV     DPL,?XSP + 0
   \   000011   85..83       MOV     DPH,?XSP + 1
   \   000014   E4           CLR     A
   \   000015   F0           MOVX    @DPTR,A
   \   000016   A3           INC     DPTR
   \   000017   F0           MOVX    @DPTR,A
    625            uint16 aoi = BUILD_UINT16( inMsg->asdu[0], inMsg->asdu[1] );
   \   000018   EE           MOV     A,R6
   \   000019   2413         ADD     A,#0x13
   \   00001B   F8           MOV     R0,A
   \   00001C   EF           MOV     A,R7
   \   00001D   3400         ADDC    A,#0x0
   \   00001F   F9           MOV     R1,A
   \   000020   8882         MOV     DPL,R0
   \   000022   8983         MOV     DPH,R1
   \   000024   E0           MOVX    A,@DPTR
   \   000025   FA           MOV     R2,A
   \   000026   A3           INC     DPTR
   \   000027   E0           MOVX    A,@DPTR
   \   000028   F583         MOV     DPH,A
   \   00002A   8A82         MOV     DPL,R2
   \   00002C   E0           MOVX    A,@DPTR
   \   00002D   FC           MOV     R4,A
   \   00002E   8882         MOV     DPL,R0
   \   000030   8983         MOV     DPH,R1
   \   000032   E0           MOVX    A,@DPTR
   \   000033   FA           MOV     R2,A
   \   000034   A3           INC     DPTR
   \   000035   E0           MOVX    A,@DPTR
   \   000036   F583         MOV     DPH,A
   \   000038   8A82         MOV     DPL,R2
   \   00003A   A3           INC     DPTR
   \   00003B   E0           MOVX    A,@DPTR
   \   00003C   FB           MOV     R3,A
   \   00003D   EC           MOV     A,R4
   \   00003E   FA           MOV     R2,A
    626            byte endPoint = inMsg->asdu[2];
   \   00003F   8882         MOV     DPL,R0
   \   000041   8983         MOV     DPH,R1
   \   000043   E0           MOVX    A,@DPTR
   \   000044   F8           MOV     R0,A
   \   000045   A3           INC     DPTR
   \   000046   E0           MOVX    A,@DPTR
   \   000047   F583         MOV     DPH,A
   \   000049   8882         MOV     DPL,R0
   \   00004B   A3           INC     DPTR
   \   00004C   A3           INC     DPTR
   \   00004D   E0           MOVX    A,@DPTR
   \   00004E   F9           MOV     R1,A
    627            byte free = false;
   \   00004F   75..00       MOV     ?V0 + 0,#0x0
    628            byte stat = ZDP_SUCCESS;
   \   000052   75..00       MOV     ?V0 + 1,#0x0
    629          
    630            if ( (endPoint == ZDO_EP) || (endPoint > MAX_ENDPOINTS) )
   \   000055   6005         JZ      ??ZDO_ProcessSimpleDescReq_0
   \   000057   C3           CLR     C
   \   000058   94F1         SUBB    A,#-0xf
   \   00005A   4005         JC      ??ZDO_ProcessSimpleDescReq_1
    631            {
    632              stat = ZDP_INVALID_EP;
   \                     ??ZDO_ProcessSimpleDescReq_0:
   \   00005C   75..82       MOV     ?V0 + 1,#-0x7e
   \   00005F   8033         SJMP    ??ZDO_ProcessSimpleDescReq_2
    633            }
    634            else if ( aoi == ZDAppNwkAddr.addr.shortAddr )
   \                     ??ZDO_ProcessSimpleDescReq_1:
   \   000061   90....       MOV     DPTR,#ZDAppNwkAddr
   \   000064   E0           MOVX    A,@DPTR
   \   000065   6A           XRL     A,R2
   \   000066   7003         JNZ     ??ZDO_ProcessSimpleDescReq_3
   \   000068   A3           INC     DPTR
   \   000069   E0           MOVX    A,@DPTR
   \   00006A   6B           XRL     A,R3
   \                     ??ZDO_ProcessSimpleDescReq_3:
   \   00006B   7024         JNZ     ??ZDO_ProcessSimpleDescReq_4
    635            {
    636              free = afFindSimpleDesc( &sDesc, endPoint );
   \   00006D                ; Setup parameters for call to function afFindSimpleDesc
   \   00006D   85..82       MOV     DPL,?XSP + 0
   \   000070   85..83       MOV     DPH,?XSP + 1
   \   000073   AA82         MOV     R2,DPL
   \   000075   AB83         MOV     R3,DPH
   \   000077   12....       LCALL   ??afFindSimpleDesc?relay
   \   00007A   E9           MOV     A,R1
   \   00007B   F5..         MOV     ?V0 + 0,A
    637              if ( sDesc == NULL )
   \   00007D   85..82       MOV     DPL,?XSP + 0
   \   000080   85..83       MOV     DPH,?XSP + 1
   \   000083   E0           MOVX    A,@DPTR
   \   000084   F8           MOV     R0,A
   \   000085   A3           INC     DPTR
   \   000086   E0           MOVX    A,@DPTR
   \   000087   F9           MOV     R1,A
   \   000088   E8           MOV     A,R0
   \   000089   49           ORL     A,R1
   \   00008A   7008         JNZ     ??ZDO_ProcessSimpleDescReq_2
    638              {
    639                stat = ZDP_NOT_ACTIVE;
   \   00008C   75..83       MOV     ?V0 + 1,#-0x7d
   \   00008F   8003         SJMP    ??ZDO_ProcessSimpleDescReq_2
    640              }
    641            }
    642            else
    643            {
    644              if ( ZSTACK_ROUTER_BUILD )
    645              {
    646                stat = ZDP_DEVICE_NOT_FOUND;
   \                     ??ZDO_ProcessSimpleDescReq_4:
   \   000091   75..81       MOV     ?V0 + 1,#-0x7f
    647              }
    648              else if ( ZSTACK_END_DEVICE_BUILD )
    649              {
    650                stat = ZDP_INVALID_REQTYPE;
    651              }
    652            }
    653          
    654            ZDP_SimpleDescMsg( inMsg, stat, sDesc );
   \                     ??ZDO_ProcessSimpleDescReq_2:
   \   000094                ; Setup parameters for call to function ZDP_SimpleDescMsg
   \   000094   85..82       MOV     DPL,?XSP + 0
   \   000097   85..83       MOV     DPH,?XSP + 1
   \   00009A   E0           MOVX    A,@DPTR
   \   00009B   FC           MOV     R4,A
   \   00009C   A3           INC     DPTR
   \   00009D   E0           MOVX    A,@DPTR
   \   00009E   FD           MOV     R5,A
   \   00009F   A9..         MOV     R1,?V0 + 1
   \   0000A1   EE           MOV     A,R6
   \   0000A2   FA           MOV     R2,A
   \   0000A3   EF           MOV     A,R7
   \   0000A4   FB           MOV     R3,A
   \   0000A5   12....       LCALL   ??ZDP_SimpleDescMsg?relay
    655          
    656            if ( free && sDesc )
   \   0000A8   E5..         MOV     A,?V0 + 0
   \   0000AA   601D         JZ      ??ZDO_ProcessSimpleDescReq_5
   \   0000AC   85..82       MOV     DPL,?XSP + 0
   \   0000AF   85..83       MOV     DPH,?XSP + 1
   \   0000B2   E0           MOVX    A,@DPTR
   \   0000B3   F8           MOV     R0,A
   \   0000B4   A3           INC     DPTR
   \   0000B5   E0           MOVX    A,@DPTR
   \   0000B6   F9           MOV     R1,A
   \   0000B7   E8           MOV     A,R0
   \   0000B8   49           ORL     A,R1
   \   0000B9   600E         JZ      ??ZDO_ProcessSimpleDescReq_5
    657            {
    658              osal_mem_free( sDesc );
   \   0000BB                ; Setup parameters for call to function osal_mem_free
   \   0000BB   85..82       MOV     DPL,?XSP + 0
   \   0000BE   85..83       MOV     DPH,?XSP + 1
   \   0000C1   E0           MOVX    A,@DPTR
   \   0000C2   FA           MOV     R2,A
   \   0000C3   A3           INC     DPTR
   \   0000C4   E0           MOVX    A,@DPTR
   \   0000C5   FB           MOV     R3,A
   \   0000C6   12....       LCALL   ??osal_mem_free?relay
    659            }
    660          }
   \                     ??ZDO_ProcessSimpleDescReq_5:
   \   0000C9   7402         MOV     A,#0x2
   \   0000CB   12....       LCALL   ?DEALLOC_XSTACK8
   \   0000CE   7F02         MOV     R7,#0x2
   \   0000D0   02....       LJMP    ?BANKED_LEAVE_XDATA
    661          
    662          /*********************************************************************
    663           * @fn          ZDO_ProcessActiveEPReq
    664           *
    665           * @brief       This function processes and responds to the
    666           *              Active_EP_req message.
    667           *
    668           * @param       inMsg  - incoming message (request)
    669           *
    670           * @return      none
    671           */

   \                                 In  segment BANKED_CODE, align 1, keep-with-next
    672          void ZDO_ProcessActiveEPReq( zdoIncomingMsg_t *inMsg )
   \                     ZDO_ProcessActiveEPReq:
    673          {
   \   000000   74F2         MOV     A,#-0xe
   \   000002   12....       LCALL   ?BANKED_ENTER_XDATA
   \   000005                ; Saved register size: 14
   \   000005                ; Auto size: 0
   \   000005   8A..         MOV     ?V0 + 4,R2
   \   000007   8B..         MOV     ?V0 + 5,R3
    674            byte cnt = 0;
   \   000009   75..00       MOV     ?V0 + 0,#0x0
    675            uint16 aoi;
    676            byte stat = ZDP_SUCCESS;
   \   00000C   75..00       MOV     ?V0 + 1,#0x0
    677          
    678            aoi = BUILD_UINT16( inMsg->asdu[0], inMsg->asdu[1] );
   \   00000F   EA           MOV     A,R2
   \   000010   2413         ADD     A,#0x13
   \   000012   F8           MOV     R0,A
   \   000013   EB           MOV     A,R3
   \   000014   3400         ADDC    A,#0x0
   \   000016   F9           MOV     R1,A
   \   000017   8882         MOV     DPL,R0
   \   000019   8983         MOV     DPH,R1
   \   00001B   E0           MOVX    A,@DPTR
   \   00001C   FA           MOV     R2,A
   \   00001D   A3           INC     DPTR
   \   00001E   E0           MOVX    A,@DPTR
   \   00001F   F583         MOV     DPH,A
   \   000021   8A82         MOV     DPL,R2
   \   000023   E0           MOVX    A,@DPTR
   \   000024   FA           MOV     R2,A
   \   000025   8882         MOV     DPL,R0
   \   000027   8983         MOV     DPH,R1
   \   000029   E0           MOVX    A,@DPTR
   \   00002A   F8           MOV     R0,A
   \   00002B   A3           INC     DPTR
   \   00002C   E0           MOVX    A,@DPTR
   \   00002D   F583         MOV     DPH,A
   \   00002F   8882         MOV     DPL,R0
   \   000031   A3           INC     DPTR
   \   000032   E0           MOVX    A,@DPTR
   \   000033   F9           MOV     R1,A
   \   000034   EA           MOV     A,R2
   \   000035   2400         ADD     A,#0x0
   \   000037   FE           MOV     R6,A
   \   000038   E4           CLR     A
   \   000039   39           ADDC    A,R1
   \   00003A   FF           MOV     R7,A
    679          
    680            if ( aoi == NLME_GetShortAddr() )
   \   00003B                ; Setup parameters for call to function NLME_GetShortAddr
   \   00003B   12....       LCALL   ??NLME_GetShortAddr?relay
   \   00003E   EA           MOV     A,R2
   \   00003F   6E           XRL     A,R6
   \   000040   7002         JNZ     ??ZDO_ProcessActiveEPReq_0
   \   000042   EB           MOV     A,R3
   \   000043   6F           XRL     A,R7
   \                     ??ZDO_ProcessActiveEPReq_0:
   \   000044   7012         JNZ     ??ZDO_ProcessActiveEPReq_1
    681            {
    682              cnt = afNumEndPoints() - 1;  // -1 for ZDO endpoint descriptor
   \   000046                ; Setup parameters for call to function afNumEndPoints
   \   000046   12....       LCALL   ??afNumEndPoints?relay
   \   000049   E9           MOV     A,R1
   \   00004A   14           DEC     A
   \   00004B   F5..         MOV     ?V0 + 0,A
    683              afEndPoints( (uint8 *)ZDOBuildBuf, true );
   \   00004D                ; Setup parameters for call to function afEndPoints
   \   00004D   7901         MOV     R1,#0x1
   \   00004F   7A..         MOV     R2,#ZDOBuildBuf & 0xff
   \   000051   7B..         MOV     R3,#(ZDOBuildBuf >> 8) & 0xff
   \   000053   12....       LCALL   ??afEndPoints?relay
   \   000056   8003         SJMP    ??ZDO_ProcessActiveEPReq_2
    684            }
    685            else
    686            {
    687              stat = ZDP_INVALID_REQTYPE;
   \                     ??ZDO_ProcessActiveEPReq_1:
   \   000058   75..80       MOV     ?V0 + 1,#-0x80
    688            }
    689          
    690            ZDP_ActiveEPRsp( inMsg->TransSeq, &(inMsg->srcAddr), stat, 
    691                            aoi, cnt, (uint8 *)ZDOBuildBuf, inMsg->SecurityUse );
   \                     ??ZDO_ProcessActiveEPReq_2:
   \   00005B                ; Setup parameters for call to function ZDP_EPRsp
   \   00005B   E5..         MOV     A,?V0 + 4
   \   00005D   240E         ADD     A,#0xe
   \   00005F   F582         MOV     DPL,A
   \   000061   E5..         MOV     A,?V0 + 5
   \   000063   3400         ADDC    A,#0x0
   \   000065   F583         MOV     DPH,A
   \   000067   E0           MOVX    A,@DPTR
   \   000068   F5..         MOV     ?V0 + 2,A
   \   00006A   78..         MOV     R0,#?V0 + 2
   \   00006C   12....       LCALL   ?PUSH_XSTACK_I_ONE
   \   00006F   75....       MOV     ?V0 + 2,#ZDOBuildBuf & 0xff
   \   000072   75....       MOV     ?V0 + 3,#(ZDOBuildBuf >> 8) & 0xff
   \   000075   78..         MOV     R0,#?V0 + 2
   \   000077   12....       LCALL   ?PUSH_XSTACK_I_TWO
   \   00007A   78..         MOV     R0,#?V0 + 0
   \   00007C   12....       LCALL   ?PUSH_XSTACK_I_ONE
   \   00007F   8E..         MOV     ?V0 + 2,R6
   \   000081   8F..         MOV     ?V0 + 3,R7
   \   000083   78..         MOV     R0,#?V0 + 2
   \   000085   12....       LCALL   ?PUSH_XSTACK_I_TWO
   \   000088   E5..         MOV     A,?V0 + 1
   \   00008A   F5..         MOV     ?V0 + 0,A
   \   00008C   78..         MOV     R0,#?V0 + 0
   \   00008E   12....       LCALL   ?PUSH_XSTACK_I_ONE
   \   000091   E5..         MOV     A,?V0 + 4
   \   000093   2402         ADD     A,#0x2
   \   000095   FC           MOV     R4,A
   \   000096   E5..         MOV     A,?V0 + 5
   \   000098   3400         ADDC    A,#0x0
   \   00009A   FD           MOV     R5,A
   \   00009B   E5..         MOV     A,?V0 + 4
   \   00009D   240F         ADD     A,#0xf
   \   00009F   F582         MOV     DPL,A
   \   0000A1   E5..         MOV     A,?V0 + 5
   \   0000A3   3400         ADDC    A,#0x0
   \   0000A5   F583         MOV     DPH,A
   \   0000A7   E0           MOVX    A,@DPTR
   \   0000A8   F9           MOV     R1,A
   \   0000A9   7A05         MOV     R2,#0x5
   \   0000AB   7B80         MOV     R3,#-0x80
   \   0000AD   12....       LCALL   ??ZDP_EPRsp?relay
   \   0000B0   7407         MOV     A,#0x7
   \   0000B2   12....       LCALL   ?DEALLOC_XSTACK8
    692          }
   \   0000B5   7F06         MOV     R7,#0x6
   \   0000B7   02....       LJMP    ?BANKED_LEAVE_XDATA
    693          
    694          /*********************************************************************
    695           * @fn          ZDO_ConvertOTAClusters
    696           *
    697           * @brief       This function will convert the over-the-air cluster list
    698           *              format to an internal format.
    699           *
    700           * @param       inMsg  - incoming message (request)
    701           *
    702           * @return      pointer to incremented inBuf
    703           */

   \                                 In  segment BANKED_CODE, align 1, keep-with-next
    704          uint8 *ZDO_ConvertOTAClusters( uint8 cnt, uint8 *inBuf, uint16 *outList )
   \                     ZDO_ConvertOTAClusters:
    705          {
   \   000000   74F6         MOV     A,#-0xa
   \   000002   12....       LCALL   ?BANKED_ENTER_XDATA
   \   000005                ; Saved register size: 10
   \   000005                ; Auto size: 0
   \   000005   E9           MOV     A,R1
   \   000006   FE           MOV     R6,A
    706            uint8 x;
    707            
    708            for ( x = 0; x < cnt; x++ ) 
   \   000007   7F00         MOV     R7,#0x0
   \   000009   8031         SJMP    ??ZDO_ConvertOTAClusters_0
    709            {
    710              // convert ota format to internal
    711              outList[x] = BUILD_UINT16( inBuf[0], inBuf[1] );
   \                     ??ZDO_ConvertOTAClusters_1:
   \   00000B   8A82         MOV     DPL,R2
   \   00000D   8B83         MOV     DPH,R3
   \   00000F   E0           MOVX    A,@DPTR
   \   000010   F5..         MOV     ?V0 + 0,A
   \   000012   A3           INC     DPTR
   \   000013   E0           MOVX    A,@DPTR
   \   000014   F9           MOV     R1,A
   \   000015   E5..         MOV     A,?V0 + 0
   \   000017   2400         ADD     A,#0x0
   \   000019   E4           CLR     A
   \   00001A   39           ADDC    A,R1
   \   00001B   F5..         MOV     ?V0 + 1,A
   \   00001D   EF           MOV     A,R7
   \   00001E   33           RLC     A
   \   00001F   F8           MOV     R0,A
   \   000020   E4           CLR     A
   \   000021   33           RLC     A
   \   000022   F9           MOV     R1,A
   \   000023   EC           MOV     A,R4
   \   000024   28           ADD     A,R0
   \   000025   F582         MOV     DPL,A
   \   000027   ED           MOV     A,R5
   \   000028   39           ADDC    A,R1
   \   000029   F583         MOV     DPH,A
   \   00002B   E5..         MOV     A,?V0 + 0
   \   00002D   F0           MOVX    @DPTR,A
   \   00002E   A3           INC     DPTR
   \   00002F   E5..         MOV     A,?V0 + 1
   \   000031   F0           MOVX    @DPTR,A
    712              inBuf += sizeof( uint16 );
   \   000032   EA           MOV     A,R2
   \   000033   2402         ADD     A,#0x2
   \   000035   0A           INC     R2
   \   000036   0A           INC     R2
   \   000037   EB           MOV     A,R3
   \   000038   3400         ADDC    A,#0x0
   \   00003A   FB           MOV     R3,A
    713            }
   \   00003B   0F           INC     R7
   \                     ??ZDO_ConvertOTAClusters_0:
   \   00003C   EF           MOV     A,R7
   \   00003D   C3           CLR     C
   \   00003E   9E           SUBB    A,R6
   \   00003F   40CA         JC      ??ZDO_ConvertOTAClusters_1
    714            return ( inBuf );
   \   000041   7F02         MOV     R7,#0x2
   \   000043   02....       LJMP    ?BANKED_LEAVE_XDATA
    715          }
    716          
    717          /*********************************************************************
    718           * @fn          ZDO_ProcessMatchDescReq
    719           *
    720           * @brief       This function processes and responds to the
    721           *              Match_Desc_req message.
    722           *
    723           * @param       inMsg  - incoming message (request)
    724           *
    725           * @return      none
    726           */

   \                                 In  segment BANKED_CODE, align 1, keep-with-next
    727          void ZDO_ProcessMatchDescReq( zdoIncomingMsg_t *inMsg )
   \                     ZDO_ProcessMatchDescReq:
    728          {
   \   000000   74F0         MOV     A,#-0x10
   \   000002   12....       LCALL   ?BANKED_ENTER_XDATA
   \   000005                ; Saved register size: 16
   \   000005                ; Auto size: 11
   \   000005   74F5         MOV     A,#-0xb
   \   000007   12....       LCALL   ?ALLOC_XSTACK8
   \   00000A   7405         MOV     A,#0x5
   \   00000C   12....       LCALL   ?XSTACK_DISP0_8
   \   00000F   EA           MOV     A,R2
   \   000010   F0           MOVX    @DPTR,A
   \   000011   A3           INC     DPTR
   \   000012   EB           MOV     A,R3
   \   000013   F0           MOVX    @DPTR,A
    729            uint8 epCnt = 0;
   \   000014   7404         MOV     A,#0x4
   \   000016   12....       LCALL   ?XSTACK_DISP0_8
   \   000019   E4           CLR     A
   \   00001A   F0           MOVX    @DPTR,A
    730            uint8 numInClusters;
    731            uint16 *inClusters = NULL;
   \   00001B   7409         MOV     A,#0x9
   \   00001D   12....       LCALL   ?XSTACK_DISP0_8
   \   000020   E4           CLR     A
   \   000021   F0           MOVX    @DPTR,A
   \   000022   A3           INC     DPTR
   \   000023   F0           MOVX    @DPTR,A
    732            uint8 numOutClusters;
    733            uint16 *outClusters = NULL;
   \   000024   7407         MOV     A,#0x7
   \   000026   12....       LCALL   ?XSTACK_DISP0_8
   \   000029   E4           CLR     A
   \   00002A   F0           MOVX    @DPTR,A
   \   00002B   A3           INC     DPTR
   \   00002C   F0           MOVX    @DPTR,A
    734            epList_t *epDesc;
    735            SimpleDescriptionFormat_t *sDesc = NULL;
    736            uint8 allocated;
    737            uint8 *msg;
    738            uint16 aoi;
    739            uint16 profileID;
    740          
    741            // Parse the incoming message
    742            msg = inMsg->asdu;
   \   00002D   7405         MOV     A,#0x5
   \   00002F   12....       LCALL   ?XSTACK_DISP0_8
   \   000032   E0           MOVX    A,@DPTR
   \   000033   2413         ADD     A,#0x13
   \   000035   F8           MOV     R0,A
   \   000036   A3           INC     DPTR
   \   000037   E0           MOVX    A,@DPTR
   \   000038   3400         ADDC    A,#0x0
   \   00003A   F9           MOV     R1,A
   \   00003B   8882         MOV     DPL,R0
   \   00003D   8983         MOV     DPH,R1
   \   00003F   E0           MOVX    A,@DPTR
   \   000040   F5..         MOV     ?V0 + 2,A
   \   000042   A3           INC     DPTR
   \   000043   E0           MOVX    A,@DPTR
   \   000044   F5..         MOV     ?V0 + 3,A
    743            aoi = BUILD_UINT16( msg[0], msg[1] );
   \   000046   85..82       MOV     DPL,?V0 + 2
   \   000049   F583         MOV     DPH,A
   \   00004B   E0           MOVX    A,@DPTR
   \   00004C   FA           MOV     R2,A
   \   00004D   A3           INC     DPTR
   \   00004E   E0           MOVX    A,@DPTR
   \   00004F   F9           MOV     R1,A
   \   000050   EA           MOV     A,R2
   \   000051   2400         ADD     A,#0x0
   \   000053   F5..         MOV     ?V0 + 0,A
   \   000055   E4           CLR     A
   \   000056   39           ADDC    A,R1
   \   000057   F5..         MOV     ?V0 + 1,A
    744            profileID = BUILD_UINT16( msg[2], msg[3] );
   \   000059   85..82       MOV     DPL,?V0 + 2
   \   00005C   85..83       MOV     DPH,?V0 + 3
   \   00005F   A3           INC     DPTR
   \   000060   A3           INC     DPTR
   \   000061   E0           MOVX    A,@DPTR
   \   000062   FA           MOV     R2,A
   \   000063   85..82       MOV     DPL,?V0 + 2
   \   000066   85..83       MOV     DPH,?V0 + 3
   \   000069   A3           INC     DPTR
   \   00006A   A3           INC     DPTR
   \   00006B   A3           INC     DPTR
   \   00006C   E0           MOVX    A,@DPTR
   \   00006D   F9           MOV     R1,A
   \   00006E   EA           MOV     A,R2
   \   00006F   FE           MOV     R6,A
   \   000070   E4           CLR     A
   \   000071   39           ADDC    A,R1
   \   000072   FF           MOV     R7,A
    745            msg += 4;
   \   000073   E5..         MOV     A,?V0 + 2
   \   000075   2404         ADD     A,#0x4
   \   000077   F5..         MOV     ?V0 + 2,A
   \   000079   E5..         MOV     A,?V0 + 3
   \   00007B   3400         ADDC    A,#0x0
   \   00007D   F5..         MOV     ?V0 + 3,A
    746          
    747            if ( ADDR_BCAST_NOT_ME == NLME_IsAddressBroadcast(aoi) )
   \   00007F                ; Setup parameters for call to function NLME_IsAddressBroadcast
   \   00007F   AA..         MOV     R2,?V0 + 0
   \   000081   AB..         MOV     R3,?V0 + 1
   \   000083   12....       LCALL   ??NLME_IsAddressBroadcast?relay
   \   000086   E9           MOV     A,R1
   \   000087   6401         XRL     A,#0x1
   \   000089   7068         JNZ     ??ZDO_ProcessMatchDescReq_0
    748            {
    749              ZDP_MatchDescRsp( inMsg->TransSeq, &(inMsg->srcAddr), ZDP_INVALID_REQTYPE,
    750                                    ZDAppNwkAddr.addr.shortAddr, 0, NULL, inMsg->SecurityUse );
   \                     ??ZDO_ProcessMatchDescReq_1:
   \   00008B                ; Setup parameters for call to function ZDP_EPRsp
   \   00008B   7405         MOV     A,#0x5
   \   00008D   12....       LCALL   ?XSTACK_DISP0_8
   \   000090   E0           MOVX    A,@DPTR
   \   000091   240E         ADD     A,#0xe
   \   000093   F8           MOV     R0,A
   \   000094   A3           INC     DPTR
   \   000095   E0           MOVX    A,@DPTR
   \   000096   3400         ADDC    A,#0x0
   \   000098   F9           MOV     R1,A
   \   000099   8882         MOV     DPL,R0
   \   00009B   8983         MOV     DPH,R1
   \   00009D   E0           MOVX    A,@DPTR
   \   00009E   F5..         MOV     ?V0 + 0,A
   \   0000A0   78..         MOV     R0,#?V0 + 0
   \   0000A2   12....       LCALL   ?PUSH_XSTACK_I_ONE
   \   0000A5   E4           CLR     A
   \   0000A6   F5..         MOV     ?V0 + 0,A
   \   0000A8   F5..         MOV     ?V0 + 1,A
   \   0000AA   78..         MOV     R0,#?V0 + 0
   \   0000AC   12....       LCALL   ?PUSH_XSTACK_I_TWO
   \   0000AF   78..         MOV     R0,#?V0 + 0
   \   0000B1   12....       LCALL   ?PUSH_XSTACK_I_ONE
   \   0000B4   90....       MOV     DPTR,#ZDAppNwkAddr
   \   0000B7   12....       LCALL   ?PUSH_XSTACK8_X_TWO
   \   0000BA   75..80       MOV     ?V0 + 0,#-0x80
   \   0000BD   78..         MOV     R0,#?V0 + 0
   \   0000BF   12....       LCALL   ?PUSH_XSTACK_I_ONE
   \   0000C2   740C         MOV     A,#0xc
   \   0000C4   12....       LCALL   ?XSTACK_DISP0_8
   \   0000C7   E0           MOVX    A,@DPTR
   \   0000C8   2402         ADD     A,#0x2
   \   0000CA   FC           MOV     R4,A
   \   0000CB   A3           INC     DPTR
   \   0000CC   E0           MOVX    A,@DPTR
   \   0000CD   3400         ADDC    A,#0x0
   \   0000CF   FD           MOV     R5,A
   \   0000D0   740C         MOV     A,#0xc
   \   0000D2   12....       LCALL   ?XSTACK_DISP0_8
   \   0000D5   E0           MOVX    A,@DPTR
   \   0000D6   240F         ADD     A,#0xf
   \   0000D8   F8           MOV     R0,A
   \   0000D9   A3           INC     DPTR
   \   0000DA   E0           MOVX    A,@DPTR
   \   0000DB   3400         ADDC    A,#0x0
   \   0000DD   F9           MOV     R1,A
   \   0000DE   8882         MOV     DPL,R0
   \   0000E0   8983         MOV     DPH,R1
   \   0000E2   E0           MOVX    A,@DPTR
   \   0000E3   F9           MOV     R1,A
   \   0000E4   7A06         MOV     R2,#0x6
   \   0000E6   7B80         MOV     R3,#-0x80
   \   0000E8   12....       LCALL   ??ZDP_EPRsp?relay
   \   0000EB   7407         MOV     A,#0x7
   \   0000ED   12....       LCALL   ?DEALLOC_XSTACK8
    751              return;
   \   0000F0   02....       LJMP    ??ZDO_ProcessMatchDescReq_2 & 0xFFFF
    752            }
    753            else if ( (ADDR_NOT_BCAST == NLME_IsAddressBroadcast(aoi)) && (aoi != ZDAppNwkAddr.addr.shortAddr) )
   \                     ??ZDO_ProcessMatchDescReq_0:
   \   0000F3                ; Setup parameters for call to function NLME_IsAddressBroadcast
   \   0000F3   AA..         MOV     R2,?V0 + 0
   \   0000F5   AB..         MOV     R3,?V0 + 1
   \   0000F7   12....       LCALL   ??NLME_IsAddressBroadcast?relay
   \   0000FA   E9           MOV     A,R1
   \   0000FB   700E         JNZ     ??ZDO_ProcessMatchDescReq_3
   \   0000FD   90....       MOV     DPTR,#ZDAppNwkAddr
   \   000100   E0           MOVX    A,@DPTR
   \   000101   65..         XRL     A,?V0 + 0
   \   000103   7004         JNZ     ??ZDO_ProcessMatchDescReq_4
   \   000105   A3           INC     DPTR
   \   000106   E0           MOVX    A,@DPTR
   \   000107   65..         XRL     A,?V0 + 1
   \                     ??ZDO_ProcessMatchDescReq_4:
   \   000109   7080         JNZ     ??ZDO_ProcessMatchDescReq_1
    754            {
    755              ZDP_MatchDescRsp( inMsg->TransSeq, &(inMsg->srcAddr), ZDP_INVALID_REQTYPE,
    756                                       ZDAppNwkAddr.addr.shortAddr, 0, NULL, inMsg->SecurityUse );
    757              return;
    758            }
    759          
    760            if ((numInClusters = *msg++) &&
    761                (inClusters = (uint16*)osal_mem_alloc( numInClusters * sizeof( uint16 ) )))
   \                     ??ZDO_ProcessMatchDescReq_3:
   \   00010B   85..82       MOV     DPL,?V0 + 2
   \   00010E   85..83       MOV     DPH,?V0 + 3
   \   000111   E0           MOVX    A,@DPTR
   \   000112   F8           MOV     R0,A
   \   000113   A3           INC     DPTR
   \   000114   8582..       MOV     ?V0 + 2,DPL
   \   000117   8583..       MOV     ?V0 + 3,DPH
   \   00011A   88..         MOV     ?V0 + 7,R0
   \   00011C   603A         JZ      ??ZDO_ProcessMatchDescReq_5
   \   00011E                ; Setup parameters for call to function osal_mem_alloc
   \   00011E   C3           CLR     C
   \   00011F   33           RLC     A
   \   000120   FA           MOV     R2,A
   \   000121   E4           CLR     A
   \   000122   33           RLC     A
   \   000123   FB           MOV     R3,A
   \   000124   12....       LCALL   ??osal_mem_alloc?relay
   \   000127   7409         MOV     A,#0x9
   \   000129   12....       LCALL   ?XSTACK_DISP0_8
   \   00012C   EA           MOV     A,R2
   \   00012D   F0           MOVX    @DPTR,A
   \   00012E   A3           INC     DPTR
   \   00012F   EB           MOV     A,R3
   \   000130   F0           MOVX    @DPTR,A
   \   000131   7409         MOV     A,#0x9
   \   000133   12....       LCALL   ?XSTACK_DISP0_8
   \   000136   E0           MOVX    A,@DPTR
   \   000137   F8           MOV     R0,A
   \   000138   A3           INC     DPTR
   \   000139   E0           MOVX    A,@DPTR
   \   00013A   F9           MOV     R1,A
   \   00013B   E8           MOV     A,R0
   \   00013C   49           ORL     A,R1
   \   00013D   6019         JZ      ??ZDO_ProcessMatchDescReq_5
    762            {
    763              msg = ZDO_ConvertOTAClusters( numInClusters, msg, inClusters );
   \   00013F                ; Setup parameters for call to function ZDO_ConvertOTAClusters
   \   00013F   7409         MOV     A,#0x9
   \   000141   12....       LCALL   ?XSTACK_DISP0_8
   \   000144   E0           MOVX    A,@DPTR
   \   000145   FC           MOV     R4,A
   \   000146   A3           INC     DPTR
   \   000147   E0           MOVX    A,@DPTR
   \   000148   FD           MOV     R5,A
   \   000149   AA..         MOV     R2,?V0 + 2
   \   00014B   AB..         MOV     R3,?V0 + 3
   \   00014D   A9..         MOV     R1,?V0 + 7
   \   00014F   12....       LCALL   ??ZDO_ConvertOTAClusters?relay
   \   000152   8A..         MOV     ?V0 + 2,R2
   \   000154   8B..         MOV     ?V0 + 3,R3
   \   000156   8003         SJMP    ??ZDO_ProcessMatchDescReq_6
    764            }
    765            else
    766            {
    767              numInClusters = 0;
   \                     ??ZDO_ProcessMatchDescReq_5:
   \   000158   75..00       MOV     ?V0 + 7,#0x0
    768            }
    769          
    770            if ((numOutClusters = *msg++) &&
    771                (outClusters = (uint16 *)osal_mem_alloc( numOutClusters * sizeof( uint16 ) )))
   \                     ??ZDO_ProcessMatchDescReq_6:
   \   00015B   85..82       MOV     DPL,?V0 + 2
   \   00015E   85..83       MOV     DPH,?V0 + 3
   \   000161   E0           MOVX    A,@DPTR
   \   000162   F8           MOV     R0,A
   \   000163   A3           INC     DPTR
   \   000164   8582..       MOV     ?V0 + 2,DPL
   \   000167   8583..       MOV     ?V0 + 3,DPH
   \   00016A   88..         MOV     ?V0 + 6,R0
   \   00016C   6036         JZ      ??ZDO_ProcessMatchDescReq_7
   \   00016E                ; Setup parameters for call to function osal_mem_alloc
   \   00016E   C3           CLR     C
   \   00016F   33           RLC     A
   \   000170   FA           MOV     R2,A
   \   000171   E4           CLR     A
   \   000172   33           RLC     A
   \   000173   FB           MOV     R3,A
   \   000174   12....       LCALL   ??osal_mem_alloc?relay
   \   000177   7407         MOV     A,#0x7
   \   000179   12....       LCALL   ?XSTACK_DISP0_8
   \   00017C   EA           MOV     A,R2
   \   00017D   F0           MOVX    @DPTR,A
   \   00017E   A3           INC     DPTR
   \   00017F   EB           MOV     A,R3
   \   000180   F0           MOVX    @DPTR,A
   \   000181   7407         MOV     A,#0x7
   \   000183   12....       LCALL   ?XSTACK_DISP0_8
   \   000186   E0           MOVX    A,@DPTR
   \   000187   F8           MOV     R0,A
   \   000188   A3           INC     DPTR
   \   000189   E0           MOVX    A,@DPTR
   \   00018A   F9           MOV     R1,A
   \   00018B   E8           MOV     A,R0
   \   00018C   49           ORL     A,R1
   \   00018D   6015         JZ      ??ZDO_ProcessMatchDescReq_7
    772            {
    773              msg = ZDO_ConvertOTAClusters( numOutClusters, msg, outClusters );
   \   00018F                ; Setup parameters for call to function ZDO_ConvertOTAClusters
   \   00018F   7407         MOV     A,#0x7
   \   000191   12....       LCALL   ?XSTACK_DISP0_8
   \   000194   E0           MOVX    A,@DPTR
   \   000195   FC           MOV     R4,A
   \   000196   A3           INC     DPTR
   \   000197   E0           MOVX    A,@DPTR
   \   000198   FD           MOV     R5,A
   \   000199   AA..         MOV     R2,?V0 + 2
   \   00019B   AB..         MOV     R3,?V0 + 3
   \   00019D   A9..         MOV     R1,?V0 + 6
   \   00019F   12....       LCALL   ??ZDO_ConvertOTAClusters?relay
   \   0001A2   8003         SJMP    ??ZDO_ProcessMatchDescReq_8
    774            }
    775            else
    776            {
    777              numOutClusters = 0;
   \                     ??ZDO_ProcessMatchDescReq_7:
   \   0001A4   75..00       MOV     ?V0 + 6,#0x0
    778            }
    779          
    780            // First count the number of endpoints that match.
    781            epDesc = epList;
   \                     ??ZDO_ProcessMatchDescReq_8:
   \   0001A7   90....       MOV     DPTR,#epList
   \   0001AA   02....       LJMP    ??ZDO_ProcessMatchDescReq_9 & 0xFFFF
    782            while ( epDesc )
    783            {
    784              // Don't search endpoint 0 and check if response is allowed
    785              if ( epDesc->epDesc->endPoint != ZDO_EP && (epDesc->flags&eEP_AllowMatch) )
    786              {
    787                if ( epDesc->pfnDescCB )
    788                {
    789                  sDesc = (SimpleDescriptionFormat_t *)epDesc->pfnDescCB( AF_DESCRIPTOR_SIMPLE, epDesc->epDesc->endPoint );
    790                  allocated = TRUE;
    791                }
    792                else
    793                {
    794                  sDesc = epDesc->epDesc->simpleDesc;
    795                  allocated = FALSE;
    796                }
    797          
    798                if ( sDesc && sDesc->AppProfId == profileID )
    799                {
    800                  uint8 *uint8Buf = (uint8 *)ZDOBuildBuf;
    801          
    802                  // If there are no search input/ouput clusters - respond
    803                  if ( ((numInClusters == 0) && (numOutClusters == 0))
    804                      // Are there matching input clusters?
    805                       || (ZDO_AnyClusterMatches( numInClusters, inClusters,
    806                            sDesc->AppNumInClusters, sDesc->pAppInClusterList ))
    807                      // Are there matching output clusters?
    808                       || (ZDO_AnyClusterMatches( numOutClusters, outClusters,
    809                            sDesc->AppNumOutClusters, sDesc->pAppOutClusterList ))     )
    810                  {         
    811                    // Notify the endpoint of the match.
    812                    uint8 bufLen = sizeof( ZDO_MatchDescRspSent_t ) + (numOutClusters + numInClusters) * sizeof(uint16);
    813                    ZDO_MatchDescRspSent_t *pRspSent = (ZDO_MatchDescRspSent_t *) osal_msg_allocate( bufLen );
    814          
    815                    if (pRspSent)
    816                    {
    817                      pRspSent->hdr.event = ZDO_MATCH_DESC_RSP_SENT;
    818                      pRspSent->nwkAddr = inMsg->srcAddr.addr.shortAddr;
    819                      pRspSent->numInClusters = numInClusters;
    820                      pRspSent->numOutClusters = numOutClusters;
    821          
    822                      if (numInClusters)
    823                      {
    824                        pRspSent->pInClusters = (uint16*) (pRspSent + 1);
    825                        osal_memcpy(pRspSent->pInClusters, inClusters, numInClusters * sizeof(uint16));
    826                      }
    827                      else 
    828                      {
    829                        pRspSent->pInClusters = NULL;
    830                      }
    831                       
    832                      if (numOutClusters)
    833                      {
    834                        pRspSent->pOutClusters = (uint16*)(pRspSent + 1) + numInClusters;
    835                        osal_memcpy(pRspSent->pOutClusters, outClusters, numOutClusters * sizeof(uint16));
    836                      }
    837                      else 
    838                      {
    839                        pRspSent->pOutClusters = NULL;
   \                     ??ZDO_ProcessMatchDescReq_10:
   \   0001AD   8A82         MOV     DPL,R2
   \   0001AF   8B83         MOV     DPH,R3
   \   0001B1   E4           CLR     A
   \   0001B2   F0           MOVX    @DPTR,A
   \   0001B3   A3           INC     DPTR
   \   0001B4   F0           MOVX    @DPTR,A
    840                      }
    841                    
    842                      osal_msg_send( *epDesc->epDesc->task_id, (uint8 *)pRspSent );
   \                     ??ZDO_ProcessMatchDescReq_11:
   \   0001B5                ; Setup parameters for call to function osal_msg_send
   \   0001B5   AA..         MOV     R2,?V0 + 4
   \   0001B7   AB..         MOV     R3,?V0 + 5
   \   0001B9   7402         MOV     A,#0x2
   \   0001BB   12....       LCALL   ?XSTACK_DISP0_8
   \   0001BE   E0           MOVX    A,@DPTR
   \   0001BF   F8           MOV     R0,A
   \   0001C0   A3           INC     DPTR
   \   0001C1   E0           MOVX    A,@DPTR
   \   0001C2   F583         MOV     DPH,A
   \   0001C4   8882         MOV     DPL,R0
   \   0001C6   E0           MOVX    A,@DPTR
   \   0001C7   F8           MOV     R0,A
   \   0001C8   A3           INC     DPTR
   \   0001C9   E0           MOVX    A,@DPTR
   \   0001CA   F583         MOV     DPH,A
   \   0001CC   8882         MOV     DPL,R0
   \   0001CE   A3           INC     DPTR
   \   0001CF   E0           MOVX    A,@DPTR
   \   0001D0   F8           MOV     R0,A
   \   0001D1   A3           INC     DPTR
   \   0001D2   E0           MOVX    A,@DPTR
   \   0001D3   F583         MOV     DPH,A
   \   0001D5   8882         MOV     DPL,R0
   \   0001D7   E0           MOVX    A,@DPTR
   \   0001D8   F9           MOV     R1,A
   \   0001D9   12....       LCALL   ??osal_msg_send?relay
    843                    }
    844          
    845                    uint8Buf[epCnt++] = sDesc->EndPoint;
   \                     ??ZDO_ProcessMatchDescReq_12:
   \   0001DC   85..82       MOV     DPL,?XSP + 0
   \   0001DF   85..83       MOV     DPH,?XSP + 1
   \   0001E2   E0           MOVX    A,@DPTR
   \   0001E3   F8           MOV     R0,A
   \   0001E4   A3           INC     DPTR
   \   0001E5   E0           MOVX    A,@DPTR
   \   0001E6   F583         MOV     DPH,A
   \   0001E8   8882         MOV     DPL,R0
   \   0001EA   E0           MOVX    A,@DPTR
   \   0001EB   C0E0         PUSH    A
   \   0001ED   7404         MOV     A,#0x4
   \   0001EF   12....       LCALL   ?XSTACK_DISP0_8
   \   0001F2   E0           MOVX    A,@DPTR
   \   0001F3   F8           MOV     R0,A
   \   0001F4   74..         MOV     A,#ZDOBuildBuf & 0xff
   \   0001F6   28           ADD     A,R0
   \   0001F7   F582         MOV     DPL,A
   \   0001F9   74..         MOV     A,#(ZDOBuildBuf >> 8) & 0xff
   \   0001FB   3400         ADDC    A,#0x0
   \   0001FD   F583         MOV     DPH,A
   \   0001FF   D0E0         POP     A
   \   000201   F0           MOVX    @DPTR,A
   \   000202   7404         MOV     A,#0x4
   \   000204   12....       LCALL   ?XSTACK_DISP0_8
   \   000207   E0           MOVX    A,@DPTR
   \   000208   04           INC     A
   \   000209   F0           MOVX    @DPTR,A
    846                  }
    847                }
    848          
    849                if ( allocated )
   \                     ??ZDO_ProcessMatchDescReq_13:
   \   00020A   E5..         MOV     A,?V0 + 3
   \   00020C   600E         JZ      ??ZDO_ProcessMatchDescReq_14
    850                  osal_mem_free( sDesc );
   \   00020E                ; Setup parameters for call to function osal_mem_free
   \   00020E   85..82       MOV     DPL,?XSP + 0
   \   000211   85..83       MOV     DPH,?XSP + 1
   \   000214   E0           MOVX    A,@DPTR
   \   000215   FA           MOV     R2,A
   \   000216   A3           INC     DPTR
   \   000217   E0           MOVX    A,@DPTR
   \   000218   FB           MOV     R3,A
   \   000219   12....       LCALL   ??osal_mem_free?relay
    851              }
    852              epDesc = epDesc->nextDesc;
   \                     ??ZDO_ProcessMatchDescReq_14:
   \   00021C   7402         MOV     A,#0x2
   \   00021E   12....       LCALL   ?XSTACK_DISP0_8
   \   000221   E0           MOVX    A,@DPTR
   \   000222   F8           MOV     R0,A
   \   000223   A3           INC     DPTR
   \   000224   E0           MOVX    A,@DPTR
   \   000225   F583         MOV     DPH,A
   \   000227   8882         MOV     DPL,R0
   \   000229   A3           INC     DPTR
   \   00022A   A3           INC     DPTR
   \   00022B   A3           INC     DPTR
   \   00022C   A3           INC     DPTR
   \   00022D   A3           INC     DPTR
   \                     ??ZDO_ProcessMatchDescReq_9:
   \   00022E   E0           MOVX    A,@DPTR
   \   00022F   F8           MOV     R0,A
   \   000230   A3           INC     DPTR
   \   000231   E0           MOVX    A,@DPTR
   \   000232   F9           MOV     R1,A
   \   000233   7402         MOV     A,#0x2
   \   000235   12....       LCALL   ?XSTACK_DISP0_8
   \   000238   E8           MOV     A,R0
   \   000239   F0           MOVX    @DPTR,A
   \   00023A   A3           INC     DPTR
   \   00023B   E9           MOV     A,R1
   \   00023C   F0           MOVX    @DPTR,A
   \   00023D   7402         MOV     A,#0x2
   \   00023F   12....       LCALL   ?XSTACK_DISP0_8
   \   000242   E0           MOVX    A,@DPTR
   \   000243   F8           MOV     R0,A
   \   000244   A3           INC     DPTR
   \   000245   E0           MOVX    A,@DPTR
   \   000246   F9           MOV     R1,A
   \   000247   E8           MOV     A,R0
   \   000248   49           ORL     A,R1
   \   000249   7003         JNZ     $+5
   \   00024B   02....       LJMP    ??ZDO_ProcessMatchDescReq_15 & 0xFFFF
   \   00024E   7402         MOV     A,#0x2
   \   000250   12....       LCALL   ?XSTACK_DISP0_8
   \   000253   E0           MOVX    A,@DPTR
   \   000254   F8           MOV     R0,A
   \   000255   A3           INC     DPTR
   \   000256   E0           MOVX    A,@DPTR
   \   000257   F583         MOV     DPH,A
   \   000259   8882         MOV     DPL,R0
   \   00025B   E0           MOVX    A,@DPTR
   \   00025C   F8           MOV     R0,A
   \   00025D   A3           INC     DPTR
   \   00025E   E0           MOVX    A,@DPTR
   \   00025F   F583         MOV     DPH,A
   \   000261   8882         MOV     DPL,R0
   \   000263   E0           MOVX    A,@DPTR
   \   000264   60B6         JZ      ??ZDO_ProcessMatchDescReq_14
   \   000266   7402         MOV     A,#0x2
   \   000268   12....       LCALL   ?XSTACK_DISP0_8
   \   00026B   E0           MOVX    A,@DPTR
   \   00026C   F8           MOV     R0,A
   \   00026D   A3           INC     DPTR
   \   00026E   E0           MOVX    A,@DPTR
   \   00026F   F583         MOV     DPH,A
   \   000271   8882         MOV     DPL,R0
   \   000273   A3           INC     DPTR
   \   000274   A3           INC     DPTR
   \   000275   E0           MOVX    A,@DPTR
   \   000276   A2E0         MOV     C,0xE0 /* A   */.0
   \   000278   50A2         JNC     ??ZDO_ProcessMatchDescReq_14
   \   00027A   7402         MOV     A,#0x2
   \   00027C   12....       LCALL   ?XSTACK_DISP0_8
   \   00027F   E0           MOVX    A,@DPTR
   \   000280   2403         ADD     A,#0x3
   \   000282   F8           MOV     R0,A
   \   000283   A3           INC     DPTR
   \   000284   E0           MOVX    A,@DPTR
   \   000285   3400         ADDC    A,#0x0
   \   000287   F9           MOV     R1,A
   \   000288   E8           MOV     A,R0
   \   000289   FC           MOV     R4,A
   \   00028A   E9           MOV     A,R1
   \   00028B   FD           MOV     R5,A
   \   00028C   8C82         MOV     DPL,R4
   \   00028E   8D83         MOV     DPH,R5
   \   000290   E0           MOVX    A,@DPTR
   \   000291   F8           MOV     R0,A
   \   000292   A3           INC     DPTR
   \   000293   E0           MOVX    A,@DPTR
   \   000294   F9           MOV     R1,A
   \   000295   E8           MOV     A,R0
   \   000296   49           ORL     A,R1
   \   000297   6038         JZ      ??ZDO_ProcessMatchDescReq_16
   \   000299                ; Setup parameters for indirect call
   \   000299   7402         MOV     A,#0x2
   \   00029B   12....       LCALL   ?XSTACK_DISP0_8
   \   00029E   E0           MOVX    A,@DPTR
   \   00029F   F8           MOV     R0,A
   \   0002A0   A3           INC     DPTR
   \   0002A1   E0           MOVX    A,@DPTR
   \   0002A2   F583         MOV     DPH,A
   \   0002A4   8882         MOV     DPL,R0
   \   0002A6   E0           MOVX    A,@DPTR
   \   0002A7   F8           MOV     R0,A
   \   0002A8   A3           INC     DPTR
   \   0002A9   E0           MOVX    A,@DPTR
   \   0002AA   F583         MOV     DPH,A
   \   0002AC   8882         MOV     DPL,R0
   \   0002AE   E0           MOVX    A,@DPTR
   \   0002AF   FA           MOV     R2,A
   \   0002B0   7901         MOV     R1,#0x1
   \   0002B2   8C82         MOV     DPL,R4
   \   0002B4   8D83         MOV     DPH,R5
   \   0002B6   E0           MOVX    A,@DPTR
   \   0002B7   F8           MOV     R0,A
   \   0002B8   A3           INC     DPTR
   \   0002B9   E0           MOVX    A,@DPTR
   \   0002BA   F583         MOV     DPH,A
   \   0002BC   8882         MOV     DPL,R0
   \   0002BE   12....       LCALL   ?CALL_IND
   \   0002C1   85..82       MOV     DPL,?XSP + 0
   \   0002C4   85..83       MOV     DPH,?XSP + 1
   \   0002C7   EA           MOV     A,R2
   \   0002C8   F0           MOVX    @DPTR,A
   \   0002C9   A3           INC     DPTR
   \   0002CA   EB           MOV     A,R3
   \   0002CB   F0           MOVX    @DPTR,A
   \   0002CC   75..01       MOV     ?V0 + 3,#0x1
   \   0002CF   802B         SJMP    ??ZDO_ProcessMatchDescReq_17
   \                     ??ZDO_ProcessMatchDescReq_16:
   \   0002D1   7402         MOV     A,#0x2
   \   0002D3   12....       LCALL   ?XSTACK_DISP0_8
   \   0002D6   E0           MOVX    A,@DPTR
   \   0002D7   F8           MOV     R0,A
   \   0002D8   A3           INC     DPTR
   \   0002D9   E0           MOVX    A,@DPTR
   \   0002DA   F583         MOV     DPH,A
   \   0002DC   8882         MOV     DPL,R0
   \   0002DE   E0           MOVX    A,@DPTR
   \   0002DF   F8           MOV     R0,A
   \   0002E0   A3           INC     DPTR
   \   0002E1   E0           MOVX    A,@DPTR
   \   0002E2   F583         MOV     DPH,A
   \   0002E4   8882         MOV     DPL,R0
   \   0002E6   A3           INC     DPTR
   \   0002E7   A3           INC     DPTR
   \   0002E8   A3           INC     DPTR
   \   0002E9   E0           MOVX    A,@DPTR
   \   0002EA   F8           MOV     R0,A
   \   0002EB   A3           INC     DPTR
   \   0002EC   E0           MOVX    A,@DPTR
   \   0002ED   F9           MOV     R1,A
   \   0002EE   85..82       MOV     DPL,?XSP + 0
   \   0002F1   85..83       MOV     DPH,?XSP + 1
   \   0002F4   E8           MOV     A,R0
   \   0002F5   F0           MOVX    @DPTR,A
   \   0002F6   A3           INC     DPTR
   \   0002F7   E9           MOV     A,R1
   \   0002F8   F0           MOVX    @DPTR,A
   \   0002F9   75..00       MOV     ?V0 + 3,#0x0
   \                     ??ZDO_ProcessMatchDescReq_17:
   \   0002FC   85..82       MOV     DPL,?XSP + 0
   \   0002FF   85..83       MOV     DPH,?XSP + 1
   \   000302   E0           MOVX    A,@DPTR
   \   000303   F8           MOV     R0,A
   \   000304   A3           INC     DPTR
   \   000305   E0           MOVX    A,@DPTR
   \   000306   F9           MOV     R1,A
   \   000307   E8           MOV     A,R0
   \   000308   49           ORL     A,R1
   \   000309   7003         JNZ     $+5
   \   00030B   02....       LJMP    ??ZDO_ProcessMatchDescReq_13 & 0xFFFF
   \   00030E   85..82       MOV     DPL,?XSP + 0
   \   000311   85..83       MOV     DPH,?XSP + 1
   \   000314   E0           MOVX    A,@DPTR
   \   000315   F8           MOV     R0,A
   \   000316   A3           INC     DPTR
   \   000317   E0           MOVX    A,@DPTR
   \   000318   F583         MOV     DPH,A
   \   00031A   8882         MOV     DPL,R0
   \   00031C   A3           INC     DPTR
   \   00031D   E0           MOVX    A,@DPTR
   \   00031E   6E           XRL     A,R6
   \   00031F   7003         JNZ     ??ZDO_ProcessMatchDescReq_18
   \   000321   A3           INC     DPTR
   \   000322   E0           MOVX    A,@DPTR
   \   000323   6F           XRL     A,R7
   \                     ??ZDO_ProcessMatchDescReq_18:
   \   000324   6003         JZ      $+5
   \   000326   02....       LJMP    ??ZDO_ProcessMatchDescReq_13 & 0xFFFF
   \   000329   E5..         MOV     A,?V0 + 7
   \   00032B   7007         JNZ     ??ZDO_ProcessMatchDescReq_19
   \   00032D   E5..         MOV     A,?V0 + 6
   \   00032F   7003         JNZ     $+5
   \   000331   02....       LJMP    ??ZDO_ProcessMatchDescReq_20 & 0xFFFF
   \                     ??ZDO_ProcessMatchDescReq_19:
   \   000334                ; Setup parameters for call to function ZDO_AnyClusterMatches
   \   000334   85..82       MOV     DPL,?XSP + 0
   \   000337   85..83       MOV     DPH,?XSP + 1
   \   00033A   E0           MOVX    A,@DPTR
   \   00033B   F8           MOV     R0,A
   \   00033C   A3           INC     DPTR
   \   00033D   E0           MOVX    A,@DPTR
   \   00033E   F583         MOV     DPH,A
   \   000340   8882         MOV     DPL,R0
   \   000342   A3           INC     DPTR
   \   000343   A3           INC     DPTR
   \   000344   A3           INC     DPTR
   \   000345   A3           INC     DPTR
   \   000346   A3           INC     DPTR
   \   000347   A3           INC     DPTR
   \   000348   A3           INC     DPTR
   \   000349   12....       LCALL   ?PUSH_XSTACK8_X_TWO
   \   00034C   7402         MOV     A,#0x2
   \   00034E   12....       LCALL   ?XSTACK_DISP0_8
   \   000351   E0           MOVX    A,@DPTR
   \   000352   F8           MOV     R0,A
   \   000353   A3           INC     DPTR
   \   000354   E0           MOVX    A,@DPTR
   \   000355   F583         MOV     DPH,A
   \   000357   8882         MOV     DPL,R0
   \   000359   A3           INC     DPTR
   \   00035A   A3           INC     DPTR
   \   00035B   A3           INC     DPTR
   \   00035C   A3           INC     DPTR
   \   00035D   A3           INC     DPTR
   \   00035E   A3           INC     DPTR
   \   00035F   E0           MOVX    A,@DPTR
   \   000360   FC           MOV     R4,A
   \   000361   740B         MOV     A,#0xb
   \   000363   12....       LCALL   ?XSTACK_DISP0_8
   \   000366   E0           MOVX    A,@DPTR
   \   000367   FA           MOV     R2,A
   \   000368   A3           INC     DPTR
   \   000369   E0           MOVX    A,@DPTR
   \   00036A   FB           MOV     R3,A
   \   00036B   A9..         MOV     R1,?V0 + 7
   \   00036D   12....       LCALL   ??ZDO_AnyClusterMatches?relay
   \   000370   7402         MOV     A,#0x2
   \   000372   12....       LCALL   ?DEALLOC_XSTACK8
   \   000375   E9           MOV     A,R1
   \   000376   704D         JNZ     ??ZDO_ProcessMatchDescReq_20
   \   000378                ; Setup parameters for call to function ZDO_AnyClusterMatches
   \   000378   85..82       MOV     DPL,?XSP + 0
   \   00037B   85..83       MOV     DPH,?XSP + 1
   \   00037E   E0           MOVX    A,@DPTR
   \   00037F   F8           MOV     R0,A
   \   000380   A3           INC     DPTR
   \   000381   E0           MOVX    A,@DPTR
   \   000382   F583         MOV     DPH,A
   \   000384   8882         MOV     DPL,R0
   \   000386   A3           INC     DPTR
   \   000387   A3           INC     DPTR
   \   000388   A3           INC     DPTR
   \   000389   A3           INC     DPTR
   \   00038A   A3           INC     DPTR
   \   00038B   A3           INC     DPTR
   \   00038C   A3           INC     DPTR
   \   00038D   A3           INC     DPTR
   \   00038E   A3           INC     DPTR
   \   00038F   A3           INC     DPTR
   \   000390   12....       LCALL   ?PUSH_XSTACK8_X_TWO
   \   000393   7402         MOV     A,#0x2
   \   000395   12....       LCALL   ?XSTACK_DISP0_8
   \   000398   E0           MOVX    A,@DPTR
   \   000399   F8           MOV     R0,A
   \   00039A   A3           INC     DPTR
   \   00039B   E0           MOVX    A,@DPTR
   \   00039C   F583         MOV     DPH,A
   \   00039E   8882         MOV     DPL,R0
   \   0003A0   A3           INC     DPTR
   \   0003A1   A3           INC     DPTR
   \   0003A2   A3           INC     DPTR
   \   0003A3   A3           INC     DPTR
   \   0003A4   A3           INC     DPTR
   \   0003A5   A3           INC     DPTR
   \   0003A6   A3           INC     DPTR
   \   0003A7   A3           INC     DPTR
   \   0003A8   A3           INC     DPTR
   \   0003A9   E0           MOVX    A,@DPTR
   \   0003AA   FC           MOV     R4,A
   \   0003AB   7409         MOV     A,#0x9
   \   0003AD   12....       LCALL   ?XSTACK_DISP0_8
   \   0003B0   E0           MOVX    A,@DPTR
   \   0003B1   FA           MOV     R2,A
   \   0003B2   A3           INC     DPTR
   \   0003B3   E0           MOVX    A,@DPTR
   \   0003B4   FB           MOV     R3,A
   \   0003B5   A9..         MOV     R1,?V0 + 6
   \   0003B7   12....       LCALL   ??ZDO_AnyClusterMatches?relay
   \   0003BA   7402         MOV     A,#0x2
   \   0003BC   12....       LCALL   ?DEALLOC_XSTACK8
   \   0003BF   E9           MOV     A,R1
   \   0003C0   7003         JNZ     $+5
   \   0003C2   02....       LJMP    ??ZDO_ProcessMatchDescReq_13 & 0xFFFF
   \                     ??ZDO_ProcessMatchDescReq_20:
   \   0003C5                ; Setup parameters for call to function osal_msg_allocate
   \   0003C5   E5..         MOV     A,?V0 + 6
   \   0003C7   25..         ADD     A,?V0 + 7
   \   0003C9   C3           CLR     C
   \   0003CA   33           RLC     A
   \   0003CB   240A         ADD     A,#0xa
   \   0003CD   FA           MOV     R2,A
   \   0003CE   7B00         MOV     R3,#0x0
   \   0003D0   12....       LCALL   ??osal_msg_allocate?relay
   \   0003D3   8A..         MOV     ?V0 + 4,R2
   \   0003D5   8B..         MOV     ?V0 + 5,R3
   \   0003D7   EA           MOV     A,R2
   \   0003D8   45..         ORL     A,?V0 + 5
   \   0003DA   7003         JNZ     $+5
   \   0003DC   02....       LJMP    ??ZDO_ProcessMatchDescReq_12 & 0xFFFF
   \   0003DF   8A82         MOV     DPL,R2
   \   0003E1   8B83         MOV     DPH,R3
   \   0003E3   74D2         MOV     A,#-0x2e
   \   0003E5   F0           MOVX    @DPTR,A
   \   0003E6   7405         MOV     A,#0x5
   \   0003E8   12....       LCALL   ?XSTACK_DISP0_8
   \   0003EB   E0           MOVX    A,@DPTR
   \   0003EC   F8           MOV     R0,A
   \   0003ED   A3           INC     DPTR
   \   0003EE   E0           MOVX    A,@DPTR
   \   0003EF   F583         MOV     DPH,A
   \   0003F1   8882         MOV     DPL,R0
   \   0003F3   A3           INC     DPTR
   \   0003F4   A3           INC     DPTR
   \   0003F5   E0           MOVX    A,@DPTR
   \   0003F6   F8           MOV     R0,A
   \   0003F7   A3           INC     DPTR
   \   0003F8   E0           MOVX    A,@DPTR
   \   0003F9   F9           MOV     R1,A
   \   0003FA   8A82         MOV     DPL,R2
   \   0003FC   8B83         MOV     DPH,R3
   \   0003FE   A3           INC     DPTR
   \   0003FF   A3           INC     DPTR
   \   000400   E8           MOV     A,R0
   \   000401   F0           MOVX    @DPTR,A
   \   000402   A3           INC     DPTR
   \   000403   E9           MOV     A,R1
   \   000404   F0           MOVX    @DPTR,A
   \   000405   8A82         MOV     DPL,R2
   \   000407   8B83         MOV     DPH,R3
   \   000409   A3           INC     DPTR
   \   00040A   A3           INC     DPTR
   \   00040B   A3           INC     DPTR
   \   00040C   A3           INC     DPTR
   \   00040D   E5..         MOV     A,?V0 + 7
   \   00040F   F0           MOVX    @DPTR,A
   \   000410   8A82         MOV     DPL,R2
   \   000412   8B83         MOV     DPH,R3
   \   000414   A3           INC     DPTR
   \   000415   A3           INC     DPTR
   \   000416   A3           INC     DPTR
   \   000417   A3           INC     DPTR
   \   000418   A3           INC     DPTR
   \   000419   A3           INC     DPTR
   \   00041A   A3           INC     DPTR
   \   00041B   E5..         MOV     A,?V0 + 6
   \   00041D   F0           MOVX    @DPTR,A
   \   00041E   EA           MOV     A,R2
   \   00041F   2405         ADD     A,#0x5
   \   000421   FA           MOV     R2,A
   \   000422   EB           MOV     A,R3
   \   000423   3400         ADDC    A,#0x0
   \   000425   FB           MOV     R3,A
   \   000426   E5..         MOV     A,?V0 + 7
   \   000428   6042         JZ      ??ZDO_ProcessMatchDescReq_21
   \   00042A   E5..         MOV     A,?V0 + 4
   \   00042C   240A         ADD     A,#0xa
   \   00042E   F8           MOV     R0,A
   \   00042F   E5..         MOV     A,?V0 + 5
   \   000431   3400         ADDC    A,#0x0
   \   000433   F9           MOV     R1,A
   \   000434   8A82         MOV     DPL,R2
   \   000436   8B83         MOV     DPH,R3
   \   000438   E8           MOV     A,R0
   \   000439   F0           MOVX    @DPTR,A
   \   00043A   A3           INC     DPTR
   \   00043B   E9           MOV     A,R1
   \   00043C   F0           MOVX    @DPTR,A
   \   00043D                ; Setup parameters for call to function osal_memcpy
   \   00043D   7409         MOV     A,#0x9
   \   00043F   12....       LCALL   ?XSTACK_DISP0_8
   \   000442   E0           MOVX    A,@DPTR
   \   000443   F5..         MOV     ?V0 + 0,A
   \   000445   A3           INC     DPTR
   \   000446   E0           MOVX    A,@DPTR
   \   000447   F5..         MOV     ?V0 + 1,A
   \   000449   75..00       MOV     ?V0 + 2,#0x0
   \   00044C   78..         MOV     R0,#?V0 + 0
   \   00044E   12....       LCALL   ?PUSH_XSTACK_I_THREE
   \   000451   E5..         MOV     A,?V0 + 7
   \   000453   C3           CLR     C
   \   000454   33           RLC     A
   \   000455   FC           MOV     R4,A
   \   000456   E4           CLR     A
   \   000457   33           RLC     A
   \   000458   FD           MOV     R5,A
   \   000459   8A82         MOV     DPL,R2
   \   00045B   8B83         MOV     DPH,R3
   \   00045D   E0           MOVX    A,@DPTR
   \   00045E   FA           MOV     R2,A
   \   00045F   A3           INC     DPTR
   \   000460   E0           MOVX    A,@DPTR
   \   000461   FB           MOV     R3,A
   \   000462   12....       LCALL   ??osal_memcpy?relay
   \   000465   7403         MOV     A,#0x3
   \   000467   12....       LCALL   ?DEALLOC_XSTACK8
   \   00046A   8008         SJMP    ??ZDO_ProcessMatchDescReq_22
   \                     ??ZDO_ProcessMatchDescReq_21:
   \   00046C   8A82         MOV     DPL,R2
   \   00046E   8B83         MOV     DPH,R3
   \   000470   E4           CLR     A
   \   000471   F0           MOVX    @DPTR,A
   \   000472   A3           INC     DPTR
   \   000473   F0           MOVX    @DPTR,A
   \                     ??ZDO_ProcessMatchDescReq_22:
   \   000474   E5..         MOV     A,?V0 + 4
   \   000476   2408         ADD     A,#0x8
   \   000478   FA           MOV     R2,A
   \   000479   E5..         MOV     A,?V0 + 5
   \   00047B   3400         ADDC    A,#0x0
   \   00047D   FB           MOV     R3,A
   \   00047E   E5..         MOV     A,?V0 + 6
   \   000480   7003         JNZ     $+5
   \   000482   02....       LJMP    ??ZDO_ProcessMatchDescReq_10 & 0xFFFF
   \   000485   E5..         MOV     A,?V0 + 7
   \   000487   C3           CLR     C
   \   000488   33           RLC     A
   \   000489   F8           MOV     R0,A
   \   00048A   E4           CLR     A
   \   00048B   33           RLC     A
   \   00048C   F9           MOV     R1,A
   \   00048D   E5..         MOV     A,?V0 + 4
   \   00048F   28           ADD     A,R0
   \   000490   F8           MOV     R0,A
   \   000491   E5..         MOV     A,?V0 + 5
   \   000493   39           ADDC    A,R1
   \   000494   F9           MOV     R1,A
   \   000495   E8           MOV     A,R0
   \   000496   240A         ADD     A,#0xa
   \   000498   F8           MOV     R0,A
   \   000499   E9           MOV     A,R1
   \   00049A   3400         ADDC    A,#0x0
   \   00049C   F9           MOV     R1,A
   \   00049D   8A82         MOV     DPL,R2
   \   00049F   8B83         MOV     DPH,R3
   \   0004A1   E8           MOV     A,R0
   \   0004A2   F0           MOVX    @DPTR,A
   \   0004A3   A3           INC     DPTR
   \   0004A4   E9           MOV     A,R1
   \   0004A5   F0           MOVX    @DPTR,A
   \   0004A6                ; Setup parameters for call to function osal_memcpy
   \   0004A6   7407         MOV     A,#0x7
   \   0004A8   12....       LCALL   ?XSTACK_DISP0_8
   \   0004AB   E0           MOVX    A,@DPTR
   \   0004AC   F5..         MOV     ?V0 + 0,A
   \   0004AE   A3           INC     DPTR
   \   0004AF   E0           MOVX    A,@DPTR
   \   0004B0   F5..         MOV     ?V0 + 1,A
   \   0004B2   75..00       MOV     ?V0 + 2,#0x0
   \   0004B5   78..         MOV     R0,#?V0 + 0
   \   0004B7   12....       LCALL   ?PUSH_XSTACK_I_THREE
   \   0004BA   E5..         MOV     A,?V0 + 6
   \   0004BC   C3           CLR     C
   \   0004BD   33           RLC     A
   \   0004BE   FC           MOV     R4,A
   \   0004BF   E4           CLR     A
   \   0004C0   33           RLC     A
   \   0004C1   FD           MOV     R5,A
   \   0004C2   8A82         MOV     DPL,R2
   \   0004C4   8B83         MOV     DPH,R3
   \   0004C6   E0           MOVX    A,@DPTR
   \   0004C7   FA           MOV     R2,A
   \   0004C8   A3           INC     DPTR
   \   0004C9   E0           MOVX    A,@DPTR
   \   0004CA   FB           MOV     R3,A
   \   0004CB   12....       LCALL   ??osal_memcpy?relay
   \   0004CE   7403         MOV     A,#0x3
   \   0004D0   12....       LCALL   ?DEALLOC_XSTACK8
   \   0004D3   02....       LJMP    ??ZDO_ProcessMatchDescReq_11 & 0xFFFF
    853            }
    854          
    855            // Send the message only if at least one match found.
    856            if ( epCnt )
   \                     ??ZDO_ProcessMatchDescReq_15:
   \   0004D6   7404         MOV     A,#0x4
   \   0004D8   12....       LCALL   ?XSTACK_DISP0_8
   \   0004DB   E0           MOVX    A,@DPTR
   \   0004DC   6077         JZ      ??ZDO_ProcessMatchDescReq_23
    857            {
    858              if ( ZSuccess == ZDP_MatchDescRsp( inMsg->TransSeq, &(inMsg->srcAddr), ZDP_SUCCESS,
    859                        ZDAppNwkAddr.addr.shortAddr, epCnt, (uint8 *)ZDOBuildBuf, inMsg->SecurityUse ) )
   \   0004DE                ; Setup parameters for call to function ZDP_EPRsp
   \   0004DE   7405         MOV     A,#0x5
   \   0004E0   12....       LCALL   ?XSTACK_DISP0_8
   \   0004E3   E0           MOVX    A,@DPTR
   \   0004E4   240E         ADD     A,#0xe
   \   0004E6   F8           MOV     R0,A
   \   0004E7   A3           INC     DPTR
   \   0004E8   E0           MOVX    A,@DPTR
   \   0004E9   3400         ADDC    A,#0x0
   \   0004EB   F9           MOV     R1,A
   \   0004EC   8882         MOV     DPL,R0
   \   0004EE   8983         MOV     DPH,R1
   \   0004F0   E0           MOVX    A,@DPTR
   \   0004F1   F5..         MOV     ?V0 + 0,A
   \   0004F3   78..         MOV     R0,#?V0 + 0
   \   0004F5   12....       LCALL   ?PUSH_XSTACK_I_ONE
   \   0004F8   75....       MOV     ?V0 + 0,#ZDOBuildBuf & 0xff
   \   0004FB   75....       MOV     ?V0 + 1,#(ZDOBuildBuf >> 8) & 0xff
   \   0004FE   78..         MOV     R0,#?V0 + 0
   \   000500   12....       LCALL   ?PUSH_XSTACK_I_TWO
   \   000503   7407         MOV     A,#0x7
   \   000505   12....       LCALL   ?XSTACK_DISP0_8
   \   000508   E0           MOVX    A,@DPTR
   \   000509   F5..         MOV     ?V0 + 0,A
   \   00050B   78..         MOV     R0,#?V0 + 0
   \   00050D   12....       LCALL   ?PUSH_XSTACK_I_ONE
   \   000510   90....       MOV     DPTR,#ZDAppNwkAddr
   \   000513   12....       LCALL   ?PUSH_XSTACK8_X_TWO
   \   000516   75..00       MOV     ?V0 + 0,#0x0
   \   000519   78..         MOV     R0,#?V0 + 0
   \   00051B   12....       LCALL   ?PUSH_XSTACK_I_ONE
   \   00051E   740C         MOV     A,#0xc
   \   000520   12....       LCALL   ?XSTACK_DISP0_8
   \   000523   E0           MOVX    A,@DPTR
   \   000524   2402         ADD     A,#0x2
   \   000526   FC           MOV     R4,A
   \   000527   A3           INC     DPTR
   \   000528   E0           MOVX    A,@DPTR
   \   000529   3400         ADDC    A,#0x0
   \   00052B   FD           MOV     R5,A
   \   00052C   740C         MOV     A,#0xc
   \   00052E   12....       LCALL   ?XSTACK_DISP0_8
   \   000531   E0           MOVX    A,@DPTR
   \   000532   240F         ADD     A,#0xf
   \   000534   F8           MOV     R0,A
   \   000535   A3           INC     DPTR
   \   000536   E0           MOVX    A,@DPTR
   \   000537   3400         ADDC    A,#0x0
   \   000539   F9           MOV     R1,A
   \   00053A   8882         MOV     DPL,R0
   \   00053C   8983         MOV     DPH,R1
   \   00053E   E0           MOVX    A,@DPTR
   \   00053F   F9           MOV     R1,A
   \   000540   7A06         MOV     R2,#0x6
   \   000542   7B80         MOV     R3,#-0x80
   \   000544   12....       LCALL   ??ZDP_EPRsp?relay
   \   000547   7407         MOV     A,#0x7
   \   000549   12....       LCALL   ?DEALLOC_XSTACK8
   \   00054C   E9           MOV     A,R1
   \   00054D   7011         JNZ     ??ZDO_ProcessMatchDescReq_24
    860              {
    861          #if defined( LCD_SUPPORTED )
    862                HalLcdWriteScreen( "Match Desc Req", "Rsp Sent" );
   \   00054F                ; Setup parameters for call to function HalLcdWriteScreen
   \   00054F   7C..         MOV     R4,#`?<Constant "Rsp Sent">` & 0xff
   \   000551   7D..         MOV     R5,#(`?<Constant "Rsp Sent">` >> 8) & 0xff
   \   000553   8004         SJMP    ??ZDO_ProcessMatchDescReq_25
    863          #endif
    864              }
    865            }
    866            else
    867            {
    868          #if defined( LCD_SUPPORTED )
    869              HalLcdWriteScreen( "Match Desc Req", "Non Matched" );
   \                     ??ZDO_ProcessMatchDescReq_23:
   \   000555                ; Setup parameters for call to function HalLcdWriteScreen
   \   000555   7C..         MOV     R4,#`?<Constant "Non Matched">` & 0xff
   \   000557   7D..         MOV     R5,#(`?<Constant "Non Matched">` >> 8) & 0xff
   \                     ??ZDO_ProcessMatchDescReq_25:
   \   000559   7A..         MOV     R2,#`?<Constant "Match Desc Req">` & 0xff
   \   00055B   7B..         MOV     R3,#(`?<Constant "Match Desc Req">` >> 8) & 0xff
   \   00055D   12....       LCALL   ??HalLcdWriteScreen?relay
    870          #endif
    871            }
    872            
    873            if ( inClusters != NULL )
   \                     ??ZDO_ProcessMatchDescReq_24:
   \   000560   7409         MOV     A,#0x9
   \   000562   12....       LCALL   ?XSTACK_DISP0_8
   \   000565   E0           MOVX    A,@DPTR
   \   000566   F8           MOV     R0,A
   \   000567   A3           INC     DPTR
   \   000568   E0           MOVX    A,@DPTR
   \   000569   F9           MOV     R1,A
   \   00056A   E8           MOV     A,R0
   \   00056B   49           ORL     A,R1
   \   00056C   600D         JZ      ??ZDO_ProcessMatchDescReq_26
    874              osal_mem_free( inClusters );
   \   00056E                ; Setup parameters for call to function osal_mem_free
   \   00056E   7409         MOV     A,#0x9
   \   000570   12....       LCALL   ?XSTACK_DISP0_8
   \   000573   E0           MOVX    A,@DPTR
   \   000574   FA           MOV     R2,A
   \   000575   A3           INC     DPTR
   \   000576   E0           MOVX    A,@DPTR
   \   000577   FB           MOV     R3,A
   \   000578   12....       LCALL   ??osal_mem_free?relay
    875            if ( outClusters != NULL )
   \                     ??ZDO_ProcessMatchDescReq_26:
   \   00057B   7407         MOV     A,#0x7
   \   00057D   12....       LCALL   ?XSTACK_DISP0_8
   \   000580   E0           MOVX    A,@DPTR
   \   000581   F8           MOV     R0,A
   \   000582   A3           INC     DPTR
   \   000583   E0           MOVX    A,@DPTR
   \   000584   F9           MOV     R1,A
   \   000585   E8           MOV     A,R0
   \   000586   49           ORL     A,R1
   \   000587   600D         JZ      ??ZDO_ProcessMatchDescReq_2
    876              osal_mem_free( outClusters );
   \   000589                ; Setup parameters for call to function osal_mem_free
   \   000589   7407         MOV     A,#0x7
   \   00058B   12....       LCALL   ?XSTACK_DISP0_8
   \   00058E   E0           MOVX    A,@DPTR
   \   00058F   FA           MOV     R2,A
   \   000590   A3           INC     DPTR
   \   000591   E0           MOVX    A,@DPTR
   \   000592   FB           MOV     R3,A
   \   000593   12....       LCALL   ??osal_mem_free?relay
   \                     ??ZDO_ProcessMatchDescReq_2:
   \   000596   740B         MOV     A,#0xb
   \   000598   12....       LCALL   ?DEALLOC_XSTACK8
   \   00059B   7F08         MOV     R7,#0x8
   \   00059D   02....       LJMP    ?BANKED_LEAVE_XDATA
    877          }
    878          
    879          
    880          /*********************************************************************
    881           * @fn      ZDO_ProcessBindUnbindReq()
    882           *
    883           * @brief   Called to process a Bind or Unbind Request message.
    884           *
    885           * @param   inMsg  - incoming message (request)
    886           * @param   pReq - place to put parsed information
    887           *
    888           * @return  none
    889           */

   \                                 In  segment BANKED_CODE, align 1, keep-with-next
    890          void ZDO_ProcessBindUnbindReq( zdoIncomingMsg_t *inMsg, ZDO_BindUnbindReq_t *pReq )
   \                     ZDO_ProcessBindUnbindReq:
    891          {
   \   000000   74F0         MOV     A,#-0x10
   \   000002   12....       LCALL   ?BANKED_ENTER_XDATA
   \   000005                ; Saved register size: 16
   \   000005                ; Auto size: 12
   \   000005   74F4         MOV     A,#-0xc
   \   000007   12....       LCALL   ?ALLOC_XSTACK8
   \   00000A   8A..         MOV     ?V0 + 6,R2
   \   00000C   8B..         MOV     ?V0 + 7,R3
   \   00000E   EC           MOV     A,R4
   \   00000F   FE           MOV     R6,A
   \   000010   ED           MOV     A,R5
   \   000011   FF           MOV     R7,A
    892            zAddrType_t SourceAddr;       // Binding Source addres
    893            byte bindStat;
    894          
    895            SourceAddr.addrMode = Addr64Bit;
   \   000012   740B         MOV     A,#0xb
   \   000014   12....       LCALL   ?XSTACK_DISP0_8
   \   000017   7403         MOV     A,#0x3
   \   000019   F0           MOVX    @DPTR,A
    896            osal_cpyExtAddr( SourceAddr.addr.extAddr, pReq->srcAddress );
   \   00001A                ; Setup parameters for call to function sAddrExtCpy
   \   00001A   12....       LCALL   ?XSTACK_DISP0_8
   \   00001D   AA82         MOV     R2,DPL
   \   00001F   AB83         MOV     R3,DPH
   \   000021   12....       LCALL   ??sAddrExtCpy?relay
    897          
    898           
    899            // If the local device is not the primary binding cache
    900            // check the src address of the bind request.
    901            // If it is not the local device's extended address
    902            // discard the request.
    903            if ( !osal_ExtAddrEqual( SourceAddr.addr.extAddr, NLME_GetExtAddr()) ||
    904                  (pReq->dstAddress.addrMode != Addr64Bit &&
    905                   pReq->dstAddress.addrMode != AddrGroup) )
   \   000024                ; Setup parameters for call to function sAddrExtCmp
   \   000024                ; Setup parameters for call to function NLME_GetExtAddr
   \   000024   12....       LCALL   ??NLME_GetExtAddr?relay
   \   000027   EA           MOV     A,R2
   \   000028   FC           MOV     R4,A
   \   000029   EB           MOV     A,R3
   \   00002A   FD           MOV     R5,A
   \   00002B   7403         MOV     A,#0x3
   \   00002D   12....       LCALL   ?XSTACK_DISP0_8
   \   000030   AA82         MOV     R2,DPL
   \   000032   AB83         MOV     R3,DPH
   \   000034   12....       LCALL   ??sAddrExtCmp?relay
   \   000037   E9           MOV     A,R1
   \   000038   6019         JZ      ??ZDO_ProcessBindUnbindReq_0
   \   00003A   EE           MOV     A,R6
   \   00003B   2413         ADD     A,#0x13
   \   00003D   F5..         MOV     ?V0 + 2,A
   \   00003F   EF           MOV     A,R7
   \   000040   3400         ADDC    A,#0x0
   \   000042   F5..         MOV     ?V0 + 3,A
   \   000044   85..82       MOV     DPL,?V0 + 2
   \   000047   F583         MOV     DPH,A
   \   000049   E0           MOVX    A,@DPTR
   \   00004A   6403         XRL     A,#0x3
   \   00004C   6010         JZ      ??ZDO_ProcessBindUnbindReq_1
   \   00004E   E0           MOVX    A,@DPTR
   \   00004F   6401         XRL     A,#0x1
   \   000051   600B         JZ      ??ZDO_ProcessBindUnbindReq_1
    906            {
    907              bindStat = ZDP_NOT_SUPPORTED;
   \                     ??ZDO_ProcessBindUnbindReq_0:
   \   000053   85..82       MOV     DPL,?XSP + 0
   \   000056   85..83       MOV     DPH,?XSP + 1
   \   000059   7484         MOV     A,#-0x7c
   \   00005B   02....       LJMP    ??ZDO_ProcessBindUnbindReq_2 & 0xFFFF
    908            }
    909            else
    910            { 
    911              // Check source & destination endpoints
    912              if ( (pReq->srcEndpoint == 0 || pReq->srcEndpoint > MAX_ENDPOINTS)
    913                  || (( pReq->dstAddress.addrMode == Addr64Bit ) &&
    914                      (pReq->dstEndpoint == 0 || pReq->dstEndpoint > MAX_ENDPOINTS)) )
   \                     ??ZDO_ProcessBindUnbindReq_1:
   \   00005E   EE           MOV     A,R6
   \   00005F   2408         ADD     A,#0x8
   \   000061   F5..         MOV     ?V0 + 0,A
   \   000063   EF           MOV     A,R7
   \   000064   3400         ADDC    A,#0x0
   \   000066   F5..         MOV     ?V0 + 1,A
   \   000068   85..82       MOV     DPL,?V0 + 0
   \   00006B   F583         MOV     DPH,A
   \   00006D   E0           MOVX    A,@DPTR
   \   00006E   6024         JZ      ??ZDO_ProcessBindUnbindReq_3
   \   000070   E0           MOVX    A,@DPTR
   \   000071   C3           CLR     C
   \   000072   94F1         SUBB    A,#-0xf
   \   000074   501E         JNC     ??ZDO_ProcessBindUnbindReq_3
   \   000076   85..82       MOV     DPL,?V0 + 2
   \   000079   85..83       MOV     DPH,?V0 + 3
   \   00007C   E0           MOVX    A,@DPTR
   \   00007D   6403         XRL     A,#0x3
   \   00007F   701E         JNZ     ??ZDO_ProcessBindUnbindReq_4
   \   000081   EE           MOV     A,R6
   \   000082   2414         ADD     A,#0x14
   \   000084   F582         MOV     DPL,A
   \   000086   EF           MOV     A,R7
   \   000087   3400         ADDC    A,#0x0
   \   000089   F583         MOV     DPH,A
   \   00008B   E0           MOVX    A,@DPTR
   \   00008C   6006         JZ      ??ZDO_ProcessBindUnbindReq_3
   \   00008E   E0           MOVX    A,@DPTR
   \   00008F   C3           CLR     C
   \   000090   94F1         SUBB    A,#-0xf
   \   000092   400B         JC      ??ZDO_ProcessBindUnbindReq_4
    915              {
    916                bindStat = ZDP_INVALID_EP;
   \                     ??ZDO_ProcessBindUnbindReq_3:
   \   000094   85..82       MOV     DPL,?XSP + 0
   \   000097   85..83       MOV     DPH,?XSP + 1
   \   00009A   7482         MOV     A,#-0x7e
   \   00009C   02....       LJMP    ??ZDO_ProcessBindUnbindReq_2 & 0xFFFF
    917              }
    918              else
    919              {
    920                if ( inMsg->clusterID == Bind_req )
   \                     ??ZDO_ProcessBindUnbindReq_4:
   \   00009F   E5..         MOV     A,?V0 + 6
   \   0000A1   240C         ADD     A,#0xc
   \   0000A3   F582         MOV     DPL,A
   \   0000A5   E5..         MOV     A,?V0 + 7
   \   0000A7   3400         ADDC    A,#0x0
   \   0000A9   F583         MOV     DPH,A
   \   0000AB   E0           MOVX    A,@DPTR
   \   0000AC   6421         XRL     A,#0x21
   \   0000AE   7002         JNZ     ??ZDO_ProcessBindUnbindReq_5
   \   0000B0   A3           INC     DPTR
   \   0000B1   E0           MOVX    A,@DPTR
   \                     ??ZDO_ProcessBindUnbindReq_5:
   \   0000B2   6003         JZ      $+5
   \   0000B4   02....       LJMP    ??ZDO_ProcessBindUnbindReq_6 & 0xFFFF
    921                {
    922                  // Assume the table is full
    923                  bindStat = ZDP_TABLE_FULL;
   \   0000B7   85..82       MOV     DPL,?XSP + 0
   \   0000BA   85..83       MOV     DPH,?XSP + 1
   \   0000BD   7487         MOV     A,#-0x79
   \   0000BF   F0           MOVX    @DPTR,A
    924                  
    925                  if ( bindNumOfEntries() < gNWK_MAX_BINDING_ENTRIES )
   \   0000C0                ; Setup parameters for call to function bindNumOfEntries
   \   0000C0   12....       LCALL   ??bindNumOfEntries?relay
   \   0000C3   90....       MOV     DPTR,#gNWK_MAX_BINDING_ENTRIES
   \   0000C6   E4           CLR     A
   \   0000C7   93           MOVC    A,@A+DPTR
   \   0000C8   F8           MOV     R0,A
   \   0000C9   7401         MOV     A,#0x1
   \   0000CB   93           MOVC    A,@A+DPTR
   \   0000CC   F9           MOV     R1,A
   \   0000CD   C3           CLR     C
   \   0000CE   EA           MOV     A,R2
   \   0000CF   98           SUBB    A,R0
   \   0000D0   EB           MOV     A,R3
   \   0000D1   99           SUBB    A,R1
   \   0000D2   4003         JC      $+5
   \   0000D4   02....       LJMP    ??ZDO_ProcessBindUnbindReq_7 & 0xFFFF
   \   0000D7                ; Setup parameters for call to function APSME_BindRequest
   \   0000D7   EE           MOV     A,R6
   \   0000D8   2414         ADD     A,#0x14
   \   0000DA   F582         MOV     DPL,A
   \   0000DC   EF           MOV     A,R7
   \   0000DD   3400         ADDC    A,#0x0
   \   0000DF   F583         MOV     DPH,A
   \   0000E1   E0           MOVX    A,@DPTR
   \   0000E2   F5..         MOV     ?V0 + 4,A
   \   0000E4   78..         MOV     R0,#?V0 + 4
   \   0000E6   12....       LCALL   ?PUSH_XSTACK_I_ONE
   \   0000E9   EE           MOV     A,R6
   \   0000EA   240B         ADD     A,#0xb
   \   0000EC   FC           MOV     R4,A
   \   0000ED   EF           MOV     A,R7
   \   0000EE   3400         ADDC    A,#0x0
   \   0000F0   FD           MOV     R5,A
   \   0000F1   8E82         MOV     DPL,R6
   \   0000F3   8F83         MOV     DPH,R7
   \   0000F5   A3           INC     DPTR
   \   0000F6   A3           INC     DPTR
   \   0000F7   A3           INC     DPTR
   \   0000F8   A3           INC     DPTR
   \   0000F9   A3           INC     DPTR
   \   0000FA   A3           INC     DPTR
   \   0000FB   A3           INC     DPTR
   \   0000FC   A3           INC     DPTR
   \   0000FD   A3           INC     DPTR
   \   0000FE   E0           MOVX    A,@DPTR
   \   0000FF   FA           MOV     R2,A
   \   000100   A3           INC     DPTR
   \   000101   E0           MOVX    A,@DPTR
   \   000102   FB           MOV     R3,A
   \   000103   85..82       MOV     DPL,?V0 + 0
   \   000106   85..83       MOV     DPH,?V0 + 1
   \   000109   E0           MOVX    A,@DPTR
   \   00010A   F9           MOV     R1,A
    926                  {
    927                    if ( APSME_BindRequest( pReq->srcEndpoint, pReq->clusterID,
    928                                   &(pReq->dstAddress), pReq->dstEndpoint ) == ZSuccess )
   \   00010B   12....       LCALL   ??APSME_BindRequest?relay
   \   00010E   7401         MOV     A,#0x1
   \   000110   12....       LCALL   ?DEALLOC_XSTACK8
   \   000113   E9           MOV     A,R1
   \   000114   6003         JZ      $+5
   \   000116   02....       LJMP    ??ZDO_ProcessBindUnbindReq_7 & 0xFFFF
    929                    {
    930                      uint16 nwkAddr;
    931                      
    932                      // valid entry
    933                      bindStat = ZDP_SUCCESS;
   \   000119   85..82       MOV     DPL,?XSP + 0
   \   00011C   85..83       MOV     DPH,?XSP + 1
   \   00011F   E4           CLR     A
   \   000120   F0           MOVX    @DPTR,A
    934                      
    935                      // Notify to save info into NV
    936                      ZDApp_NVUpdate();
   \   000121                ; Setup parameters for call to function ZDApp_NVUpdate
   \   000121   12....       LCALL   ??ZDApp_NVUpdate?relay
    937                      
    938                      // Check for the destination address
    939                      if ( pReq->dstAddress.addrMode == Addr64Bit )
   \   000124   85..82       MOV     DPL,?V0 + 2
   \   000127   85..83       MOV     DPH,?V0 + 3
   \   00012A   E0           MOVX    A,@DPTR
   \   00012B   6403         XRL     A,#0x3
   \   00012D   7079         JNZ     ??ZDO_ProcessBindUnbindReq_7
    940                      {
    941                        if ( APSME_LookupNwkAddr( pReq->dstAddress.addr.extAddr, &nwkAddr ) == FALSE )
   \   00012F                ; Setup parameters for call to function APSME_LookupNwkAddr
   \   00012F   7401         MOV     A,#0x1
   \   000131   12....       LCALL   ?XSTACK_DISP0_8
   \   000134   AC82         MOV     R4,DPL
   \   000136   AD83         MOV     R5,DPH
   \   000138   EE           MOV     A,R6
   \   000139   240B         ADD     A,#0xb
   \   00013B   FA           MOV     R2,A
   \   00013C   EF           MOV     A,R7
   \   00013D   3400         ADDC    A,#0x0
   \   00013F   FB           MOV     R3,A
   \   000140   12....       LCALL   ??APSME_LookupNwkAddr?relay
   \   000143   E9           MOV     A,R1
   \   000144   7062         JNZ     ??ZDO_ProcessBindUnbindReq_7
    942                        {
    943                          ZDP_NwkAddrReq( pReq->dstAddress.addr.extAddr, ZDP_ADDR_REQTYPE_SINGLE, 0, 0 );
   \   000146                ; Setup parameters for call to function ZDP_NwkAddrReq
   \   000146   7D00         MOV     R5,#0x0
   \   000148   7C00         MOV     R4,#0x0
   \   00014A   7900         MOV     R1,#0x0
   \   00014C   EE           MOV     A,R6
   \   00014D   240B         ADD     A,#0xb
   \   00014F   FA           MOV     R2,A
   \   000150   EF           MOV     A,R7
   \   000151   3400         ADDC    A,#0x0
   \   000153   FB           MOV     R3,A
   \   000154   12....       LCALL   ??ZDP_NwkAddrReq?relay
   \   000157   804F         SJMP    ??ZDO_ProcessBindUnbindReq_7
    944                        }
    945                      }
    946                    }
    947                  }
    948                }
    949                else // Unbind_req
    950                {
    951                  if ( APSME_UnBindRequest( pReq->srcEndpoint, pReq->clusterID,
    952                                 &(pReq->dstAddress), pReq->dstEndpoint ) == ZSuccess )
   \                     ??ZDO_ProcessBindUnbindReq_6:
   \   000159                ; Setup parameters for call to function APSME_UnBindRequest
   \   000159   EE           MOV     A,R6
   \   00015A   2414         ADD     A,#0x14
   \   00015C   F582         MOV     DPL,A
   \   00015E   EF           MOV     A,R7
   \   00015F   3400         ADDC    A,#0x0
   \   000161   F583         MOV     DPH,A
   \   000163   E0           MOVX    A,@DPTR
   \   000164   F5..         MOV     ?V0 + 2,A
   \   000166   78..         MOV     R0,#?V0 + 2
   \   000168   12....       LCALL   ?PUSH_XSTACK_I_ONE
   \   00016B   EE           MOV     A,R6
   \   00016C   240B         ADD     A,#0xb
   \   00016E   FC           MOV     R4,A
   \   00016F   EF           MOV     A,R7
   \   000170   3400         ADDC    A,#0x0
   \   000172   FD           MOV     R5,A
   \   000173   8E82         MOV     DPL,R6
   \   000175   8F83         MOV     DPH,R7
   \   000177   A3           INC     DPTR
   \   000178   A3           INC     DPTR
   \   000179   A3           INC     DPTR
   \   00017A   A3           INC     DPTR
   \   00017B   A3           INC     DPTR
   \   00017C   A3           INC     DPTR
   \   00017D   A3           INC     DPTR
   \   00017E   A3           INC     DPTR
   \   00017F   A3           INC     DPTR
   \   000180   E0           MOVX    A,@DPTR
   \   000181   FA           MOV     R2,A
   \   000182   A3           INC     DPTR
   \   000183   E0           MOVX    A,@DPTR
   \   000184   FB           MOV     R3,A
   \   000185   85..82       MOV     DPL,?V0 + 0
   \   000188   85..83       MOV     DPH,?V0 + 1
   \   00018B   E0           MOVX    A,@DPTR
   \   00018C   F9           MOV     R1,A
   \   00018D   12....       LCALL   ??APSME_UnBindRequest?relay
   \   000190   7401         MOV     A,#0x1
   \   000192   12....       LCALL   ?DEALLOC_XSTACK8
   \   000195   E9           MOV     A,R1
   \   000196   85..82       MOV     DPL,?XSP + 0
   \   000199   85..83       MOV     DPH,?XSP + 1
   \   00019C   7007         JNZ     ??ZDO_ProcessBindUnbindReq_8
    953                  {
    954                    bindStat = ZDP_SUCCESS;
   \   00019E   E4           CLR     A
   \   00019F   F0           MOVX    @DPTR,A
    955              
    956                    // Notify to save info into NV
    957                    ZDApp_NVUpdate();
   \   0001A0                ; Setup parameters for call to function ZDApp_NVUpdate
   \   0001A0   12....       LCALL   ??ZDApp_NVUpdate?relay
   \   0001A3   8003         SJMP    ??ZDO_ProcessBindUnbindReq_7
    958                  }
    959                  else
    960                    bindStat = ZDP_NO_ENTRY;
   \                     ??ZDO_ProcessBindUnbindReq_8:
   \   0001A5   7488         MOV     A,#-0x78
   \                     ??ZDO_ProcessBindUnbindReq_2:
   \   0001A7   F0           MOVX    @DPTR,A
    961                }
    962              }
    963            }
    964            
    965            // Send back a response message
    966            ZDP_SendData( &(inMsg->TransSeq), &(inMsg->srcAddr), 
    967                         (inMsg->clusterID | ZDO_RESPONSE_BIT), 1, &bindStat, 
    968                         inMsg->SecurityUse );
   \                     ??ZDO_ProcessBindUnbindReq_7:
   \   0001A8                ; Setup parameters for call to function ZDP_SendData
   \   0001A8   E5..         MOV     A,?V0 + 6
   \   0001AA   240E         ADD     A,#0xe
   \   0001AC   F582         MOV     DPL,A
   \   0001AE   E5..         MOV     A,?V0 + 7
   \   0001B0   3400         ADDC    A,#0x0
   \   0001B2   F583         MOV     DPH,A
   \   0001B4   E0           MOVX    A,@DPTR
   \   0001B5   F5..         MOV     ?V0 + 0,A
   \   0001B7   78..         MOV     R0,#?V0 + 0
   \   0001B9   12....       LCALL   ?PUSH_XSTACK_I_ONE
   \   0001BC   7401         MOV     A,#0x1
   \   0001BE   12....       LCALL   ?XSTACK_DISP0_8
   \   0001C1   8582..       MOV     ?V0 + 0,DPL
   \   0001C4   8583..       MOV     ?V0 + 1,DPH
   \   0001C7   78..         MOV     R0,#?V0 + 0
   \   0001C9   12....       LCALL   ?PUSH_XSTACK_I_TWO
   \   0001CC   E5..         MOV     A,?V0 + 6
   \   0001CE   240C         ADD     A,#0xc
   \   0001D0   F582         MOV     DPL,A
   \   0001D2   E5..         MOV     A,?V0 + 7
   \   0001D4   3400         ADDC    A,#0x0
   \   0001D6   F583         MOV     DPH,A
   \   0001D8   E0           MOVX    A,@DPTR
   \   0001D9   F5..         MOV     ?V0 + 0,A
   \   0001DB   A3           INC     DPTR
   \   0001DC   E0           MOVX    A,@DPTR
   \   0001DD   4480         ORL     A,#0x80
   \   0001DF   F5..         MOV     ?V0 + 1,A
   \   0001E1   78..         MOV     R0,#?V0 + 0
   \   0001E3   12....       LCALL   ?PUSH_XSTACK_I_TWO
   \   0001E6   7901         MOV     R1,#0x1
   \   0001E8   E5..         MOV     A,?V0 + 6
   \   0001EA   2402         ADD     A,#0x2
   \   0001EC   FC           MOV     R4,A
   \   0001ED   E5..         MOV     A,?V0 + 7
   \   0001EF   3400         ADDC    A,#0x0
   \   0001F1   FD           MOV     R5,A
   \   0001F2   E5..         MOV     A,?V0 + 6
   \   0001F4   240F         ADD     A,#0xf
   \   0001F6   FA           MOV     R2,A
   \   0001F7   E5..         MOV     A,?V0 + 7
   \   0001F9   3400         ADDC    A,#0x0
   \   0001FB   FB           MOV     R3,A
   \   0001FC   12....       LCALL   ??ZDP_SendData?relay
   \   0001FF   7405         MOV     A,#0x5
   \   000201   12....       LCALL   ?DEALLOC_XSTACK8
    969          }
   \   000204   740C         MOV     A,#0xc
   \   000206   12....       LCALL   ?DEALLOC_XSTACK8
   \   000209   7F08         MOV     R7,#0x8
   \   00020B   02....       LJMP    ?BANKED_LEAVE_XDATA
    970          
    971          /*********************************************************************
    972           * @fn      ZDO_UpdateAddrManager
    973           *
    974           * @brief   Update the Address Manager.
    975           *
    976           * @param   nwkAddr - network address
    977           * @param   extAddr - extended address
    978           *
    979           * @return  none
    980           */

   \                                 In  segment BANKED_CODE, align 1, keep-with-next
    981          void ZDO_UpdateAddrManager( uint16 nwkAddr, uint8 *extAddr )
   \                     ZDO_UpdateAddrManager:
    982          {
   \   000000   C082         PUSH    DPL
   \   000002   C083         PUSH    DPH
   \   000004                ; Saved register size: 2
   \   000004                ; Auto size: 13
   \   000004   74F3         MOV     A,#-0xd
   \   000006   12....       LCALL   ?ALLOC_XSTACK8
    983            AddrMgrEntry_t addrEntry;
    984          
    985            // Update the address manager
    986            addrEntry.user = ADDRMGR_USER_DEFAULT;
   \   000009   85..82       MOV     DPL,?XSP + 0
   \   00000C   85..83       MOV     DPH,?XSP + 1
   \   00000F   E4           CLR     A
   \   000010   F0           MOVX    @DPTR,A
    987            addrEntry.nwkAddr = nwkAddr;
   \   000011   04           INC     A
   \   000012   12....       LCALL   ?XSTACK_DISP0_8
   \   000015   EA           MOV     A,R2
   \   000016   F0           MOVX    @DPTR,A
   \   000017   A3           INC     DPTR
   \   000018   EB           MOV     A,R3
   \   000019   F0           MOVX    @DPTR,A
    988            AddrMgrExtAddrSet( addrEntry.extAddr, extAddr );
   \   00001A                ; Setup parameters for call to function AddrMgrExtAddrSet
   \   00001A   7403         MOV     A,#0x3
   \   00001C   12....       LCALL   ?XSTACK_DISP0_8
   \   00001F   AA82         MOV     R2,DPL
   \   000021   AB83         MOV     R3,DPH
   \   000023   12....       LCALL   ??AddrMgrExtAddrSet?relay
    989            AddrMgrEntryUpdate( &addrEntry );
   \   000026                ; Setup parameters for call to function AddrMgrEntryUpdate
   \   000026   85..82       MOV     DPL,?XSP + 0
   \   000029   85..83       MOV     DPH,?XSP + 1
   \   00002C   AA82         MOV     R2,DPL
   \   00002E   AB83         MOV     R3,DPH
   \   000030   12....       LCALL   ??AddrMgrEntryUpdate?relay
    990          }
   \   000033   740D         MOV     A,#0xd
   \   000035   12....       LCALL   ?DEALLOC_XSTACK8
   \   000038   D083         POP     DPH
   \   00003A   D082         POP     DPL
   \   00003C   02....       LJMP    ?BRET
    991          
    992          /*********************************************************************
    993           * @fn      ZDO_ProcessServerDiscReq
    994           *
    995           * @brief   Process the Server_Discovery_req message.
    996           *
    997           * @param   inMsg  - incoming message (request)
    998           *
    999           * @return  none
   1000           */

   \                                 In  segment BANKED_CODE, align 1, keep-with-next
   1001          void ZDO_ProcessServerDiscReq( zdoIncomingMsg_t *inMsg )
   \                     ZDO_ProcessServerDiscReq:
   1002          {
   \   000000   74F6         MOV     A,#-0xa
   \   000002   12....       LCALL   ?BANKED_ENTER_XDATA
   \   000005                ; Saved register size: 10
   \   000005                ; Auto size: 0
   \   000005   EA           MOV     A,R2
   \   000006   FE           MOV     R6,A
   \   000007   EB           MOV     A,R3
   \   000008   FF           MOV     R7,A
   1003            uint16 serverMask = BUILD_UINT16( inMsg->asdu[0], inMsg->asdu[1] );
   1004            uint16 matchMask = serverMask & ZDO_Config_Node_Descriptor.ServerMask;
   \   000009   EE           MOV     A,R6
   \   00000A   2413         ADD     A,#0x13
   \   00000C   F8           MOV     R0,A
   \   00000D   EF           MOV     A,R7
   \   00000E   3400         ADDC    A,#0x0
   \   000010   F9           MOV     R1,A
   \   000011   8882         MOV     DPL,R0
   \   000013   8983         MOV     DPH,R1
   \   000015   E0           MOVX    A,@DPTR
   \   000016   FA           MOV     R2,A
   \   000017   A3           INC     DPTR
   \   000018   E0           MOVX    A,@DPTR
   \   000019   F583         MOV     DPH,A
   \   00001B   8A82         MOV     DPL,R2
   \   00001D   E0           MOVX    A,@DPTR
   \   00001E   FA           MOV     R2,A
   \   00001F   8882         MOV     DPL,R0
   \   000021   8983         MOV     DPH,R1
   \   000023   E0           MOVX    A,@DPTR
   \   000024   F8           MOV     R0,A
   \   000025   A3           INC     DPTR
   \   000026   E0           MOVX    A,@DPTR
   \   000027   F583         MOV     DPH,A
   \   000029   8882         MOV     DPL,R0
   \   00002B   A3           INC     DPTR
   \   00002C   E0           MOVX    A,@DPTR
   \   00002D   F9           MOV     R1,A
   \   00002E   EA           MOV     A,R2
   \   00002F   F8           MOV     R0,A
   \   000030   90....       MOV     DPTR,#ZDO_Config_Node_Descriptor + 8
   \   000033   E0           MOVX    A,@DPTR
   \   000034   58           ANL     A,R0
   \   000035   F5..         MOV     ?V0 + 0,A
   \   000037   A3           INC     DPTR
   \   000038   E0           MOVX    A,@DPTR
   \   000039   59           ANL     A,R1
   \   00003A   F5..         MOV     ?V0 + 1,A
   1005          
   1006            if ( matchMask )
   \   00003C   E5..         MOV     A,?V0 + 0
   \   00003E   45..         ORL     A,?V0 + 1
   \   000040   6035         JZ      ??ZDO_ProcessServerDiscReq_0
   1007            {
   1008              ZDP_ServerDiscRsp( inMsg->TransSeq, &(inMsg->srcAddr), ZSUCCESS, 
   1009                          ZDAppNwkAddr.addr.shortAddr, matchMask, inMsg->SecurityUse );
   \   000042                ; Setup parameters for call to function ZDP_ServerDiscRsp
   \   000042   78..         MOV     R0,#?V0 + 0
   \   000044   12....       LCALL   ?PUSH_XSTACK_I_TWO
   \   000047   90....       MOV     DPTR,#ZDAppNwkAddr
   \   00004A   12....       LCALL   ?PUSH_XSTACK8_X_TWO
   \   00004D   EE           MOV     A,R6
   \   00004E   240E         ADD     A,#0xe
   \   000050   F582         MOV     DPL,A
   \   000052   EF           MOV     A,R7
   \   000053   3400         ADDC    A,#0x0
   \   000055   F583         MOV     DPH,A
   \   000057   E0           MOVX    A,@DPTR
   \   000058   FD           MOV     R5,A
   \   000059   7C00         MOV     R4,#0x0
   \   00005B   EE           MOV     A,R6
   \   00005C   2402         ADD     A,#0x2
   \   00005E   FA           MOV     R2,A
   \   00005F   EF           MOV     A,R7
   \   000060   3400         ADDC    A,#0x0
   \   000062   FB           MOV     R3,A
   \   000063   EE           MOV     A,R6
   \   000064   240F         ADD     A,#0xf
   \   000066   F582         MOV     DPL,A
   \   000068   EF           MOV     A,R7
   \   000069   3400         ADDC    A,#0x0
   \   00006B   F583         MOV     DPH,A
   \   00006D   E0           MOVX    A,@DPTR
   \   00006E   F9           MOV     R1,A
   \   00006F   12....       LCALL   ??ZDP_ServerDiscRsp?relay
   \   000072   7404         MOV     A,#0x4
   \   000074   12....       LCALL   ?DEALLOC_XSTACK8
   1010            }
   1011          }
   \                     ??ZDO_ProcessServerDiscReq_0:
   \   000077   7F02         MOV     R7,#0x2
   \   000079   02....       LJMP    ?BANKED_LEAVE_XDATA
   1012          
   1013          /*********************************************************************
   1014           * Call Back Functions from APS  - API
   1015           */
   1016          
   1017          /*********************************************************************
   1018           * @fn          ZDO_EndDeviceTimeoutCB
   1019           *
   1020           * @brief       This function handles the binding timer for the End
   1021           *              Device Bind command.
   1022           *
   1023           * @param       none
   1024           *
   1025           * @return      none
   1026           */

   \                                 In  segment BANKED_CODE, align 1, keep-with-next
   1027          void ZDO_EndDeviceTimeoutCB( void )
   \                     ZDO_EndDeviceTimeoutCB:
   1028          {
   \   000000   C082         PUSH    DPL
   \   000002   C083         PUSH    DPH
   \   000004                ; Saved register size: 2
   \   000004                ; Auto size: 0
   1029          #if defined ( REFLECTOR )
   1030            byte stat;
   1031            if ( ZDO_EDBind )
   \   000004   90....       MOV     DPTR,#ZDO_EDBind
   \   000007   E0           MOVX    A,@DPTR
   \   000008   F8           MOV     R0,A
   \   000009   A3           INC     DPTR
   \   00000A   E0           MOVX    A,@DPTR
   \   00000B   F9           MOV     R1,A
   \   00000C   E8           MOV     A,R0
   \   00000D   49           ORL     A,R1
   \   00000E   6043         JZ      ??ZDO_EndDeviceTimeoutCB_0
   1032            {
   1033              stat = ZDO_EDBind->status;
   1034          
   1035              // Send the response message to the first sent
   1036              ZDO_SendEDBindRsp( ZDO_EDBind->SrcTransSeq, &(ZDO_EDBind->SrcAddr),
   1037                                  stat, ZDO_EDBind->SecurityUse );
   \   000010                ; Setup parameters for call to function ZDO_SendEDBindRsp
   \   000010   90....       MOV     DPTR,#ZDO_EDBind
   \   000013   E0           MOVX    A,@DPTR
   \   000014   2415         ADD     A,#0x15
   \   000016   F8           MOV     R0,A
   \   000017   A3           INC     DPTR
   \   000018   E0           MOVX    A,@DPTR
   \   000019   3400         ADDC    A,#0x0
   \   00001B   F9           MOV     R1,A
   \   00001C   8882         MOV     DPL,R0
   \   00001E   8983         MOV     DPH,R1
   \   000020   E0           MOVX    A,@DPTR
   \   000021   FD           MOV     R5,A
   \   000022   90....       MOV     DPTR,#ZDO_EDBind
   \   000025   E0           MOVX    A,@DPTR
   \   000026   2416         ADD     A,#0x16
   \   000028   F8           MOV     R0,A
   \   000029   A3           INC     DPTR
   \   00002A   E0           MOVX    A,@DPTR
   \   00002B   3400         ADDC    A,#0x0
   \   00002D   F9           MOV     R1,A
   \   00002E   8882         MOV     DPL,R0
   \   000030   8983         MOV     DPH,R1
   \   000032   E0           MOVX    A,@DPTR
   \   000033   FC           MOV     R4,A
   \   000034   90....       MOV     DPTR,#ZDO_EDBind
   \   000037   E0           MOVX    A,@DPTR
   \   000038   2401         ADD     A,#0x1
   \   00003A   FA           MOV     R2,A
   \   00003B   A3           INC     DPTR
   \   00003C   E0           MOVX    A,@DPTR
   \   00003D   3400         ADDC    A,#0x0
   \   00003F   FB           MOV     R3,A
   \   000040   90....       MOV     DPTR,#ZDO_EDBind
   \   000043   E0           MOVX    A,@DPTR
   \   000044   F8           MOV     R0,A
   \   000045   A3           INC     DPTR
   \   000046   E0           MOVX    A,@DPTR
   \   000047   F583         MOV     DPH,A
   \   000049   8882         MOV     DPL,R0
   \   00004B   E0           MOVX    A,@DPTR
   \   00004C   F9           MOV     R1,A
   \   00004D   12....       LCALL   ??ZDO_SendEDBindRsp?relay
   1038          
   1039              ZDO_RemoveEndDeviceBind();
   \   000050                ; Setup parameters for call to function ZDO_RemoveEndDeviceBind
   \   000050   12....       LCALL   ??ZDO_RemoveEndDeviceBind?relay
   1040            }
   1041          #endif  // REFLECTOR
   1042          }
   \                     ??ZDO_EndDeviceTimeoutCB_0:
   \   000053   D083         POP     DPH
   \   000055   D082         POP     DPL
   \   000057   02....       LJMP    ?BRET
   1043          
   1044          /*********************************************************************
   1045           * Optional Management Messages
   1046           */
   1047          
   1048          /*********************************************************************
   1049           * @fn          ZDO_ProcessMgmtLqiReq
   1050           *
   1051           * @brief       This function handles parsing the incoming Management
   1052           *              LQI request and generate the response.
   1053           *
   1054           *   Note:      This function will limit the number of items returned
   1055           *              to ZDO_MAX_LQI_ITEMS items.
   1056           *
   1057           * @param       inMsg - incoming message (request)
   1058           *
   1059           * @return      none
   1060           */

   \                                 In  segment BANKED_CODE, align 1, keep-with-next
   1061          void ZDO_ProcessMgmtLqiReq( zdoIncomingMsg_t *inMsg )
   \                     ZDO_ProcessMgmtLqiReq:
   1062          {
   \   000000   74F0         MOV     A,#-0x10
   \   000002   12....       LCALL   ?BANKED_ENTER_XDATA
   \   000005                ; Saved register size: 16
   \   000005                ; Auto size: 43
   \   000005   74D5         MOV     A,#-0x2b
   \   000007   12....       LCALL   ?ALLOC_XSTACK8
   \   00000A   7405         MOV     A,#0x5
   \   00000C   12....       LCALL   ?XSTACK_DISP0_8
   \   00000F   EA           MOV     A,R2
   \   000010   F0           MOVX    @DPTR,A
   \   000011   A3           INC     DPTR
   \   000012   EB           MOV     A,R3
   \   000013   F0           MOVX    @DPTR,A
   1063            byte x;
   1064            byte index;
   1065            byte numItems;
   1066            byte maxItems;
   1067            ZDP_MgmtLqiItem_t* table = NULL;
   \   000014   7401         MOV     A,#0x1
   \   000016   12....       LCALL   ?XSTACK_DISP0_8
   \   000019   E4           CLR     A
   \   00001A   F0           MOVX    @DPTR,A
   \   00001B   A3           INC     DPTR
   \   00001C   F0           MOVX    @DPTR,A
   1068            ZDP_MgmtLqiItem_t* item;
   1069            neighborEntry_t    entry;
   1070            byte aItems;
   1071            associated_devices_t *aDevice;
   1072            AddrMgrEntry_t  nwkEntry;
   1073            uint8 StartIndex = inMsg->asdu[0];
   \   00001D   7405         MOV     A,#0x5
   \   00001F   12....       LCALL   ?XSTACK_DISP0_8
   \   000022   E0           MOVX    A,@DPTR
   \   000023   2413         ADD     A,#0x13
   \   000025   F8           MOV     R0,A
   \   000026   A3           INC     DPTR
   \   000027   E0           MOVX    A,@DPTR
   \   000028   3400         ADDC    A,#0x0
   \   00002A   F9           MOV     R1,A
   \   00002B   8882         MOV     DPL,R0
   \   00002D   8983         MOV     DPH,R1
   \   00002F   E0           MOVX    A,@DPTR
   \   000030   F8           MOV     R0,A
   \   000031   A3           INC     DPTR
   \   000032   E0           MOVX    A,@DPTR
   \   000033   F583         MOV     DPH,A
   \   000035   8882         MOV     DPL,R0
   \   000037   E0           MOVX    A,@DPTR
   \   000038   F5..         MOV     ?V0 + 5,A
   1074          
   1075            // Get the number of neighbor items
   1076            NLME_GetRequest( nwkNumNeighborTableEntries, 0, &maxItems );
   \   00003A                ; Setup parameters for call to function NLME_GetRequest
   \   00003A   85..82       MOV     DPL,?XSP + 0
   \   00003D   85..83       MOV     DPH,?XSP + 1
   \   000040   AC82         MOV     R4,DPL
   \   000042   AD83         MOV     R5,DPH
   \   000044   7A00         MOV     R2,#0x0
   \   000046   7B00         MOV     R3,#0x0
   \   000048   799C         MOV     R1,#-0x64
   \   00004A   12....       LCALL   ??NLME_GetRequest?relay
   1077          
   1078            // Get the number of associated items
   1079            aItems = (uint8)AssocCount( PARENT, CHILD_FFD_RX_IDLE );
   \   00004D                ; Setup parameters for call to function AssocCount
   \   00004D   7A04         MOV     R2,#0x4
   \   00004F   7900         MOV     R1,#0x0
   \   000051   12....       LCALL   ??AssocCount?relay
   \   000054   EA           MOV     A,R2
   \   000055   F5..         MOV     ?V0 + 2,A
   1080          
   1081            // Total number of items
   1082            maxItems += aItems;
   \   000057   85..82       MOV     DPL,?XSP + 0
   \   00005A   85..83       MOV     DPH,?XSP + 1
   \   00005D   E0           MOVX    A,@DPTR
   \   00005E   25..         ADD     A,?V0 + 2
   \   000060   F0           MOVX    @DPTR,A
   1083          
   1084            // Start with the supplied index
   1085            if ( maxItems > StartIndex )
   \   000061   E0           MOVX    A,@DPTR
   \   000062   F8           MOV     R0,A
   \   000063   E5..         MOV     A,?V0 + 5
   \   000065   C3           CLR     C
   \   000066   98           SUBB    A,R0
   \   000067   4003         JC      $+5
   \   000069   02....       LJMP    ??ZDO_ProcessMgmtLqiReq_0 & 0xFFFF
   1086            {
   1087              numItems = maxItems - StartIndex;
   \   00006C   E0           MOVX    A,@DPTR
   \   00006D   C3           CLR     C
   \   00006E   95..         SUBB    A,?V0 + 5
   \   000070   F5..         MOV     ?V0 + 1,A
   1088          
   1089              // limit the size of the list
   1090              if ( numItems > ZDO_MAX_LQI_ITEMS )
   \   000072   C3           CLR     C
   \   000073   9404         SUBB    A,#0x4
   \   000075   4003         JC      ??ZDO_ProcessMgmtLqiReq_1
   1091                numItems = ZDO_MAX_LQI_ITEMS;
   \   000077   75..03       MOV     ?V0 + 1,#0x3
   1092            
   1093              // Allocate the memory to build the table
   1094              table = (ZDP_MgmtLqiItem_t*)osal_mem_alloc( (short)
   1095                        ( numItems * sizeof( ZDP_MgmtLqiItem_t ) ) );
   \                     ??ZDO_ProcessMgmtLqiReq_1:
   \   00007A                ; Setup parameters for call to function osal_mem_alloc
   \   00007A   E5..         MOV     A,?V0 + 1
   \   00007C   75F01A       MOV     B,#0x1a
   \   00007F   A4           MUL     AB
   \   000080   FA           MOV     R2,A
   \   000081   ABF0         MOV     R3,B
   \   000083   12....       LCALL   ??osal_mem_alloc?relay
   \   000086   7401         MOV     A,#0x1
   \   000088   12....       LCALL   ?XSTACK_DISP0_8
   \   00008B   EA           MOV     A,R2
   \   00008C   F0           MOVX    @DPTR,A
   \   00008D   A3           INC     DPTR
   \   00008E   EB           MOV     A,R3
   \   00008F   F0           MOVX    @DPTR,A
   1096            
   1097              if ( table != NULL )
   \   000090   7401         MOV     A,#0x1
   \   000092   12....       LCALL   ?XSTACK_DISP0_8
   \   000095   E0           MOVX    A,@DPTR
   \   000096   F8           MOV     R0,A
   \   000097   A3           INC     DPTR
   \   000098   E0           MOVX    A,@DPTR
   \   000099   F9           MOV     R1,A
   \   00009A   E8           MOV     A,R0
   \   00009B   49           ORL     A,R1
   \   00009C   7003         JNZ     $+5
   \   00009E   02....       LJMP    ??ZDO_ProcessMgmtLqiReq_2 & 0xFFFF
   1098              {
   1099                x = 0;
   \   0000A1   75..00       MOV     ?V0 + 4,#0x0
   1100                item = table;
   \   0000A4   7401         MOV     A,#0x1
   \   0000A6   12....       LCALL   ?XSTACK_DISP0_8
   \   0000A9   E0           MOVX    A,@DPTR
   \   0000AA   FE           MOV     R6,A
   \   0000AB   A3           INC     DPTR
   \   0000AC   E0           MOVX    A,@DPTR
   \   0000AD   FF           MOV     R7,A
   1101                index = StartIndex;
   \   0000AE   85....       MOV     ?V0 + 0,?V0 + 5
   \   0000B1   02....       LJMP    ??ZDO_ProcessMgmtLqiReq_3 & 0xFFFF
   1102            
   1103                // Loop through associated items and build list
   1104                for ( ; x < numItems; x++ )
   1105                {
   1106                  if ( index < aItems )
   1107                  {
   1108                    // get next associated device
   1109                    aDevice = AssocFindDevice( index++ );
   1110            
   1111                    // set basic fields
   1112                    item->panID   = _NIB.nwkPanId;
   1113                    osal_cpyExtAddr( item->extPanID, _NIB.extendedPANID );
   1114                    item->nwkAddr = aDevice->shortAddr;
   1115                    item->permit  = ZDP_MGMT_BOOL_UNKNOWN;
   1116                    item->depth   = 0xFF;
   1117                    item->lqi     = aDevice->linkInfo.rxLqi;
   1118                    
   1119                    // set extented address
   1120                    nwkEntry.user    = ADDRMGR_USER_DEFAULT;
   1121                    nwkEntry.nwkAddr = aDevice->shortAddr;    
   1122                    
   1123                    if ( AddrMgrEntryLookupNwk( &nwkEntry ) == TRUE )
   1124                    {
   1125                      osal_cpyExtAddr( item->extAddr, nwkEntry.extAddr );
   1126                    }
   1127                    else
   1128                    {
   1129                      osal_memset( item->extAddr, 0xFF, Z_EXTADDR_LEN );
   \                     ??ZDO_ProcessMgmtLqiReq_4:
   \   0000B4                ; Setup parameters for call to function osal_memset
   \   0000B4   7C08         MOV     R4,#0x8
   \   0000B6   7D00         MOV     R5,#0x0
   \   0000B8   79FF         MOV     R1,#-0x1
   \   0000BA   EE           MOV     A,R6
   \   0000BB   240A         ADD     A,#0xa
   \   0000BD   FA           MOV     R2,A
   \   0000BE   EF           MOV     A,R7
   \   0000BF   3400         ADDC    A,#0x0
   \   0000C1   FB           MOV     R3,A
   \   0000C2   12....       LCALL   ??osal_memset?relay
   1130                    }
   1131            
   1132                    // use association info to set other fields
   1133                    if ( aDevice->nodeRelation == PARENT )
   \                     ??ZDO_ProcessMgmtLqiReq_5:
   \   0000C5   EE           MOV     A,R6
   \   0000C6   2414         ADD     A,#0x14
   \   0000C8   FA           MOV     R2,A
   \   0000C9   EF           MOV     A,R7
   \   0000CA   3400         ADDC    A,#0x0
   \   0000CC   FB           MOV     R3,A
   \   0000CD   7403         MOV     A,#0x3
   \   0000CF   12....       LCALL   ?XSTACK_DISP0_8
   \   0000D2   E0           MOVX    A,@DPTR
   \   0000D3   2404         ADD     A,#0x4
   \   0000D5   F8           MOV     R0,A
   \   0000D6   A3           INC     DPTR
   \   0000D7   E0           MOVX    A,@DPTR
   \   0000D8   3400         ADDC    A,#0x0
   \   0000DA   F9           MOV     R1,A
   \   0000DB   8882         MOV     DPL,R0
   \   0000DD   8983         MOV     DPH,R1
   \   0000DF   E0           MOVX    A,@DPTR
   \   0000E0   7047         JNZ     ??ZDO_ProcessMgmtLqiReq_6
   1134                    {
   1135                      if (  aDevice->shortAddr == 0 )
   \   0000E2   7403         MOV     A,#0x3
   \   0000E4   12....       LCALL   ?XSTACK_DISP0_8
   \   0000E7   E0           MOVX    A,@DPTR
   \   0000E8   F8           MOV     R0,A
   \   0000E9   A3           INC     DPTR
   \   0000EA   E0           MOVX    A,@DPTR
   \   0000EB   F583         MOV     DPH,A
   \   0000ED   8882         MOV     DPL,R0
   \   0000EF   E0           MOVX    A,@DPTR
   \   0000F0   F8           MOV     R0,A
   \   0000F1   A3           INC     DPTR
   \   0000F2   E0           MOVX    A,@DPTR
   \   0000F3   F9           MOV     R1,A
   \   0000F4   E8           MOV     A,R0
   \   0000F5   49           ORL     A,R1
   \   0000F6   8A82         MOV     DPL,R2
   \   0000F8   8B83         MOV     DPH,R3
   \   0000FA   7004         JNZ     ??ZDO_ProcessMgmtLqiReq_7
   1136                      {
   1137                        item->devType = ZDP_MGMT_DT_COORD;
   \   0000FC   E4           CLR     A
   \   0000FD   F0           MOVX    @DPTR,A
   1138                        item->depth = 0;
   \   0000FE   8008         SJMP    ??ZDO_ProcessMgmtLqiReq_8
   1139                      }
   1140                      else
   1141                      {
   1142                        item->devType = ZDP_MGMT_DT_ROUTER;
   \                     ??ZDO_ProcessMgmtLqiReq_7:
   \   000100   7401         MOV     A,#0x1
   \   000102   F0           MOVX    @DPTR,A
   1143                        item->depth = _NIB.nodeDepth - 1;
   \   000103   90....       MOV     DPTR,#_NIB + 52
   \   000106   E0           MOVX    A,@DPTR
   \   000107   14           DEC     A
   \                     ??ZDO_ProcessMgmtLqiReq_8:
   \   000108   85..82       MOV     DPL,?V0 + 6
   \   00010B   85..83       MOV     DPH,?V0 + 7
   \   00010E   F0           MOVX    @DPTR,A
   1144                      }
   1145            
   1146                      item->rxOnIdle = ZDP_MGMT_BOOL_UNKNOWN;
   \   00010F   EE           MOV     A,R6
   \   000110   2415         ADD     A,#0x15
   \   000112   F582         MOV     DPL,A
   \   000114   EF           MOV     A,R7
   \   000115   3400         ADDC    A,#0x0
   \   000117   F583         MOV     DPH,A
   \   000119   7402         MOV     A,#0x2
   \   00011B   F0           MOVX    @DPTR,A
   1147                      item->relation = ZDP_MGMT_REL_PARENT;
   \   00011C   EE           MOV     A,R6
   \   00011D   2416         ADD     A,#0x16
   \   00011F   F582         MOV     DPL,A
   \   000121   EF           MOV     A,R7
   \   000122   3400         ADDC    A,#0x0
   \   000124   F583         MOV     DPH,A
   \   000126   E4           CLR     A
   \   000127   8044         SJMP    ??ZDO_ProcessMgmtLqiReq_9
   1148                    }
   1149                    else
   1150                    {
   1151                      // If not parent, then it's a child
   1152                      item->depth = _NIB.nodeDepth + 1;
   \                     ??ZDO_ProcessMgmtLqiReq_6:
   \   000129   90....       MOV     DPTR,#_NIB + 52
   \   00012C   E0           MOVX    A,@DPTR
   \   00012D   04           INC     A
   \   00012E   85..82       MOV     DPL,?V0 + 6
   \   000131   85..83       MOV     DPH,?V0 + 7
   \   000134   F0           MOVX    @DPTR,A
   1153                      
   1154                      if ( aDevice->nodeRelation < CHILD_FFD )
   \   000135   8882         MOV     DPL,R0
   \   000137   8983         MOV     DPH,R1
   \   000139   E0           MOVX    A,@DPTR
   \   00013A   C3           CLR     C
   \   00013B   9403         SUBB    A,#0x3
   \   00013D   8A82         MOV     DPL,R2
   \   00013F   8B83         MOV     DPH,R3
   \   000141   4003         JC      $+5
   \   000143   02....       LJMP    ??ZDO_ProcessMgmtLqiReq_10 & 0xFFFF
   1155                      {
   1156                        item->devType = ZDP_MGMT_DT_ENDDEV;
   \   000146   7402         MOV     A,#0x2
   \   000148   F0           MOVX    @DPTR,A
   1157                       
   1158                        if ( aDevice->nodeRelation == CHILD_RFD )
   \   000149   8882         MOV     DPL,R0
   \   00014B   8983         MOV     DPH,R1
   \   00014D   E0           MOVX    A,@DPTR
   \   00014E   6401         XRL     A,#0x1
   \   000150   6003         JZ      $+5
   \   000152   02....       LJMP    ??ZDO_ProcessMgmtLqiReq_11 & 0xFFFF
   1159                        {
   1160                          item->rxOnIdle = FALSE;
   \                     ??ZDO_ProcessMgmtLqiReq_12:
   \   000155   EE           MOV     A,R6
   \   000156   2415         ADD     A,#0x15
   \   000158   F582         MOV     DPL,A
   \   00015A   EF           MOV     A,R7
   \   00015B   3400         ADDC    A,#0x0
   \   00015D   F583         MOV     DPH,A
   \   00015F   E4           CLR     A
   \                     ??ZDO_ProcessMgmtLqiReq_13:
   \   000160   F0           MOVX    @DPTR,A
   1161                        }
   1162                        else
   1163                        {
   1164                          item->rxOnIdle = TRUE;
   1165                        }
   1166                      }
   1167                      else
   1168                      {
   1169                        item->devType = ZDP_MGMT_DT_ROUTER;
   1170            
   1171                        if ( aDevice->nodeRelation == CHILD_FFD )
   1172                        {
   1173                          item->rxOnIdle = FALSE;
   1174                        }
   1175                        else
   1176                        {
   1177                          item->rxOnIdle = TRUE;
   1178                        }
   1179                      }
   1180            
   1181                      item->relation = ZDP_MGMT_REL_CHILD;
   \   000161   EE           MOV     A,R6
   \   000162   2416         ADD     A,#0x16
   \   000164   F582         MOV     DPL,A
   \   000166   EF           MOV     A,R7
   \   000167   3400         ADDC    A,#0x0
   \   000169   F583         MOV     DPH,A
   \   00016B   7401         MOV     A,#0x1
   \                     ??ZDO_ProcessMgmtLqiReq_9:
   \   00016D   F0           MOVX    @DPTR,A
   1182                    }
   1183            
   1184                    item++;
   \   00016E   EE           MOV     A,R6
   \   00016F   241A         ADD     A,#0x1a
   \   000171   FE           MOV     R6,A
   \   000172   EF           MOV     A,R7
   \   000173   3400         ADDC    A,#0x0
   \   000175   FF           MOV     R7,A
   \   000176   05..         INC     ?V0 + 4
   \                     ??ZDO_ProcessMgmtLqiReq_3:
   \   000178   E5..         MOV     A,?V0 + 4
   \   00017A   C3           CLR     C
   \   00017B   95..         SUBB    A,?V0 + 1
   \   00017D   4003         JC      $+5
   \   00017F   02....       LJMP    ??ZDO_ProcessMgmtLqiReq_14 & 0xFFFF
   \   000182   E5..         MOV     A,?V0 + 0
   \   000184   C3           CLR     C
   \   000185   95..         SUBB    A,?V0 + 2
   \   000187   4003         JC      $+5
   \   000189   02....       LJMP    ??ZDO_ProcessMgmtLqiReq_15 & 0xFFFF
   \   00018C                ; Setup parameters for call to function AssocFindDevice
   \   00018C   A9..         MOV     R1,?V0 + 0
   \   00018E   12....       LCALL   ??AssocFindDevice?relay
   \   000191   7403         MOV     A,#0x3
   \   000193   12....       LCALL   ?XSTACK_DISP0_8
   \   000196   EA           MOV     A,R2
   \   000197   F0           MOVX    @DPTR,A
   \   000198   A3           INC     DPTR
   \   000199   EB           MOV     A,R3
   \   00019A   F0           MOVX    @DPTR,A
   \   00019B   05..         INC     ?V0 + 0
   \   00019D   90....       MOV     DPTR,#_NIB + 33
   \   0001A0   E0           MOVX    A,@DPTR
   \   0001A1   F8           MOV     R0,A
   \   0001A2   A3           INC     DPTR
   \   0001A3   E0           MOVX    A,@DPTR
   \   0001A4   F9           MOV     R1,A
   \   0001A5   8E82         MOV     DPL,R6
   \   0001A7   8F83         MOV     DPH,R7
   \   0001A9   E8           MOV     A,R0
   \   0001AA   F0           MOVX    @DPTR,A
   \   0001AB   A3           INC     DPTR
   \   0001AC   E9           MOV     A,R1
   \   0001AD   F0           MOVX    @DPTR,A
   \   0001AE                ; Setup parameters for call to function sAddrExtCpy
   \   0001AE   7C..         MOV     R4,#(_NIB + 53) & 0xff
   \   0001B0   7D..         MOV     R5,#((_NIB + 53) >> 8) & 0xff
   \   0001B2   EE           MOV     A,R6
   \   0001B3   2402         ADD     A,#0x2
   \   0001B5   FA           MOV     R2,A
   \   0001B6   EF           MOV     A,R7
   \   0001B7   3400         ADDC    A,#0x0
   \   0001B9   FB           MOV     R3,A
   \   0001BA   12....       LCALL   ??sAddrExtCpy?relay
   \   0001BD   7403         MOV     A,#0x3
   \   0001BF   12....       LCALL   ?XSTACK_DISP0_8
   \   0001C2   E0           MOVX    A,@DPTR
   \   0001C3   F8           MOV     R0,A
   \   0001C4   A3           INC     DPTR
   \   0001C5   E0           MOVX    A,@DPTR
   \   0001C6   F583         MOV     DPH,A
   \   0001C8   8882         MOV     DPL,R0
   \   0001CA   E0           MOVX    A,@DPTR
   \   0001CB   F8           MOV     R0,A
   \   0001CC   A3           INC     DPTR
   \   0001CD   E0           MOVX    A,@DPTR
   \   0001CE   F9           MOV     R1,A
   \   0001CF   EE           MOV     A,R6
   \   0001D0   2412         ADD     A,#0x12
   \   0001D2   F582         MOV     DPL,A
   \   0001D4   EF           MOV     A,R7
   \   0001D5   3400         ADDC    A,#0x0
   \   0001D7   F583         MOV     DPH,A
   \   0001D9   E8           MOV     A,R0
   \   0001DA   F0           MOVX    @DPTR,A
   \   0001DB   A3           INC     DPTR
   \   0001DC   E9           MOV     A,R1
   \   0001DD   F0           MOVX    @DPTR,A
   \   0001DE   EE           MOV     A,R6
   \   0001DF   2417         ADD     A,#0x17
   \   0001E1   F582         MOV     DPL,A
   \   0001E3   EF           MOV     A,R7
   \   0001E4   3400         ADDC    A,#0x0
   \   0001E6   F583         MOV     DPH,A
   \   0001E8   7402         MOV     A,#0x2
   \   0001EA   F0           MOVX    @DPTR,A
   \   0001EB   EE           MOV     A,R6
   \   0001EC   2418         ADD     A,#0x18
   \   0001EE   F5..         MOV     ?V0 + 6,A
   \   0001F0   EF           MOV     A,R7
   \   0001F1   3400         ADDC    A,#0x0
   \   0001F3   F5..         MOV     ?V0 + 7,A
   \   0001F5   85..82       MOV     DPL,?V0 + 6
   \   0001F8   F583         MOV     DPH,A
   \   0001FA   74FF         MOV     A,#-0x1
   \   0001FC   F0           MOVX    @DPTR,A
   \   0001FD   7403         MOV     A,#0x3
   \   0001FF   12....       LCALL   ?XSTACK_DISP0_8
   \   000202   E0           MOVX    A,@DPTR
   \   000203   F8           MOV     R0,A
   \   000204   A3           INC     DPTR
   \   000205   E0           MOVX    A,@DPTR
   \   000206   F583         MOV     DPH,A
   \   000208   8882         MOV     DPL,R0
   \   00020A   A3           INC     DPTR
   \   00020B   A3           INC     DPTR
   \   00020C   A3           INC     DPTR
   \   00020D   A3           INC     DPTR
   \   00020E   A3           INC     DPTR
   \   00020F   A3           INC     DPTR
   \   000210   A3           INC     DPTR
   \   000211   A3           INC     DPTR
   \   000212   A3           INC     DPTR
   \   000213   A3           INC     DPTR
   \   000214   E0           MOVX    A,@DPTR
   \   000215   C0E0         PUSH    A
   \   000217   EE           MOV     A,R6
   \   000218   2419         ADD     A,#0x19
   \   00021A   F582         MOV     DPL,A
   \   00021C   EF           MOV     A,R7
   \   00021D   3400         ADDC    A,#0x0
   \   00021F   F583         MOV     DPH,A
   \   000221   D0E0         POP     A
   \   000223   F0           MOVX    @DPTR,A
   \   000224   7407         MOV     A,#0x7
   \   000226   12....       LCALL   ?XSTACK_DISP0_8
   \   000229   E4           CLR     A
   \   00022A   F0           MOVX    @DPTR,A
   \   00022B   7403         MOV     A,#0x3
   \   00022D   12....       LCALL   ?XSTACK_DISP0_8
   \   000230   E0           MOVX    A,@DPTR
   \   000231   F8           MOV     R0,A
   \   000232   A3           INC     DPTR
   \   000233   E0           MOVX    A,@DPTR
   \   000234   F583         MOV     DPH,A
   \   000236   8882         MOV     DPL,R0
   \   000238   E0           MOVX    A,@DPTR
   \   000239   F8           MOV     R0,A
   \   00023A   A3           INC     DPTR
   \   00023B   E0           MOVX    A,@DPTR
   \   00023C   F9           MOV     R1,A
   \   00023D   7408         MOV     A,#0x8
   \   00023F   12....       LCALL   ?XSTACK_DISP0_8
   \   000242   E8           MOV     A,R0
   \   000243   F0           MOVX    @DPTR,A
   \   000244   A3           INC     DPTR
   \   000245   E9           MOV     A,R1
   \   000246   F0           MOVX    @DPTR,A
   \   000247                ; Setup parameters for call to function AddrMgrEntryLookupNwk
   \   000247   7407         MOV     A,#0x7
   \   000249   12....       LCALL   ?XSTACK_DISP0_8
   \   00024C   AA82         MOV     R2,DPL
   \   00024E   AB83         MOV     R3,DPH
   \   000250   12....       LCALL   ??AddrMgrEntryLookupNwk?relay
   \   000253   E9           MOV     A,R1
   \   000254   6401         XRL     A,#0x1
   \   000256   6003         JZ      $+5
   \   000258   02....       LJMP    ??ZDO_ProcessMgmtLqiReq_4 & 0xFFFF
   \   00025B                ; Setup parameters for call to function sAddrExtCpy
   \   00025B   740A         MOV     A,#0xa
   \   00025D   12....       LCALL   ?XSTACK_DISP0_8
   \   000260   AC82         MOV     R4,DPL
   \   000262   AD83         MOV     R5,DPH
   \   000264   EE           MOV     A,R6
   \   000265   240A         ADD     A,#0xa
   \   000267   FA           MOV     R2,A
   \   000268   EF           MOV     A,R7
   \   000269   3400         ADDC    A,#0x0
   \   00026B   FB           MOV     R3,A
   \   00026C   12....       LCALL   ??sAddrExtCpy?relay
   \   00026F   02....       LJMP    ??ZDO_ProcessMgmtLqiReq_5 & 0xFFFF
   \                     ??ZDO_ProcessMgmtLqiReq_10:
   \   000272   7401         MOV     A,#0x1
   \   000274   F0           MOVX    @DPTR,A
   \   000275   8882         MOV     DPL,R0
   \   000277   8983         MOV     DPH,R1
   \   000279   E0           MOVX    A,@DPTR
   \   00027A   6403         XRL     A,#0x3
   \   00027C   7003         JNZ     $+5
   \   00027E   02....       LJMP    ??ZDO_ProcessMgmtLqiReq_12 & 0xFFFF
   \                     ??ZDO_ProcessMgmtLqiReq_11:
   \   000281   EE           MOV     A,R6
   \   000282   2415         ADD     A,#0x15
   \   000284   F582         MOV     DPL,A
   \   000286   EF           MOV     A,R7
   \   000287   3400         ADDC    A,#0x0
   \   000289   F583         MOV     DPH,A
   \   00028B   7401         MOV     A,#0x1
   \   00028D   02....       LJMP    ??ZDO_ProcessMgmtLqiReq_13 & 0xFFFF
   1185                  }
   1186                  else
   1187                  {
   1188                    if ( StartIndex <= aItems )
   \                     ??ZDO_ProcessMgmtLqiReq_15:
   \   000290   E5..         MOV     A,?V0 + 2
   \   000292   C3           CLR     C
   \   000293   95..         SUBB    A,?V0 + 5
   \   000295   4005         JC      ??ZDO_ProcessMgmtLqiReq_16
   1189                      // Start with 1st neighbor
   1190                      index = 0;
   \   000297   75..00       MOV     ?V0 + 0,#0x0
   \   00029A   8016         SJMP    ??ZDO_ProcessMgmtLqiReq_14
   1191                    else
   1192                      // Start with >1st neighbor
   1193                      index = StartIndex - aItems;
   \                     ??ZDO_ProcessMgmtLqiReq_16:
   \   00029C   E5..         MOV     A,?V0 + 5
   \   00029E   C3           CLR     C
   \   00029F   95..         SUBB    A,?V0 + 2
   \   0002A1   F5..         MOV     ?V0 + 0,A
   \   0002A3   800D         SJMP    ??ZDO_ProcessMgmtLqiReq_14
   1194                    break;
   1195                  }
   1196                }
   1197            
   1198                // Loop through neighbor items and finish list
   1199                for ( ; x < numItems; x++ )
   1200                {
   1201                  // Add next neighbor table item
   1202                  NLME_GetRequest( nwkNeighborTable, index++, &entry );
   1203            
   1204                  // set ZDP_MgmtLqiItem_t fields
   1205                  item->panID    = entry.panId;
   1206                  osal_cpyExtAddr( item->extPanID, _NIB.extendedPANID );
   1207                  osal_memset( item->extAddr, 0xFF, Z_EXTADDR_LEN );
   1208                  item->nwkAddr  = entry.neighborAddress;
   1209                  item->rxOnIdle = ZDP_MGMT_BOOL_UNKNOWN;
   1210                  item->relation = ZDP_MGMT_REL_UNKNOWN;
   1211                  item->permit   = ZDP_MGMT_BOOL_UNKNOWN;
   1212                  item->depth    = 0xFF;
   1213                  item->lqi      = entry.linkInfo.rxLqi;
   1214            
   1215                  if ( item->nwkAddr == 0 )
   1216                  {
   1217                    item->devType = ZDP_MGMT_DT_COORD;
   1218                  }
   1219                  else
   1220                  {
   1221                    item->devType = ZDP_MGMT_DT_ROUTER;
   \                     ??ZDO_ProcessMgmtLqiReq_17:
   \   0002A5   7401         MOV     A,#0x1
   \                     ??ZDO_ProcessMgmtLqiReq_18:
   \   0002A7   F0           MOVX    @DPTR,A
   1222                  }
   1223            
   1224                  item++;
   \   0002A8   EE           MOV     A,R6
   \   0002A9   241A         ADD     A,#0x1a
   \   0002AB   FE           MOV     R6,A
   \   0002AC   EF           MOV     A,R7
   \   0002AD   3400         ADDC    A,#0x0
   \   0002AF   FF           MOV     R7,A
   \   0002B0   05..         INC     ?V0 + 4
   \                     ??ZDO_ProcessMgmtLqiReq_14:
   \   0002B2   E5..         MOV     A,?V0 + 4
   \   0002B4   C3           CLR     C
   \   0002B5   95..         SUBB    A,?V0 + 1
   \   0002B7   4003         JC      $+5
   \   0002B9   02....       LJMP    ??ZDO_ProcessMgmtLqiReq_2 & 0xFFFF
   \   0002BC                ; Setup parameters for call to function NLME_GetRequest
   \   0002BC   7414         MOV     A,#0x14
   \   0002BE   12....       LCALL   ?XSTACK_DISP0_8
   \   0002C1   AC82         MOV     R4,DPL
   \   0002C3   AD83         MOV     R5,DPH
   \   0002C5   85....       MOV     ?V0 + 2,?V0 + 0
   \   0002C8   AA..         MOV     R2,?V0 + 2
   \   0002CA   7B00         MOV     R3,#0x0
   \   0002CC   7987         MOV     R1,#-0x79
   \   0002CE   12....       LCALL   ??NLME_GetRequest?relay
   \   0002D1   05..         INC     ?V0 + 0
   \   0002D3   741E         MOV     A,#0x1e
   \   0002D5   12....       LCALL   ?XSTACK_DISP0_8
   \   0002D8   E0           MOVX    A,@DPTR
   \   0002D9   F8           MOV     R0,A
   \   0002DA   A3           INC     DPTR
   \   0002DB   E0           MOVX    A,@DPTR
   \   0002DC   F9           MOV     R1,A
   \   0002DD   8E82         MOV     DPL,R6
   \   0002DF   8F83         MOV     DPH,R7
   \   0002E1   E8           MOV     A,R0
   \   0002E2   F0           MOVX    @DPTR,A
   \   0002E3   A3           INC     DPTR
   \   0002E4   E9           MOV     A,R1
   \   0002E5   F0           MOVX    @DPTR,A
   \   0002E6                ; Setup parameters for call to function sAddrExtCpy
   \   0002E6   7C..         MOV     R4,#(_NIB + 53) & 0xff
   \   0002E8   7D..         MOV     R5,#((_NIB + 53) >> 8) & 0xff
   \   0002EA   EE           MOV     A,R6
   \   0002EB   2402         ADD     A,#0x2
   \   0002ED   FA           MOV     R2,A
   \   0002EE   EF           MOV     A,R7
   \   0002EF   3400         ADDC    A,#0x0
   \   0002F1   FB           MOV     R3,A
   \   0002F2   12....       LCALL   ??sAddrExtCpy?relay
   \   0002F5                ; Setup parameters for call to function osal_memset
   \   0002F5   7C08         MOV     R4,#0x8
   \   0002F7   7D00         MOV     R5,#0x0
   \   0002F9   79FF         MOV     R1,#-0x1
   \   0002FB   EE           MOV     A,R6
   \   0002FC   240A         ADD     A,#0xa
   \   0002FE   FA           MOV     R2,A
   \   0002FF   EF           MOV     A,R7
   \   000300   3400         ADDC    A,#0x0
   \   000302   FB           MOV     R3,A
   \   000303   12....       LCALL   ??osal_memset?relay
   \   000306   EE           MOV     A,R6
   \   000307   2412         ADD     A,#0x12
   \   000309   F8           MOV     R0,A
   \   00030A   EF           MOV     A,R7
   \   00030B   3400         ADDC    A,#0x0
   \   00030D   F9           MOV     R1,A
   \   00030E   7414         MOV     A,#0x14
   \   000310   12....       LCALL   ?XSTACK_DISP0_8
   \   000313   E0           MOVX    A,@DPTR
   \   000314   FA           MOV     R2,A
   \   000315   A3           INC     DPTR
   \   000316   E0           MOVX    A,@DPTR
   \   000317   FB           MOV     R3,A
   \   000318   8882         MOV     DPL,R0
   \   00031A   8983         MOV     DPH,R1
   \   00031C   EA           MOV     A,R2
   \   00031D   F0           MOVX    @DPTR,A
   \   00031E   A3           INC     DPTR
   \   00031F   EB           MOV     A,R3
   \   000320   F0           MOVX    @DPTR,A
   \   000321   EE           MOV     A,R6
   \   000322   2415         ADD     A,#0x15
   \   000324   F582         MOV     DPL,A
   \   000326   EF           MOV     A,R7
   \   000327   3400         ADDC    A,#0x0
   \   000329   F583         MOV     DPH,A
   \   00032B   7402         MOV     A,#0x2
   \   00032D   F0           MOVX    @DPTR,A
   \   00032E   EE           MOV     A,R6
   \   00032F   2416         ADD     A,#0x16
   \   000331   F582         MOV     DPL,A
   \   000333   EF           MOV     A,R7
   \   000334   3400         ADDC    A,#0x0
   \   000336   F583         MOV     DPH,A
   \   000338   7403         MOV     A,#0x3
   \   00033A   F0           MOVX    @DPTR,A
   \   00033B   EE           MOV     A,R6
   \   00033C   2417         ADD     A,#0x17
   \   00033E   F582         MOV     DPL,A
   \   000340   EF           MOV     A,R7
   \   000341   3400         ADDC    A,#0x0
   \   000343   F583         MOV     DPH,A
   \   000345   7402         MOV     A,#0x2
   \   000347   F0           MOVX    @DPTR,A
   \   000348   EE           MOV     A,R6
   \   000349   2418         ADD     A,#0x18
   \   00034B   F582         MOV     DPL,A
   \   00034D   EF           MOV     A,R7
   \   00034E   3400         ADDC    A,#0x0
   \   000350   F583         MOV     DPH,A
   \   000352   74FF         MOV     A,#-0x1
   \   000354   F0           MOVX    @DPTR,A
   \   000355   7423         MOV     A,#0x23
   \   000357   12....       LCALL   ?XSTACK_DISP0_8
   \   00035A   E0           MOVX    A,@DPTR
   \   00035B   C0E0         PUSH    A
   \   00035D   EE           MOV     A,R6
   \   00035E   2419         ADD     A,#0x19
   \   000360   F582         MOV     DPL,A
   \   000362   EF           MOV     A,R7
   \   000363   3400         ADDC    A,#0x0
   \   000365   F583         MOV     DPH,A
   \   000367   D0E0         POP     A
   \   000369   F0           MOVX    @DPTR,A
   \   00036A   EE           MOV     A,R6
   \   00036B   2414         ADD     A,#0x14
   \   00036D   FA           MOV     R2,A
   \   00036E   EF           MOV     A,R7
   \   00036F   3400         ADDC    A,#0x0
   \   000371   FB           MOV     R3,A
   \   000372   8882         MOV     DPL,R0
   \   000374   8983         MOV     DPH,R1
   \   000376   E0           MOVX    A,@DPTR
   \   000377   F8           MOV     R0,A
   \   000378   A3           INC     DPTR
   \   000379   E0           MOVX    A,@DPTR
   \   00037A   F9           MOV     R1,A
   \   00037B   E8           MOV     A,R0
   \   00037C   49           ORL     A,R1
   \   00037D   8A82         MOV     DPL,R2
   \   00037F   8B83         MOV     DPH,R3
   \   000381   6003         JZ      $+5
   \   000383   02....       LJMP    ??ZDO_ProcessMgmtLqiReq_17 & 0xFFFF
   \   000386   E4           CLR     A
   \   000387   02....       LJMP    ??ZDO_ProcessMgmtLqiReq_18 & 0xFFFF
   1225                }
   1226              }
   1227            }
   1228            else
   1229            {
   1230              numItems = 0;
   \                     ??ZDO_ProcessMgmtLqiReq_0:
   \   00038A   75..00       MOV     ?V0 + 1,#0x0
   1231            }
   1232            
   1233            // Send response
   1234            ZDP_MgmtLqiRsp( inMsg->TransSeq, &(inMsg->srcAddr), ZSuccess, maxItems,
   1235                            StartIndex, numItems, table, false );
   \                     ??ZDO_ProcessMgmtLqiReq_2:
   \   00038D                ; Setup parameters for call to function ZDP_MgmtLqiRsp
   \   00038D   75..00       MOV     ?V0 + 2,#0x0
   \   000390   78..         MOV     R0,#?V0 + 2
   \   000392   12....       LCALL   ?PUSH_XSTACK_I_ONE
   \   000395   7402         MOV     A,#0x2
   \   000397   12....       LCALL   ?XSTACK_DISP0_8
   \   00039A   12....       LCALL   ?PUSH_XSTACK8_X_TWO
   \   00039D   78..         MOV     R0,#?V0 + 1
   \   00039F   12....       LCALL   ?PUSH_XSTACK_I_ONE
   \   0003A2   E5..         MOV     A,?V0 + 5
   \   0003A4   F5..         MOV     ?V0 + 1,A
   \   0003A6   78..         MOV     R0,#?V0 + 1
   \   0003A8   12....       LCALL   ?PUSH_XSTACK_I_ONE
   \   0003AB   7405         MOV     A,#0x5
   \   0003AD   12....       LCALL   ?XSTACK_DISP0_8
   \   0003B0   E0           MOVX    A,@DPTR
   \   0003B1   FD           MOV     R5,A
   \   0003B2   7C00         MOV     R4,#0x0
   \   0003B4   740A         MOV     A,#0xa
   \   0003B6   12....       LCALL   ?XSTACK_DISP0_8
   \   0003B9   E0           MOVX    A,@DPTR
   \   0003BA   2402         ADD     A,#0x2
   \   0003BC   FA           MOV     R2,A
   \   0003BD   A3           INC     DPTR
   \   0003BE   E0           MOVX    A,@DPTR
   \   0003BF   3400         ADDC    A,#0x0
   \   0003C1   FB           MOV     R3,A
   \   0003C2   740A         MOV     A,#0xa
   \   0003C4   12....       LCALL   ?XSTACK_DISP0_8
   \   0003C7   E0           MOVX    A,@DPTR
   \   0003C8   240F         ADD     A,#0xf
   \   0003CA   F8           MOV     R0,A
   \   0003CB   A3           INC     DPTR
   \   0003CC   E0           MOVX    A,@DPTR
   \   0003CD   3400         ADDC    A,#0x0
   \   0003CF   F9           MOV     R1,A
   \   0003D0   8882         MOV     DPL,R0
   \   0003D2   8983         MOV     DPH,R1
   \   0003D4   E0           MOVX    A,@DPTR
   \   0003D5   F9           MOV     R1,A
   \   0003D6   12....       LCALL   ??ZDP_MgmtLqiRsp?relay
   \   0003D9   7405         MOV     A,#0x5
   \   0003DB   12....       LCALL   ?DEALLOC_XSTACK8
   1236          
   1237            if ( table )
   \   0003DE   7401         MOV     A,#0x1
   \   0003E0   12....       LCALL   ?XSTACK_DISP0_8
   \   0003E3   E0           MOVX    A,@DPTR
   \   0003E4   F8           MOV     R0,A
   \   0003E5   A3           INC     DPTR
   \   0003E6   E0           MOVX    A,@DPTR
   \   0003E7   F9           MOV     R1,A
   \   0003E8   E8           MOV     A,R0
   \   0003E9   49           ORL     A,R1
   \   0003EA   600D         JZ      ??ZDO_ProcessMgmtLqiReq_19
   1238            {
   1239              osal_mem_free( table );
   \   0003EC                ; Setup parameters for call to function osal_mem_free
   \   0003EC   7401         MOV     A,#0x1
   \   0003EE   12....       LCALL   ?XSTACK_DISP0_8
   \   0003F1   E0           MOVX    A,@DPTR
   \   0003F2   FA           MOV     R2,A
   \   0003F3   A3           INC     DPTR
   \   0003F4   E0           MOVX    A,@DPTR
   \   0003F5   FB           MOV     R3,A
   \   0003F6   12....       LCALL   ??osal_mem_free?relay
   1240            }
   1241          }
   \                     ??ZDO_ProcessMgmtLqiReq_19:
   \   0003F9   742B         MOV     A,#0x2b
   \   0003FB   12....       LCALL   ?DEALLOC_XSTACK8
   \   0003FE   7F08         MOV     R7,#0x8
   \   000400   02....       LJMP    ?BANKED_LEAVE_XDATA
   1242          
   1243          /*********************************************************************
   1244           * @fn          ZDO_ProcessMgmtNwkDiscReq
   1245           *
   1246           * @brief       This function handles parsing the incoming Management
   1247           *              Network Discover request and starts the request.
   1248           *
   1249           * @param       inMsg - incoming message (request)
   1250           *
   1251           * @return      none
   1252           */

   \                                 In  segment BANKED_CODE, align 1, keep-with-next
   1253          void ZDO_ProcessMgmtNwkDiscReq( zdoIncomingMsg_t *inMsg )
   \                     ZDO_ProcessMgmtNwkDiscReq:
   1254          {
   \   000000   74F6         MOV     A,#-0xa
   \   000002   12....       LCALL   ?BANKED_ENTER_XDATA
   \   000005                ; Saved register size: 10
   \   000005                ; Auto size: 7
   \   000005   74F9         MOV     A,#-0x7
   \   000007   12....       LCALL   ?ALLOC_XSTACK8
   \   00000A   8A..         MOV     ?V0 + 0,R2
   \   00000C   8B..         MOV     ?V0 + 1,R3
   1255            NLME_ScanFields_t scan;
   1256            uint8             index;
   1257            uint8             *msg;
   1258          
   1259            msg = inMsg->asdu;
   \   00000E   EA           MOV     A,R2
   \   00000F   2413         ADD     A,#0x13
   \   000011   F582         MOV     DPL,A
   \   000013   EB           MOV     A,R3
   \   000014   3400         ADDC    A,#0x0
   \   000016   F583         MOV     DPH,A
   \   000018   E0           MOVX    A,@DPTR
   \   000019   FE           MOV     R6,A
   \   00001A   A3           INC     DPTR
   \   00001B   E0           MOVX    A,@DPTR
   \   00001C   FF           MOV     R7,A
   1260            scan.channels = osal_build_uint32( msg, 4 );
   \   00001D                ; Setup parameters for call to function osal_build_uint32
   \   00001D   7904         MOV     R1,#0x4
   \   00001F   EE           MOV     A,R6
   \   000020   FA           MOV     R2,A
   \   000021   EF           MOV     A,R7
   \   000022   FB           MOV     R3,A
   \   000023   12....       LCALL   ??osal_build_uint32?relay
   \   000026   85..82       MOV     DPL,?XSP + 0
   \   000029   85..83       MOV     DPH,?XSP + 1
   \   00002C   12....       LCALL   ?XSTORE_R2345
   1261            msg += 4;
   \   00002F   EE           MOV     A,R6
   \   000030   2404         ADD     A,#0x4
   \   000032   FE           MOV     R6,A
   \   000033   EF           MOV     A,R7
   \   000034   3400         ADDC    A,#0x0
   \   000036   FF           MOV     R7,A
   1262            scan.duration = *msg++;
   \   000037   8E82         MOV     DPL,R6
   \   000039   8F83         MOV     DPH,R7
   \   00003B   E0           MOVX    A,@DPTR
   \   00003C   C0E0         PUSH    A
   \   00003E   7404         MOV     A,#0x4
   \   000040   12....       LCALL   ?XSTACK_DISP0_8
   \   000043   D0E0         POP     A
   \   000045   F0           MOVX    @DPTR,A
   \   000046   8E82         MOV     DPL,R6
   \   000048   8F83         MOV     DPH,R7
   \   00004A   A3           INC     DPTR
   1263            index         = *msg;
   \   00004B   E0           MOVX    A,@DPTR
   \   00004C   FA           MOV     R2,A
   1264            scan.scanType = ZMAC_ACTIVE_SCAN;
   \   00004D   7405         MOV     A,#0x5
   \   00004F   12....       LCALL   ?XSTACK_DISP0_8
   \   000052   7401         MOV     A,#0x1
   \   000054   F0           MOVX    @DPTR,A
   1265            scan.scanApp  = NLME_DISC_SCAN;
   \   000055   7406         MOV     A,#0x6
   \   000057   12....       LCALL   ?XSTACK_DISP0_8
   \   00005A   7401         MOV     A,#0x1
   \   00005C   F0           MOVX    @DPTR,A
   1266          
   1267            // Save off the information to be used for the response
   1268            zdappMgmtNwkDiscReqInProgress          = true;
   \   00005D   90....       MOV     DPTR,#zdappMgmtNwkDiscReqInProgress
   \   000060   F0           MOVX    @DPTR,A
   1269            zdappMgmtNwkDiscRspAddr.addrMode       = Addr16Bit;
   \   000061   90....       MOV     DPTR,#zdappMgmtNwkDiscRspAddr + 8
   \   000064   04           INC     A
   \   000065   F0           MOVX    @DPTR,A
   1270            zdappMgmtNwkDiscRspAddr.addr.shortAddr = inMsg->srcAddr.addr.shortAddr;
   \   000066   85..82       MOV     DPL,?V0 + 0
   \   000069   85..83       MOV     DPH,?V0 + 1
   \   00006C   A3           INC     DPTR
   \   00006D   A3           INC     DPTR
   \   00006E   E0           MOVX    A,@DPTR
   \   00006F   F8           MOV     R0,A
   \   000070   A3           INC     DPTR
   \   000071   E0           MOVX    A,@DPTR
   \   000072   F9           MOV     R1,A
   \   000073   90....       MOV     DPTR,#zdappMgmtNwkDiscRspAddr
   \   000076   E8           MOV     A,R0
   \   000077   F0           MOVX    @DPTR,A
   \   000078   A3           INC     DPTR
   \   000079   E9           MOV     A,R1
   \   00007A   F0           MOVX    @DPTR,A
   1271            zdappMgmtNwkDiscStartIndex             = index;
   \   00007B   EA           MOV     A,R2
   \   00007C   90....       MOV     DPTR,#zdappMgmtNwkDiscStartIndex
   \   00007F   F0           MOVX    @DPTR,A
   1272            zdappMgmtNwkDiscRspTransSeq            = inMsg->TransSeq;
   \   000080   E5..         MOV     A,?V0 + 0
   \   000082   240F         ADD     A,#0xf
   \   000084   F582         MOV     DPL,A
   \   000086   E5..         MOV     A,?V0 + 1
   \   000088   3400         ADDC    A,#0x0
   \   00008A   F583         MOV     DPH,A
   \   00008C   E0           MOVX    A,@DPTR
   \   00008D   90....       MOV     DPTR,#zdappMgmtNwkDiscRspTransSeq
   \   000090   F0           MOVX    @DPTR,A
   1273            
   1274            if ( NLME_NwkDiscReq2( &scan ) != ZSuccess )
   \   000091                ; Setup parameters for call to function NLME_NwkDiscReq2
   \   000091   85..82       MOV     DPL,?XSP + 0
   \   000094   85..83       MOV     DPH,?XSP + 1
   \   000097   AA82         MOV     R2,DPL
   \   000099   AB83         MOV     R3,DPH
   \   00009B   12....       LCALL   ??NLME_NwkDiscReq2?relay
   \   00009E   E9           MOV     A,R1
   \   00009F   6003         JZ      ??ZDO_ProcessMgmtNwkDiscReq_0
   1275            {
   1276              NLME_NwkDiscTerm();
   \   0000A1                ; Setup parameters for call to function NLME_NwkDiscTerm
   \   0000A1   12....       LCALL   ??NLME_NwkDiscTerm?relay
   1277          
   1278              // zdappMgmtNwkDiscReqInProgress will be reset in the confirm callback
   1279            }
   1280          }
   \                     ??ZDO_ProcessMgmtNwkDiscReq_0:
   \   0000A4   7407         MOV     A,#0x7
   \   0000A6   12....       LCALL   ?DEALLOC_XSTACK8
   \   0000A9   7F02         MOV     R7,#0x2
   \   0000AB   02....       LJMP    ?BANKED_LEAVE_XDATA
   1281          
   1282          #if defined ( ZDO_MGMT_NWKDISC_RESPONSE )
   1283          /*********************************************************************
   1284           * @fn          ZDO_FinishProcessingMgmtNwkDiscReq
   1285           *
   1286           * @brief       This function finishes the processing of the Management
   1287           *              Network Discover Request and generates the response.
   1288           *
   1289           *   Note:      This function will limit the number of items returned
   1290           *              to ZDO_MAX_NWKDISC_ITEMS items.
   1291           *
   1292           * @param       ResultCountSrcAddr - source of the request
   1293           * @param       msg - pointer to incoming message
   1294           * @param       SecurityUse -
   1295           *
   1296           * @return      none
   1297           */
   1298          void ZDO_FinishProcessingMgmtNwkDiscReq( byte ResultCount,
   1299                                                   networkDesc_t *NetworkList )
   1300          {
   1301            byte count, i;
   1302            networkDesc_t *newDesc = NULL, *pList = NetworkList;
   1303          
   1304            if ( ZSTACK_ROUTER_BUILD )
   1305            {
   1306              // Look for my PanID.
   1307              while ( pList )
   1308              {
   1309                if ( pList->panId == _NIB.nwkPanId )
   1310                {
   1311                  break;
   1312                }
   1313          
   1314            
   1315                if ( !pList->nextDesc )
   1316                {
   1317                  break;
   1318                }
   1319                pList = pList->nextDesc;
   1320              }
   1321            
   1322              
   1323              // If my Pan not present (query to a star network ZC or an isolated ZR?),
   1324              // prepend it.
   1325              if ( !pList || (pList->panId != _NIB.nwkPanId) )
   1326              {
   1327                newDesc = (networkDesc_t *)osal_mem_alloc( sizeof( networkDesc_t ) );
   1328                if ( newDesc )
   1329                {
   1330                  byte pJoin;
   1331            
   1332                  newDesc->panId = _NIB.nwkPanId;
   1333                  newDesc->logicalChannel = _NIB.nwkLogicalChannel;
   1334                  newDesc->beaconOrder = _NIB.beaconOrder;
   1335                  newDesc->superFrameOrder = _NIB.superFrameOrder;
   1336                  newDesc->version = NLME_GetProtocolVersion();
   1337                  newDesc->stackProfile = zgStackProfile;
   1338                  //Extended PanID
   1339                  osal_cpyExtAddr( newDesc->extendedPANID, _NIB.extendedPANID);
   1340            
   1341                  ZMacGetReq( ZMacAssociationPermit, &pJoin );
   1342                  newDesc->chosenRouter = ((pJoin) ? ZDAppNwkAddr.addr.shortAddr :
   1343                                                     INVALID_NODE_ADDR);
   1344            
   1345                  newDesc->nextDesc = NetworkList;
   1346                  NetworkList = newDesc;
   1347                  ResultCount++;
   1348                }
   1349              }
   1350            }
   1351          
   1352            // Calc the count and apply a max count.
   1353            if ( zdappMgmtNwkDiscStartIndex > ResultCount )
   1354            {
   1355              count = 0;
   1356            }
   1357            else
   1358            {
   1359              count = ResultCount - zdappMgmtNwkDiscStartIndex;
   1360              if ( count > ZDO_MAX_NWKDISC_ITEMS )
   1361              {
   1362                count = ZDO_MAX_NWKDISC_ITEMS;
   1363              }
   1364          
   1365              // Move the list pointer up to the start index.
   1366              for ( i = 0; i < zdappMgmtNwkDiscStartIndex; i++ )
   1367              {
   1368                NetworkList = NetworkList->nextDesc;
   1369              }
   1370            }
   1371          
   1372            ZDP_MgmtNwkDiscRsp( zdappMgmtNwkDiscRspTransSeq,
   1373                               &zdappMgmtNwkDiscRspAddr, ZSuccess, ResultCount,
   1374                                zdappMgmtNwkDiscStartIndex,
   1375                                count,
   1376                                NetworkList,
   1377                                false );
   1378          
   1379            if ( ZSTACK_ROUTER_BUILD )
   1380            {
   1381              if ( newDesc != NULL )
   1382              {
   1383                osal_mem_free( newDesc );
   1384              }
   1385            }
   1386          
   1387            NLME_NwkDiscTerm();
   1388          }
   1389          #endif
   1390          
   1391          /*********************************************************************
   1392           * @fn          ZDO_ProcessMgmtRtgReq
   1393           *
   1394           * @brief       This function finishes the processing of the Management
   1395           *              Routing Request and generates the response.
   1396           *
   1397           *   Note:      This function will limit the number of items returned
   1398           *              to ZDO_MAX_RTG_ITEMS items.
   1399           *
   1400           * @param       inMsg - incoming message (request)
   1401           *
   1402           * @return      none
   1403           */

   \                                 In  segment BANKED_CODE, align 1, keep-with-next
   1404          void ZDO_ProcessMgmtRtgReq( zdoIncomingMsg_t *inMsg )
   \                     ZDO_ProcessMgmtRtgReq:
   1405          {
   \   000000   74F0         MOV     A,#-0x10
   \   000002   12....       LCALL   ?BANKED_ENTER_XDATA
   \   000005                ; Saved register size: 16
   \   000005                ; Auto size: 5
   \   000005   74FB         MOV     A,#-0x5
   \   000007   12....       LCALL   ?ALLOC_XSTACK8
   \   00000A   7403         MOV     A,#0x3
   \   00000C   12....       LCALL   ?XSTACK_DISP0_8
   \   00000F   EA           MOV     A,R2
   \   000010   F0           MOVX    @DPTR,A
   \   000011   A3           INC     DPTR
   \   000012   EB           MOV     A,R3
   \   000013   F0           MOVX    @DPTR,A
   1406            byte x;
   1407            byte maxNumItems;
   1408            byte numItems = 0;
   \   000014   7E00         MOV     R6,#0x0
   1409            uint8 *pBuf = NULL;
   \   000016   8E..         MOV     ?V0 + 6,R6
   \   000018   8E..         MOV     ?V0 + 7,R6
   1410            rtgItem_t *pList;
   1411            uint8 StartIndex = inMsg->asdu[0];
   \   00001A   7403         MOV     A,#0x3
   \   00001C   12....       LCALL   ?XSTACK_DISP0_8
   \   00001F   E0           MOVX    A,@DPTR
   \   000020   2413         ADD     A,#0x13
   \   000022   F8           MOV     R0,A
   \   000023   A3           INC     DPTR
   \   000024   E0           MOVX    A,@DPTR
   \   000025   3400         ADDC    A,#0x0
   \   000027   F9           MOV     R1,A
   \   000028   8882         MOV     DPL,R0
   \   00002A   8983         MOV     DPH,R1
   \   00002C   E0           MOVX    A,@DPTR
   \   00002D   F8           MOV     R0,A
   \   00002E   A3           INC     DPTR
   \   00002F   E0           MOVX    A,@DPTR
   \   000030   F583         MOV     DPH,A
   \   000032   8882         MOV     DPL,R0
   \   000034   E0           MOVX    A,@DPTR
   \   000035   F5..         MOV     ?V0 + 4,A
   1412          
   1413            // Get the number of table items
   1414            NLME_GetRequest( nwkNumRoutingTableEntries, 0, &maxNumItems );
   \   000037                ; Setup parameters for call to function NLME_GetRequest
   \   000037   85..82       MOV     DPL,?XSP + 0
   \   00003A   85..83       MOV     DPH,?XSP + 1
   \   00003D   AC82         MOV     R4,DPL
   \   00003F   AD83         MOV     R5,DPH
   \   000041   7A00         MOV     R2,#0x0
   \   000043   7B00         MOV     R3,#0x0
   \   000045   799D         MOV     R1,#-0x63
   \   000047   12....       LCALL   ??NLME_GetRequest?relay
   1415          
   1416            if ( maxNumItems > StartIndex )
   \   00004A   85..82       MOV     DPL,?XSP + 0
   \   00004D   85..83       MOV     DPH,?XSP + 1
   \   000050   E0           MOVX    A,@DPTR
   \   000051   F8           MOV     R0,A
   \   000052   E5..         MOV     A,?V0 + 4
   \   000054   C3           CLR     C
   \   000055   98           SUBB    A,R0
   \   000056   4003         JC      $+5
   \   000058   02....       LJMP    ??ZDO_ProcessMgmtRtgReq_0 & 0xFFFF
   1417            {
   1418              numItems = maxNumItems - StartIndex;    // Start at the passed in index
   \   00005B   E0           MOVX    A,@DPTR
   \   00005C   C3           CLR     C
   \   00005D   95..         SUBB    A,?V0 + 4
   \   00005F   FE           MOV     R6,A
   1419              
   1420              // limit the size of the list
   1421              if ( numItems > ZDO_MAX_RTG_ITEMS )
   \   000060   C3           CLR     C
   \   000061   940B         SUBB    A,#0xb
   \   000063   4002         JC      ??ZDO_ProcessMgmtRtgReq_1
   1422              {
   1423                numItems = ZDO_MAX_RTG_ITEMS;
   \   000065   7E0A         MOV     R6,#0xa
   1424              }
   1425          
   1426              // Allocate the memory to build the table
   1427              pBuf = osal_mem_alloc( (short)(sizeof( rtgItem_t ) * numItems) );
   \                     ??ZDO_ProcessMgmtRtgReq_1:
   \   000067                ; Setup parameters for call to function osal_mem_alloc
   \   000067   EE           MOV     A,R6
   \   000068   75F006       MOV     B,#0x6
   \   00006B   A4           MUL     AB
   \   00006C   FA           MOV     R2,A
   \   00006D   ABF0         MOV     R3,B
   \   00006F   12....       LCALL   ??osal_mem_alloc?relay
   \   000072   8A..         MOV     ?V0 + 6,R2
   \   000074   8B..         MOV     ?V0 + 7,R3
   1428            
   1429              if ( pBuf != NULL )
   \   000076   EA           MOV     A,R2
   \   000077   45..         ORL     A,?V0 + 7
   \   000079   6074         JZ      ??ZDO_ProcessMgmtRtgReq_2
   1430              {
   1431                // Convert buffer to list
   1432                pList = (rtgItem_t *)pBuf;
   \   00007B   7401         MOV     A,#0x1
   \   00007D   12....       LCALL   ?XSTACK_DISP0_8
   \   000080   EA           MOV     A,R2
   \   000081   F0           MOVX    @DPTR,A
   \   000082   A3           INC     DPTR
   \   000083   EB           MOV     A,R3
   \   000084   F0           MOVX    @DPTR,A
   1433            
   1434                // Loop through items and build list
   1435                for ( x = 0; x < numItems; x++ )
   \   000085   7F00         MOV     R7,#0x0
   \   000087   801F         SJMP    ??ZDO_ProcessMgmtRtgReq_3
   1436                {
   1437                  NLME_GetRequest( nwkRoutingTable, (uint16)(x + StartIndex), (void*)pList );
   1438            
   1439                  // Remap the status to the RoutingTableList Record Format defined in the ZigBee spec
   1440                  switch( pList->status )
   1441                  {
   1442                    case RT_ACTIVE:
   1443                      pList->status = ZDO_MGMT_RTG_ENTRY_ACTIVE;
   1444                      break;
   1445            
   1446                    case RT_DISC:
   1447                      pList->status = ZDO_MGMT_RTG_ENTRY_DISCOVERY_UNDERWAY;
   1448                      break;
   1449            
   1450                    case RT_LINK_FAIL:
   1451                      pList->status = ZDO_MGMT_RTG_ENTRY_DISCOVERY_FAILED;
   \                     ??ZDO_ProcessMgmtRtgReq_4:
   \   000089   7402         MOV     A,#0x2
   \   00008B   F0           MOVX    @DPTR,A
   1452            
   1453                    case RT_INIT:
   1454                    case RT_REPAIR:
   1455                    default:
   1456                      pList->status = ZDO_MGMT_RTG_ENTRY_INACTIVE;
   \                     ??ZDO_ProcessMgmtRtgReq_5:
   \   00008C   7403         MOV     A,#0x3
   \                     ??ZDO_ProcessMgmtRtgReq_6:
   \   00008E   F0           MOVX    @DPTR,A
   1457                      break;
   1458                  }
   1459            
   1460                  // Increment pointer to next record
   1461                  pList++;
   \   00008F   7401         MOV     A,#0x1
   \   000091   12....       LCALL   ?XSTACK_DISP0_8
   \   000094   E0           MOVX    A,@DPTR
   \   000095   2406         ADD     A,#0x6
   \   000097   F8           MOV     R0,A
   \   000098   A3           INC     DPTR
   \   000099   E0           MOVX    A,@DPTR
   \   00009A   3400         ADDC    A,#0x0
   \   00009C   F9           MOV     R1,A
   \   00009D   7401         MOV     A,#0x1
   \   00009F   12....       LCALL   ?XSTACK_DISP0_8
   \   0000A2   E8           MOV     A,R0
   \   0000A3   F0           MOVX    @DPTR,A
   \   0000A4   A3           INC     DPTR
   \   0000A5   E9           MOV     A,R1
   \   0000A6   F0           MOVX    @DPTR,A
   \   0000A7   0F           INC     R7
   \                     ??ZDO_ProcessMgmtRtgReq_3:
   \   0000A8   EF           MOV     A,R7
   \   0000A9   C3           CLR     C
   \   0000AA   9E           SUBB    A,R6
   \   0000AB   5044         JNC     ??ZDO_ProcessMgmtRtgReq_0
   \   0000AD                ; Setup parameters for call to function NLME_GetRequest
   \   0000AD   7401         MOV     A,#0x1
   \   0000AF   12....       LCALL   ?XSTACK_DISP0_8
   \   0000B2   E0           MOVX    A,@DPTR
   \   0000B3   FC           MOV     R4,A
   \   0000B4   A3           INC     DPTR
   \   0000B5   E0           MOVX    A,@DPTR
   \   0000B6   FD           MOV     R5,A
   \   0000B7   8F..         MOV     ?V0 + 2,R7
   \   0000B9   85....       MOV     ?V0 + 0,?V0 + 4
   \   0000BC   E5..         MOV     A,?V0 + 2
   \   0000BE   25..         ADD     A,?V0 + 0
   \   0000C0   FA           MOV     R2,A
   \   0000C1   E4           CLR     A
   \   0000C2   3400         ADDC    A,#0x0
   \   0000C4   FB           MOV     R3,A
   \   0000C5   798B         MOV     R1,#-0x75
   \   0000C7   12....       LCALL   ??NLME_GetRequest?relay
   \   0000CA   7401         MOV     A,#0x1
   \   0000CC   12....       LCALL   ?XSTACK_DISP0_8
   \   0000CF   E0           MOVX    A,@DPTR
   \   0000D0   2405         ADD     A,#0x5
   \   0000D2   F8           MOV     R0,A
   \   0000D3   A3           INC     DPTR
   \   0000D4   E0           MOVX    A,@DPTR
   \   0000D5   3400         ADDC    A,#0x0
   \   0000D7   F9           MOV     R1,A
   \   0000D8   8882         MOV     DPL,R0
   \   0000DA   8983         MOV     DPH,R1
   \   0000DC   E0           MOVX    A,@DPTR
   \   0000DD   14           DEC     A
   \   0000DE   6008         JZ      ??ZDO_ProcessMgmtRtgReq_7
   \   0000E0   14           DEC     A
   \   0000E1   6008         JZ      ??ZDO_ProcessMgmtRtgReq_8
   \   0000E3   14           DEC     A
   \   0000E4   60A3         JZ      ??ZDO_ProcessMgmtRtgReq_4
   \   0000E6   80A4         SJMP    ??ZDO_ProcessMgmtRtgReq_5
   \                     ??ZDO_ProcessMgmtRtgReq_7:
   \   0000E8   E4           CLR     A
   \   0000E9   80A3         SJMP    ??ZDO_ProcessMgmtRtgReq_6
   \                     ??ZDO_ProcessMgmtRtgReq_8:
   \   0000EB   7401         MOV     A,#0x1
   \   0000ED   809F         SJMP    ??ZDO_ProcessMgmtRtgReq_6
   1462                }
   1463              }
   1464              else
   1465              {
   1466                numItems = 0;
   \                     ??ZDO_ProcessMgmtRtgReq_2:
   \   0000EF   7E00         MOV     R6,#0x0
   1467              }
   1468            }
   1469            
   1470            // Send response
   1471            ZDP_MgmtRtgRsp( inMsg->TransSeq, &(inMsg->srcAddr), ZSuccess, maxNumItems, StartIndex, numItems,
   1472                                  (rtgItem_t *)pBuf, false );
   \                     ??ZDO_ProcessMgmtRtgReq_0:
   \   0000F1                ; Setup parameters for call to function ZDP_MgmtRtgRsp
   \   0000F1   75..00       MOV     ?V0 + 0,#0x0
   \   0000F4   78..         MOV     R0,#?V0 + 0
   \   0000F6   12....       LCALL   ?PUSH_XSTACK_I_ONE
   \   0000F9   78..         MOV     R0,#?V0 + 6
   \   0000FB   12....       LCALL   ?PUSH_XSTACK_I_TWO
   \   0000FE   EE           MOV     A,R6
   \   0000FF   F5..         MOV     ?V0 + 0,A
   \   000101   78..         MOV     R0,#?V0 + 0
   \   000103   12....       LCALL   ?PUSH_XSTACK_I_ONE
   \   000106   E5..         MOV     A,?V0 + 4
   \   000108   F5..         MOV     ?V0 + 0,A
   \   00010A   78..         MOV     R0,#?V0 + 0
   \   00010C   12....       LCALL   ?PUSH_XSTACK_I_ONE
   \   00010F   7405         MOV     A,#0x5
   \   000111   12....       LCALL   ?XSTACK_DISP0_8
   \   000114   E0           MOVX    A,@DPTR
   \   000115   FD           MOV     R5,A
   \   000116   7C00         MOV     R4,#0x0
   \   000118   7408         MOV     A,#0x8
   \   00011A   12....       LCALL   ?XSTACK_DISP0_8
   \   00011D   E0           MOVX    A,@DPTR
   \   00011E   2402         ADD     A,#0x2
   \   000120   FA           MOV     R2,A
   \   000121   A3           INC     DPTR
   \   000122   E0           MOVX    A,@DPTR
   \   000123   3400         ADDC    A,#0x0
   \   000125   FB           MOV     R3,A
   \   000126   7408         MOV     A,#0x8
   \   000128   12....       LCALL   ?XSTACK_DISP0_8
   \   00012B   E0           MOVX    A,@DPTR
   \   00012C   240F         ADD     A,#0xf
   \   00012E   F8           MOV     R0,A
   \   00012F   A3           INC     DPTR
   \   000130   E0           MOVX    A,@DPTR
   \   000131   3400         ADDC    A,#0x0
   \   000133   F9           MOV     R1,A
   \   000134   8882         MOV     DPL,R0
   \   000136   8983         MOV     DPH,R1
   \   000138   E0           MOVX    A,@DPTR
   \   000139   F9           MOV     R1,A
   \   00013A   12....       LCALL   ??ZDP_MgmtRtgRsp?relay
   \   00013D   7405         MOV     A,#0x5
   \   00013F   12....       LCALL   ?DEALLOC_XSTACK8
   1473          
   1474            if ( pBuf )
   \   000142   E5..         MOV     A,?V0 + 6
   \   000144   45..         ORL     A,?V0 + 7
   \   000146   6007         JZ      ??ZDO_ProcessMgmtRtgReq_9
   1475            {
   1476              osal_mem_free( pBuf );
   \   000148                ; Setup parameters for call to function osal_mem_free
   \   000148   AA..         MOV     R2,?V0 + 6
   \   00014A   AB..         MOV     R3,?V0 + 7
   \   00014C   12....       LCALL   ??osal_mem_free?relay
   1477            }
   1478          }
   \                     ??ZDO_ProcessMgmtRtgReq_9:
   \   00014F   7405         MOV     A,#0x5
   \   000151   12....       LCALL   ?DEALLOC_XSTACK8
   \   000154   7F08         MOV     R7,#0x8
   \   000156   02....       LJMP    ?BANKED_LEAVE_XDATA
   1479          
   1480          /*********************************************************************
   1481           * @fn          ZDO_ProcessMgmtBindReq
   1482           *
   1483           * @brief       This function finishes the processing of the Management
   1484           *              Bind Request and generates the response.
   1485           *
   1486           *   Note:      This function will limit the number of items returned
   1487           *              to ZDO_MAX_BIND_ITEMS items.
   1488           *
   1489           * @param       inMsg - incoming message (request)
   1490           *
   1491           * @return      none
   1492           */

   \                                 In  segment BANKED_CODE, align 1, keep-with-next
   1493          void ZDO_ProcessMgmtBindReq( zdoIncomingMsg_t *inMsg )
   \                     ZDO_ProcessMgmtBindReq:
   1494          {
   \   000000   74F2         MOV     A,#-0xe
   \   000002   12....       LCALL   ?BANKED_ENTER_XDATA
   \   000005                ; Saved register size: 14
   \   000005                ; Auto size: 7
   \   000005   74F9         MOV     A,#-0x7
   \   000007   12....       LCALL   ?ALLOC_XSTACK8
   \   00000A   7405         MOV     A,#0x5
   \   00000C   12....       LCALL   ?XSTACK_DISP0_8
   \   00000F   EA           MOV     A,R2
   \   000010   F0           MOVX    @DPTR,A
   \   000011   A3           INC     DPTR
   \   000012   EB           MOV     A,R3
   \   000013   F0           MOVX    @DPTR,A
   1495          #if defined ( REFLECTOR )
   1496            byte x;
   1497            uint16 maxNumItems;
   1498            uint16 numItems;
   1499            uint8 *pBuf = NULL;
   \   000014   75..00       MOV     ?V0 + 4,#0x0
   \   000017   75..00       MOV     ?V0 + 5,#0x0
   1500            apsBindingItem_t *pList;
   1501            uint8 StartIndex = inMsg->asdu[0];
   \   00001A   7405         MOV     A,#0x5
   \   00001C   12....       LCALL   ?XSTACK_DISP0_8
   \   00001F   E0           MOVX    A,@DPTR
   \   000020   2413         ADD     A,#0x13
   \   000022   F8           MOV     R0,A
   \   000023   A3           INC     DPTR
   \   000024   E0           MOVX    A,@DPTR
   \   000025   3400         ADDC    A,#0x0
   \   000027   F9           MOV     R1,A
   \   000028   8882         MOV     DPL,R0
   \   00002A   8983         MOV     DPH,R1
   \   00002C   E0           MOVX    A,@DPTR
   \   00002D   F8           MOV     R0,A
   \   00002E   A3           INC     DPTR
   \   00002F   E0           MOVX    A,@DPTR
   \   000030   F583         MOV     DPH,A
   \   000032   8882         MOV     DPL,R0
   \   000034   E0           MOVX    A,@DPTR
   \   000035   85..82       MOV     DPL,?XSP + 0
   \   000038   85..83       MOV     DPH,?XSP + 1
   \   00003B   F0           MOVX    @DPTR,A
   1502            uint8 status;
   1503          
   1504            // Get the number of table items
   1505            APSME_GetRequest( apsNumBindingTableEntries, 0, (byte*)(&maxNumItems) );
   \   00003C                ; Setup parameters for call to function APSME_GetRequest
   \   00003C   7401         MOV     A,#0x1
   \   00003E   12....       LCALL   ?XSTACK_DISP0_8
   \   000041   AC82         MOV     R4,DPL
   \   000043   AD83         MOV     R5,DPH
   \   000045   7A00         MOV     R2,#0x0
   \   000047   7B00         MOV     R3,#0x0
   \   000049   79A3         MOV     R1,#-0x5d
   \   00004B   12....       LCALL   ??APSME_GetRequest?relay
   1506          
   1507            if ( maxNumItems > StartIndex )
   \   00004E   85..82       MOV     DPL,?XSP + 0
   \   000051   85..83       MOV     DPH,?XSP + 1
   \   000054   E0           MOVX    A,@DPTR
   \   000055   FA           MOV     R2,A
   \   000056   7401         MOV     A,#0x1
   \   000058   12....       LCALL   ?XSTACK_DISP0_8
   \   00005B   E0           MOVX    A,@DPTR
   \   00005C   F8           MOV     R0,A
   \   00005D   A3           INC     DPTR
   \   00005E   E0           MOVX    A,@DPTR
   \   00005F   F9           MOV     R1,A
   \   000060   C3           CLR     C
   \   000061   EA           MOV     A,R2
   \   000062   98           SUBB    A,R0
   \   000063   E4           CLR     A
   \   000064   99           SUBB    A,R1
   \   000065   5010         JNC     ??ZDO_ProcessMgmtBindReq_0
   1508            {
   1509              numItems = maxNumItems - StartIndex;    // Start at the passed in index
   \   000067   7401         MOV     A,#0x1
   \   000069   12....       LCALL   ?XSTACK_DISP0_8
   \   00006C   E0           MOVX    A,@DPTR
   \   00006D   C3           CLR     C
   \   00006E   9A           SUBB    A,R2
   \   00006F   FE           MOV     R6,A
   \   000070   A3           INC     DPTR
   \   000071   E0           MOVX    A,@DPTR
   \   000072   9400         SUBB    A,#0x0
   \   000074   FF           MOV     R7,A
   \   000075   8004         SJMP    ??ZDO_ProcessMgmtBindReq_1
   1510            }
   1511            else
   1512            {
   1513              numItems = 0;
   \                     ??ZDO_ProcessMgmtBindReq_0:
   \   000077   7E00         MOV     R6,#0x0
   \   000079   7F00         MOV     R7,#0x0
   1514            }
   1515          
   1516            // limit the size of the list
   1517            if ( numItems > ZDO_MAX_BIND_ITEMS )
   \                     ??ZDO_ProcessMgmtBindReq_1:
   \   00007B   C3           CLR     C
   \   00007C   EE           MOV     A,R6
   \   00007D   9404         SUBB    A,#0x4
   \   00007F   EF           MOV     A,R7
   \   000080   9400         SUBB    A,#0x0
   \   000082   4004         JC      ??ZDO_ProcessMgmtBindReq_2
   1518            {
   1519              numItems = ZDO_MAX_BIND_ITEMS;
   \   000084   7E03         MOV     R6,#0x3
   \   000086   7F00         MOV     R7,#0x0
   1520            }
   1521          
   1522            // Allocate the memory to build the table
   1523            if ( numItems && (pBuf = osal_mem_alloc( sizeof( apsBindingItem_t ) * numItems )) )
   \                     ??ZDO_ProcessMgmtBindReq_2:
   \   000088   EE           MOV     A,R6
   \   000089   4F           ORL     A,R7
   \   00008A   6075         JZ      ??ZDO_ProcessMgmtBindReq_3
   \   00008C                ; Setup parameters for call to function osal_mem_alloc
   \   00008C   EE           MOV     A,R6
   \   00008D   FA           MOV     R2,A
   \   00008E   EF           MOV     A,R7
   \   00008F   FB           MOV     R3,A
   \   000090   EA           MOV     A,R2
   \   000091   75F015       MOV     B,#0x15
   \   000094   A4           MUL     AB
   \   000095   FA           MOV     R2,A
   \   000096   A8F0         MOV     R0,B
   \   000098   75F015       MOV     B,#0x15
   \   00009B   EB           MOV     A,R3
   \   00009C   A4           MUL     AB
   \   00009D   28           ADD     A,R0
   \   00009E   FB           MOV     R3,A
   \   00009F   12....       LCALL   ??osal_mem_alloc?relay
   \   0000A2   8A..         MOV     ?V0 + 4,R2
   \   0000A4   8B..         MOV     ?V0 + 5,R3
   \   0000A6   EA           MOV     A,R2
   \   0000A7   45..         ORL     A,?V0 + 5
   \   0000A9   6056         JZ      ??ZDO_ProcessMgmtBindReq_3
   1524            {
   1525              status = ZSuccess;
   \   0000AB   75..00       MOV     ?V0 + 1,#0x0
   1526              
   1527              // Convert buffer to list
   1528              pList = (apsBindingItem_t *)pBuf;
   \   0000AE   7403         MOV     A,#0x3
   \   0000B0   12....       LCALL   ?XSTACK_DISP0_8
   \   0000B3   EA           MOV     A,R2
   \   0000B4   F0           MOVX    @DPTR,A
   \   0000B5   A3           INC     DPTR
   \   0000B6   EB           MOV     A,R3
   \   0000B7   F0           MOVX    @DPTR,A
   1529          
   1530              // Loop through items and build list
   1531              for ( x = 0; x < numItems; x++ )
   \   0000B8   75..00       MOV     ?V0 + 0,#0x0
   \                     ??ZDO_ProcessMgmtBindReq_4:
   \   0000BB   85....       MOV     ?V0 + 2,?V0 + 0
   \   0000BE   C3           CLR     C
   \   0000BF   E5..         MOV     A,?V0 + 2
   \   0000C1   9E           SUBB    A,R6
   \   0000C2   E4           CLR     A
   \   0000C3   9F           SUBB    A,R7
   \   0000C4   5040         JNC     ??ZDO_ProcessMgmtBindReq_5
   1532              {
   1533                APSME_GetRequest( apsBindingTable, (x + StartIndex), (void*)pList );
   \   0000C6                ; Setup parameters for call to function APSME_GetRequest
   \   0000C6   7403         MOV     A,#0x3
   \   0000C8   12....       LCALL   ?XSTACK_DISP0_8
   \   0000CB   E0           MOVX    A,@DPTR
   \   0000CC   FC           MOV     R4,A
   \   0000CD   A3           INC     DPTR
   \   0000CE   E0           MOVX    A,@DPTR
   \   0000CF   FD           MOV     R5,A
   \   0000D0   85..82       MOV     DPL,?XSP + 0
   \   0000D3   85..83       MOV     DPH,?XSP + 1
   \   0000D6   E0           MOVX    A,@DPTR
   \   0000D7   F8           MOV     R0,A
   \   0000D8   E5..         MOV     A,?V0 + 2
   \   0000DA   28           ADD     A,R0
   \   0000DB   FA           MOV     R2,A
   \   0000DC   E4           CLR     A
   \   0000DD   3400         ADDC    A,#0x0
   \   0000DF   FB           MOV     R3,A
   \   0000E0   79A2         MOV     R1,#-0x5e
   \   0000E2   12....       LCALL   ??APSME_GetRequest?relay
   1534                pList++;
   \   0000E5   7403         MOV     A,#0x3
   \   0000E7   12....       LCALL   ?XSTACK_DISP0_8
   \   0000EA   E0           MOVX    A,@DPTR
   \   0000EB   2415         ADD     A,#0x15
   \   0000ED   F8           MOV     R0,A
   \   0000EE   A3           INC     DPTR
   \   0000EF   E0           MOVX    A,@DPTR
   \   0000F0   3400         ADDC    A,#0x0
   \   0000F2   F9           MOV     R1,A
   \   0000F3   7403         MOV     A,#0x3
   \   0000F5   12....       LCALL   ?XSTACK_DISP0_8
   \   0000F8   E8           MOV     A,R0
   \   0000F9   F0           MOVX    @DPTR,A
   \   0000FA   A3           INC     DPTR
   \   0000FB   E9           MOV     A,R1
   \   0000FC   F0           MOVX    @DPTR,A
   1535              }
   \   0000FD   05..         INC     ?V0 + 0
   \   0000FF   80BA         SJMP    ??ZDO_ProcessMgmtBindReq_4
   1536              
   1537            }
   1538            else
   1539            {
   1540              status = ZDP_NOT_PERMITTED;
   \                     ??ZDO_ProcessMgmtBindReq_3:
   \   000101   75..8B       MOV     ?V0 + 1,#-0x75
   1541              numItems = 0;
   \   000104   7E00         MOV     R6,#0x0
   1542            }
   1543          
   1544            // Send response
   1545            ZDP_MgmtBindRsp( inMsg->TransSeq, &(inMsg->srcAddr), status, (byte)maxNumItems, StartIndex,
   1546                             (byte)numItems, (apsBindingItem_t *)pBuf, false );
   \                     ??ZDO_ProcessMgmtBindReq_5:
   \   000106                ; Setup parameters for call to function ZDP_MgmtBindRsp
   \   000106   75..00       MOV     ?V0 + 0,#0x0
   \   000109   78..         MOV     R0,#?V0 + 0
   \   00010B   12....       LCALL   ?PUSH_XSTACK_I_ONE
   \   00010E   78..         MOV     R0,#?V0 + 4
   \   000110   12....       LCALL   ?PUSH_XSTACK_I_TWO
   \   000113   EE           MOV     A,R6
   \   000114   F5..         MOV     ?V0 + 0,A
   \   000116   78..         MOV     R0,#?V0 + 0
   \   000118   12....       LCALL   ?PUSH_XSTACK_I_ONE
   \   00011B   7404         MOV     A,#0x4
   \   00011D   12....       LCALL   ?XSTACK_DISP0_8
   \   000120   E0           MOVX    A,@DPTR
   \   000121   F5..         MOV     ?V0 + 0,A
   \   000123   78..         MOV     R0,#?V0 + 0
   \   000125   12....       LCALL   ?PUSH_XSTACK_I_ONE
   \   000128   7406         MOV     A,#0x6
   \   00012A   12....       LCALL   ?XSTACK_DISP0_8
   \   00012D   E0           MOVX    A,@DPTR
   \   00012E   FD           MOV     R5,A
   \   00012F   AC..         MOV     R4,?V0 + 1
   \   000131   740A         MOV     A,#0xa
   \   000133   12....       LCALL   ?XSTACK_DISP0_8
   \   000136   E0           MOVX    A,@DPTR
   \   000137   2402         ADD     A,#0x2
   \   000139   FA           MOV     R2,A
   \   00013A   A3           INC     DPTR
   \   00013B   E0           MOVX    A,@DPTR
   \   00013C   3400         ADDC    A,#0x0
   \   00013E   FB           MOV     R3,A
   \   00013F   740A         MOV     A,#0xa
   \   000141   12....       LCALL   ?XSTACK_DISP0_8
   \   000144   E0           MOVX    A,@DPTR
   \   000145   240F         ADD     A,#0xf
   \   000147   F8           MOV     R0,A
   \   000148   A3           INC     DPTR
   \   000149   E0           MOVX    A,@DPTR
   \   00014A   3400         ADDC    A,#0x0
   \   00014C   F9           MOV     R1,A
   \   00014D   8882         MOV     DPL,R0
   \   00014F   8983         MOV     DPH,R1
   \   000151   E0           MOVX    A,@DPTR
   \   000152   F9           MOV     R1,A
   \   000153   12....       LCALL   ??ZDP_MgmtBindRsp?relay
   \   000156   7405         MOV     A,#0x5
   \   000158   12....       LCALL   ?DEALLOC_XSTACK8
   1547          
   1548            if ( pBuf )
   \   00015B   E5..         MOV     A,?V0 + 4
   \   00015D   45..         ORL     A,?V0 + 5
   \   00015F   6007         JZ      ??ZDO_ProcessMgmtBindReq_6
   1549            {
   1550              osal_mem_free( pBuf );
   \   000161                ; Setup parameters for call to function osal_mem_free
   \   000161   AA..         MOV     R2,?V0 + 4
   \   000163   AB..         MOV     R3,?V0 + 5
   \   000165   12....       LCALL   ??osal_mem_free?relay
   1551            }
   1552          #else
   1553            (void)inMsg;
   1554          #endif
   1555          }
   \                     ??ZDO_ProcessMgmtBindReq_6:
   \   000168   7407         MOV     A,#0x7
   \   00016A   12....       LCALL   ?DEALLOC_XSTACK8
   \   00016D   7F06         MOV     R7,#0x6
   \   00016F   02....       LJMP    ?BANKED_LEAVE_XDATA
   1556          
   1557          /*********************************************************************
   1558           * @fn          ZDO_ProcessMgmtDirectJoinReq
   1559           *
   1560           * @brief       This function finishes the processing of the Management
   1561           *              Direct Join Request and generates the response.
   1562           *
   1563           * @param       inMsg - incoming message (request)
   1564           *
   1565           * @return      none
   1566           */

   \                                 In  segment BANKED_CODE, align 1, keep-with-next
   1567          void ZDO_ProcessMgmtDirectJoinReq( zdoIncomingMsg_t *inMsg )
   \                     ZDO_ProcessMgmtDirectJoinReq:
   1568          {
   \   000000   74F6         MOV     A,#-0xa
   \   000002   12....       LCALL   ?BANKED_ENTER_XDATA
   \   000005                ; Saved register size: 10
   \   000005                ; Auto size: 1
   \   000005   74FF         MOV     A,#-0x1
   \   000007   12....       LCALL   ?ALLOC_XSTACK8
   \   00000A   EA           MOV     A,R2
   \   00000B   FE           MOV     R6,A
   \   00000C   EB           MOV     A,R3
   \   00000D   FF           MOV     R7,A
   1569            uint8 *deviceAddr;
   1570            uint8 capInfo;
   1571            uint8 stat;
   1572          
   1573            // Parse the message
   1574            deviceAddr = inMsg->asdu;
   1575            capInfo = inMsg->asdu[Z_EXTADDR_LEN];
   1576          
   1577            stat = (byte) NLME_DirectJoinRequest( deviceAddr, capInfo );
   \   00000E   EE           MOV     A,R6
   \   00000F   2413         ADD     A,#0x13
   \   000011   F8           MOV     R0,A
   \   000012   EF           MOV     A,R7
   \   000013   3400         ADDC    A,#0x0
   \   000015   F9           MOV     R1,A
   \   000016   E8           MOV     A,R0
   \   000017   FA           MOV     R2,A
   \   000018   E9           MOV     A,R1
   \   000019   FB           MOV     R3,A
   \   00001A                ; Setup parameters for call to function NLME_DirectJoinRequest
   \   00001A   8A82         MOV     DPL,R2
   \   00001C   8B83         MOV     DPH,R3
   \   00001E   E0           MOVX    A,@DPTR
   \   00001F   F8           MOV     R0,A
   \   000020   A3           INC     DPTR
   \   000021   E0           MOVX    A,@DPTR
   \   000022   F583         MOV     DPH,A
   \   000024   8882         MOV     DPL,R0
   \   000026   A3           INC     DPTR
   \   000027   A3           INC     DPTR
   \   000028   A3           INC     DPTR
   \   000029   A3           INC     DPTR
   \   00002A   A3           INC     DPTR
   \   00002B   A3           INC     DPTR
   \   00002C   A3           INC     DPTR
   \   00002D   A3           INC     DPTR
   \   00002E   E0           MOVX    A,@DPTR
   \   00002F   F9           MOV     R1,A
   \   000030   8A82         MOV     DPL,R2
   \   000032   8B83         MOV     DPH,R3
   \   000034   E0           MOVX    A,@DPTR
   \   000035   FA           MOV     R2,A
   \   000036   A3           INC     DPTR
   \   000037   E0           MOVX    A,@DPTR
   \   000038   FB           MOV     R3,A
   \   000039   12....       LCALL   ??NLME_DirectJoinRequest?relay
   \   00003C   E9           MOV     A,R1
   \   00003D   85..82       MOV     DPL,?XSP + 0
   \   000040   85..83       MOV     DPH,?XSP + 1
   \   000043   F0           MOVX    @DPTR,A
   1578          
   1579            ZDP_MgmtDirectJoinRsp( inMsg->TransSeq, &(inMsg->srcAddr), stat, false );
   \   000044                ; Setup parameters for call to function ZDP_SendData
   \   000044   75..00       MOV     ?V0 + 0,#0x0
   \   000047   78..         MOV     R0,#?V0 + 0
   \   000049   12....       LCALL   ?PUSH_XSTACK_I_ONE
   \   00004C   7401         MOV     A,#0x1
   \   00004E   12....       LCALL   ?XSTACK_DISP0_8
   \   000051   8582..       MOV     ?V0 + 0,DPL
   \   000054   8583..       MOV     ?V0 + 1,DPH
   \   000057   78..         MOV     R0,#?V0 + 0
   \   000059   12....       LCALL   ?PUSH_XSTACK_I_TWO
   \   00005C   75..35       MOV     ?V0 + 0,#0x35
   \   00005F   75..80       MOV     ?V0 + 1,#-0x80
   \   000062   78..         MOV     R0,#?V0 + 0
   \   000064   12....       LCALL   ?PUSH_XSTACK_I_TWO
   \   000067   7901         MOV     R1,#0x1
   \   000069   EE           MOV     A,R6
   \   00006A   2402         ADD     A,#0x2
   \   00006C   FC           MOV     R4,A
   \   00006D   EF           MOV     A,R7
   \   00006E   3400         ADDC    A,#0x0
   \   000070   FD           MOV     R5,A
   \   000071   EE           MOV     A,R6
   \   000072   240F         ADD     A,#0xf
   \   000074   FA           MOV     R2,A
   \   000075   EF           MOV     A,R7
   \   000076   3400         ADDC    A,#0x0
   \   000078   FB           MOV     R3,A
   \   000079   12....       LCALL   ??ZDP_SendData?relay
   \   00007C   7405         MOV     A,#0x5
   \   00007E   12....       LCALL   ?DEALLOC_XSTACK8
   1580          }
   \   000081   7401         MOV     A,#0x1
   \   000083   12....       LCALL   ?DEALLOC_XSTACK8
   \   000086   7F02         MOV     R7,#0x2
   \   000088   02....       LJMP    ?BANKED_LEAVE_XDATA
   1581          
   1582          /*********************************************************************
   1583           * @fn          ZDO_ProcessMgmtLeaveReq
   1584           *
   1585           * @brief       This function processes a Management Leave Request
   1586           *              and generates the response.
   1587           *
   1588           * @param       inMsg - incoming message (request)
   1589           *
   1590           * @return      none
   1591           */

   \                                 In  segment BANKED_CODE, align 1, keep-with-next
   1592          void ZDO_ProcessMgmtLeaveReq( zdoIncomingMsg_t *inMsg )
   \                     ZDO_ProcessMgmtLeaveReq:
   1593          {
   \   000000   74F4         MOV     A,#-0xc
   \   000002   12....       LCALL   ?BANKED_ENTER_XDATA
   \   000005                ; Saved register size: 12
   \   000005                ; Auto size: 6
   \   000005   74FA         MOV     A,#-0x6
   \   000007   12....       LCALL   ?ALLOC_XSTACK8
   \   00000A   8A..         MOV     ?V0 + 0,R2
   \   00000C   8B..         MOV     ?V0 + 1,R3
   1594            NLME_LeaveReq_t req;
   1595            ZStatus_t       status;
   1596            uint8           option;
   1597            uint8 *msg = inMsg->asdu;
   \   00000E   EA           MOV     A,R2
   \   00000F   2413         ADD     A,#0x13
   \   000011   F582         MOV     DPL,A
   \   000013   EB           MOV     A,R3
   \   000014   3400         ADDC    A,#0x0
   \   000016   F583         MOV     DPH,A
   \   000018   E0           MOVX    A,@DPTR
   \   000019   FE           MOV     R6,A
   \   00001A   A3           INC     DPTR
   \   00001B   E0           MOVX    A,@DPTR
   \   00001C   FF           MOV     R7,A
   1598          
   1599            if ( ( AddrMgrExtAddrValid( msg ) == FALSE                 ) ||
   1600                 ( osal_ExtAddrEqual( msg, NLME_GetExtAddr() ) == TRUE )    )
   \   00001D                ; Setup parameters for call to function AddrMgrExtAddrValid
   \   00001D   EE           MOV     A,R6
   \   00001E   FA           MOV     R2,A
   \   00001F   EF           MOV     A,R7
   \   000020   FB           MOV     R3,A
   \   000021   12....       LCALL   ??AddrMgrExtAddrValid?relay
   \   000024   E9           MOV     A,R1
   \   000025   6013         JZ      ??ZDO_ProcessMgmtLeaveReq_0
   \   000027                ; Setup parameters for call to function sAddrExtCmp
   \   000027                ; Setup parameters for call to function NLME_GetExtAddr
   \   000027   12....       LCALL   ??NLME_GetExtAddr?relay
   \   00002A   EA           MOV     A,R2
   \   00002B   FC           MOV     R4,A
   \   00002C   EB           MOV     A,R3
   \   00002D   FD           MOV     R5,A
   \   00002E   EE           MOV     A,R6
   \   00002F   FA           MOV     R2,A
   \   000030   EF           MOV     A,R7
   \   000031   FB           MOV     R3,A
   \   000032   12....       LCALL   ??sAddrExtCmp?relay
   \   000035   E9           MOV     A,R1
   \   000036   6401         XRL     A,#0x1
   \   000038   700A         JNZ     ??ZDO_ProcessMgmtLeaveReq_1
   1601            {
   1602              // Remove this device
   1603              req.extAddr = NULL;
   \                     ??ZDO_ProcessMgmtLeaveReq_0:
   \   00003A   7401         MOV     A,#0x1
   \   00003C   12....       LCALL   ?XSTACK_DISP0_8
   \   00003F   E4           CLR     A
   \   000040   F0           MOVX    @DPTR,A
   \   000041   A3           INC     DPTR
   \   000042   8009         SJMP    ??ZDO_ProcessMgmtLeaveReq_2
   1604            }
   1605            else
   1606            {
   1607              // Remove child device
   1608              req.extAddr = msg;
   \                     ??ZDO_ProcessMgmtLeaveReq_1:
   \   000044   7401         MOV     A,#0x1
   \   000046   12....       LCALL   ?XSTACK_DISP0_8
   \   000049   EE           MOV     A,R6
   \   00004A   F0           MOVX    @DPTR,A
   \   00004B   A3           INC     DPTR
   \   00004C   EF           MOV     A,R7
   \                     ??ZDO_ProcessMgmtLeaveReq_2:
   \   00004D   F0           MOVX    @DPTR,A
   1609            }
   1610            
   1611            option = msg[Z_EXTADDR_LEN];
   \   00004E   8E82         MOV     DPL,R6
   \   000050   8F83         MOV     DPH,R7
   \   000052   A3           INC     DPTR
   \   000053   A3           INC     DPTR
   \   000054   A3           INC     DPTR
   \   000055   A3           INC     DPTR
   \   000056   A3           INC     DPTR
   \   000057   A3           INC     DPTR
   \   000058   A3           INC     DPTR
   \   000059   A3           INC     DPTR
   \   00005A   E0           MOVX    A,@DPTR
   \   00005B   F8           MOV     R0,A
   1612            if ( option & ZDP_MGMT_LEAVE_REQ_RC )
   \   00005C   A2E6         MOV     C,0xE0 /* A   */.6
   \   00005E   5008         JNC     ??ZDO_ProcessMgmtLeaveReq_3
   1613            {
   1614              req.removeChildren = TRUE;
   \   000060   7403         MOV     A,#0x3
   \   000062   12....       LCALL   ?XSTACK_DISP0_8
   \   000065   7401         MOV     A,#0x1
   \   000067   F0           MOVX    @DPTR,A
   1615            }
   1616            
   1617            if ( option & ZDP_MGMT_LEAVE_REQ_REJOIN )
   \                     ??ZDO_ProcessMgmtLeaveReq_3:
   \   000068   E8           MOV     A,R0
   \   000069   A2E7         MOV     C,0xE0 /* A   */.7
   \   00006B   5008         JNC     ??ZDO_ProcessMgmtLeaveReq_4
   1618            {
   1619               req.rejoin = TRUE;
   \   00006D   7404         MOV     A,#0x4
   \   00006F   12....       LCALL   ?XSTACK_DISP0_8
   \   000072   7401         MOV     A,#0x1
   \   000074   F0           MOVX    @DPTR,A
   1620            }
   1621          
   1622            req.silent = FALSE;
   \                     ??ZDO_ProcessMgmtLeaveReq_4:
   \   000075   7405         MOV     A,#0x5
   \   000077   12....       LCALL   ?XSTACK_DISP0_8
   \   00007A   E4           CLR     A
   \   00007B   F0           MOVX    @DPTR,A
   1623          
   1624            status = NLME_LeaveReq( &req );
   \   00007C                ; Setup parameters for call to function NLME_LeaveReq
   \   00007C   04           INC     A
   \   00007D   12....       LCALL   ?XSTACK_DISP0_8
   \   000080   AA82         MOV     R2,DPL
   \   000082   AB83         MOV     R3,DPH
   \   000084   12....       LCALL   ??NLME_LeaveReq?relay
   \   000087   E9           MOV     A,R1
   \   000088   85..82       MOV     DPL,?XSP + 0
   \   00008B   85..83       MOV     DPH,?XSP + 1
   \   00008E   F0           MOVX    @DPTR,A
   1625          
   1626            ZDP_MgmtLeaveRsp( inMsg->TransSeq, &(inMsg->srcAddr), status, FALSE );
   \   00008F                ; Setup parameters for call to function ZDP_SendData
   \   00008F   75..00       MOV     ?V0 + 2,#0x0
   \   000092   78..         MOV     R0,#?V0 + 2
   \   000094   12....       LCALL   ?PUSH_XSTACK_I_ONE
   \   000097   7401         MOV     A,#0x1
   \   000099   12....       LCALL   ?XSTACK_DISP0_8
   \   00009C   8582..       MOV     ?V0 + 2,DPL
   \   00009F   8583..       MOV     ?V0 + 3,DPH
   \   0000A2   78..         MOV     R0,#?V0 + 2
   \   0000A4   12....       LCALL   ?PUSH_XSTACK_I_TWO
   \   0000A7   75..34       MOV     ?V0 + 2,#0x34
   \   0000AA   75..80       MOV     ?V0 + 3,#-0x80
   \   0000AD   78..         MOV     R0,#?V0 + 2
   \   0000AF   12....       LCALL   ?PUSH_XSTACK_I_TWO
   \   0000B2   7901         MOV     R1,#0x1
   \   0000B4   E5..         MOV     A,?V0 + 0
   \   0000B6   2402         ADD     A,#0x2
   \   0000B8   FC           MOV     R4,A
   \   0000B9   E5..         MOV     A,?V0 + 1
   \   0000BB   3400         ADDC    A,#0x0
   \   0000BD   FD           MOV     R5,A
   \   0000BE   E5..         MOV     A,?V0 + 0
   \   0000C0   240F         ADD     A,#0xf
   \   0000C2   FA           MOV     R2,A
   \   0000C3   E5..         MOV     A,?V0 + 1
   \   0000C5   3400         ADDC    A,#0x0
   \   0000C7   FB           MOV     R3,A
   \   0000C8   12....       LCALL   ??ZDP_SendData?relay
   \   0000CB   7405         MOV     A,#0x5
   \   0000CD   12....       LCALL   ?DEALLOC_XSTACK8
   1627          }
   \   0000D0   7406         MOV     A,#0x6
   \   0000D2   12....       LCALL   ?DEALLOC_XSTACK8
   \   0000D5   7F04         MOV     R7,#0x4
   \   0000D7   02....       LJMP    ?BANKED_LEAVE_XDATA
   1628          
   1629          
   1630          /*********************************************************************
   1631           * @fn          ZDO_ProcessMgmtPermitJoinReq
   1632           *
   1633           * @brief       This function processes a Management Permit Join Request
   1634           *              and generates the response.
   1635           *
   1636           * @param       inMsg - incoming message (request)
   1637           *
   1638           * @return      none
   1639           */

   \                                 In  segment BANKED_CODE, align 1, keep-with-next
   1640          void ZDO_ProcessMgmtPermitJoinReq( zdoIncomingMsg_t *inMsg )
   \                     ZDO_ProcessMgmtPermitJoinReq:
   1641          {
   \   000000   74F6         MOV     A,#-0xa
   \   000002   12....       LCALL   ?BANKED_ENTER_XDATA
   \   000005                ; Saved register size: 10
   \   000005                ; Auto size: 1
   \   000005   74FF         MOV     A,#-0x1
   \   000007   12....       LCALL   ?ALLOC_XSTACK8
   \   00000A   EA           MOV     A,R2
   \   00000B   FE           MOV     R6,A
   \   00000C   EB           MOV     A,R3
   \   00000D   FF           MOV     R7,A
   1642            uint8 stat;
   1643            uint8 duration;
   1644            uint8 tcsig;
   1645          
   1646            duration = inMsg->asdu[ZDP_MGMT_PERMIT_JOIN_REQ_DURATION];
   1647            tcsig    = inMsg->asdu[ZDP_MGMT_PERMIT_JOIN_REQ_TC_SIG];
   1648          
   1649            // Set the network layer permit join duration
   1650            stat = (byte) NLME_PermitJoiningRequest( duration );
   \   00000E                ; Setup parameters for call to function NLME_PermitJoiningRequest
   \   00000E   EE           MOV     A,R6
   \   00000F   2413         ADD     A,#0x13
   \   000011   F582         MOV     DPL,A
   \   000013   EF           MOV     A,R7
   \   000014   3400         ADDC    A,#0x0
   \   000016   F583         MOV     DPH,A
   \   000018   E0           MOVX    A,@DPTR
   \   000019   F8           MOV     R0,A
   \   00001A   A3           INC     DPTR
   \   00001B   E0           MOVX    A,@DPTR
   \   00001C   F583         MOV     DPH,A
   \   00001E   8882         MOV     DPL,R0
   \   000020   E0           MOVX    A,@DPTR
   \   000021   F9           MOV     R1,A
   \   000022   12....       LCALL   ??NLME_PermitJoiningRequest?relay
   \   000025   E9           MOV     A,R1
   \   000026   85..82       MOV     DPL,?XSP + 0
   \   000029   85..83       MOV     DPH,?XSP + 1
   \   00002C   F0           MOVX    @DPTR,A
   1651          
   1652            // Handle the Trust Center Significance
   1653            if ( ZG_SECURE_ENABLED && ZG_BUILD_COORDINATOR_TYPE && ZG_DEVICE_COORDINATOR_TYPE )
   1654            {
   1655              if ( tcsig == TRUE )
   1656              {
   1657                ZDSecMgrPermitJoining( duration );
   1658              }
   1659            }
   1660          
   1661            // Send a response if unicast
   1662            if (inMsg->srcAddr.addr.shortAddr != NWK_BROADCAST_SHORTADDR)
   \   00002D   EE           MOV     A,R6
   \   00002E   2402         ADD     A,#0x2
   \   000030   FC           MOV     R4,A
   \   000031   EF           MOV     A,R7
   \   000032   3400         ADDC    A,#0x0
   \   000034   FD           MOV     R5,A
   \   000035   8C82         MOV     DPL,R4
   \   000037   8D83         MOV     DPH,R5
   \   000039   E0           MOVX    A,@DPTR
   \   00003A   F4           CPL     A
   \   00003B   7003         JNZ     ??ZDO_ProcessMgmtPermitJoinReq_0
   \   00003D   A3           INC     DPTR
   \   00003E   E0           MOVX    A,@DPTR
   \   00003F   F4           CPL     A
   \                     ??ZDO_ProcessMgmtPermitJoinReq_0:
   \   000040   6035         JZ      ??ZDO_ProcessMgmtPermitJoinReq_1
   1663            {
   1664              ZDP_MgmtPermitJoinRsp( inMsg->TransSeq, &(inMsg->srcAddr), stat, false );
   \   000042                ; Setup parameters for call to function ZDP_SendData
   \   000042   75..00       MOV     ?V0 + 0,#0x0
   \   000045   78..         MOV     R0,#?V0 + 0
   \   000047   12....       LCALL   ?PUSH_XSTACK_I_ONE
   \   00004A   7401         MOV     A,#0x1
   \   00004C   12....       LCALL   ?XSTACK_DISP0_8
   \   00004F   8582..       MOV     ?V0 + 0,DPL
   \   000052   8583..       MOV     ?V0 + 1,DPH
   \   000055   78..         MOV     R0,#?V0 + 0
   \   000057   12....       LCALL   ?PUSH_XSTACK_I_TWO
   \   00005A   75..36       MOV     ?V0 + 0,#0x36
   \   00005D   75..80       MOV     ?V0 + 1,#-0x80
   \   000060   78..         MOV     R0,#?V0 + 0
   \   000062   12....       LCALL   ?PUSH_XSTACK_I_TWO
   \   000065   7901         MOV     R1,#0x1
   \   000067   EE           MOV     A,R6
   \   000068   240F         ADD     A,#0xf
   \   00006A   FA           MOV     R2,A
   \   00006B   EF           MOV     A,R7
   \   00006C   3400         ADDC    A,#0x0
   \   00006E   FB           MOV     R3,A
   \   00006F   12....       LCALL   ??ZDP_SendData?relay
   \   000072   7405         MOV     A,#0x5
   \   000074   12....       LCALL   ?DEALLOC_XSTACK8
   1665            }
   1666          }
   \                     ??ZDO_ProcessMgmtPermitJoinReq_1:
   \   000077   7401         MOV     A,#0x1
   \   000079   12....       LCALL   ?DEALLOC_XSTACK8
   \   00007C   7F02         MOV     R7,#0x2
   \   00007E   02....       LJMP    ?BANKED_LEAVE_XDATA
   1667          
   1668          /*
   1669           * This function stub allows the next higher layer to be notified of
   1670           * a permit joining timeout.
   1671           */
   1672          /*********************************************************************
   1673           * @fn          ZDO_ProcessMgmtPermitJoinTimeout
   1674           *
   1675           * @brief       This function stub allows the next higher layer to be
   1676           *              notified of a permit joining timeout. Currently, this
   1677           *              directly bypasses the APS layer.
   1678           *
   1679           * @param       none
   1680           *
   1681           * @return      none
   1682           */

   \                                 In  segment BANKED_CODE, align 1, keep-with-next
   1683          void ZDO_ProcessMgmtPermitJoinTimeout( void )
   \                     NLME_PermitJoiningTimeout:
   1684          {
   \   000000                ; Saved register size: 0
   \   000000                ; Auto size: 0
   1685            #if defined( ZDO_MGMT_PERMIT_JOIN_RESPONSE )
   1686            // Currently, only the ZDSecMgr needs to be notified
   1687            if ( ZG_SECURE_ENABLED && ZG_BUILD_COORDINATOR_TYPE && ZG_DEVICE_COORDINATOR_TYPE )
   1688            {
   1689              ZDSecMgrPermitJoiningTimeout();
   1690            }
   1691            #endif
   1692          }
   \   000000   02....       LJMP    ?BRET
   1693          
   1694          /*********************************************************************
   1695           * @fn          ZDO_ProcessUserDescReq
   1696           *
   1697           * @brief       This function finishes the processing of the User
   1698           *              Descriptor Request and generates the response.
   1699           *
   1700           * @param       inMsg - incoming message (request)
   1701           *
   1702           * @return      none
   1703           */

   \                                 In  segment BANKED_CODE, align 1, keep-with-next
   1704          void ZDO_ProcessUserDescReq( zdoIncomingMsg_t *inMsg )
   \                     ZDO_ProcessUserDescReq:
   1705          {
   \   000000   74F4         MOV     A,#-0xc
   \   000002   12....       LCALL   ?BANKED_ENTER_XDATA
   \   000005                ; Saved register size: 12
   \   000005                ; Auto size: 17
   \   000005   74EF         MOV     A,#-0x11
   \   000007   12....       LCALL   ?ALLOC_XSTACK8
   \   00000A   EA           MOV     A,R2
   \   00000B   FE           MOV     R6,A
   \   00000C   EB           MOV     A,R3
   \   00000D   FF           MOV     R7,A
   1706            uint16 aoi = BUILD_UINT16( inMsg->asdu[0], inMsg->asdu[1] );
   \   00000E   EE           MOV     A,R6
   \   00000F   2413         ADD     A,#0x13
   \   000011   F8           MOV     R0,A
   \   000012   EF           MOV     A,R7
   \   000013   3400         ADDC    A,#0x0
   \   000015   F9           MOV     R1,A
   \   000016   8882         MOV     DPL,R0
   \   000018   8983         MOV     DPH,R1
   \   00001A   E0           MOVX    A,@DPTR
   \   00001B   FA           MOV     R2,A
   \   00001C   A3           INC     DPTR
   \   00001D   E0           MOVX    A,@DPTR
   \   00001E   F583         MOV     DPH,A
   \   000020   8A82         MOV     DPL,R2
   \   000022   E0           MOVX    A,@DPTR
   \   000023   FA           MOV     R2,A
   \   000024   8882         MOV     DPL,R0
   \   000026   8983         MOV     DPH,R1
   \   000028   E0           MOVX    A,@DPTR
   \   000029   F8           MOV     R0,A
   \   00002A   A3           INC     DPTR
   \   00002B   E0           MOVX    A,@DPTR
   \   00002C   F583         MOV     DPH,A
   \   00002E   8882         MOV     DPL,R0
   \   000030   A3           INC     DPTR
   \   000031   E0           MOVX    A,@DPTR
   \   000032   F9           MOV     R1,A
   \   000033   EA           MOV     A,R2
   \   000034   2400         ADD     A,#0x0
   \   000036   F5..         MOV     ?V0 + 0,A
   \   000038   E4           CLR     A
   \   000039   39           ADDC    A,R1
   \   00003A   F5..         MOV     ?V0 + 1,A
   1707            UserDescriptorFormat_t userDesc;
   1708          
   1709            if ( (aoi == ZDAppNwkAddr.addr.shortAddr) && (ZSUCCESS == osal_nv_read(
   1710                       ZCD_NV_USERDESC, 0, sizeof(UserDescriptorFormat_t), &userDesc )) )
   \   00003C   90....       MOV     DPTR,#ZDAppNwkAddr
   \   00003F   E0           MOVX    A,@DPTR
   \   000040   65..         XRL     A,?V0 + 0
   \   000042   7004         JNZ     ??ZDO_ProcessUserDescReq_0
   \   000044   A3           INC     DPTR
   \   000045   E0           MOVX    A,@DPTR
   \   000046   65..         XRL     A,?V0 + 1
   \                     ??ZDO_ProcessUserDescReq_0:
   \   000048   7069         JNZ     ??ZDO_ProcessUserDescReq_1
   \   00004A                ; Setup parameters for call to function osal_nv_read
   \   00004A   85..82       MOV     DPL,?XSP + 0
   \   00004D   85..83       MOV     DPH,?XSP + 1
   \   000050   8582..       MOV     ?V0 + 2,DPL
   \   000053   8583..       MOV     ?V0 + 3,DPH
   \   000056   78..         MOV     R0,#?V0 + 2
   \   000058   12....       LCALL   ?PUSH_XSTACK_I_TWO
   \   00005B   75..11       MOV     ?V0 + 2,#0x11
   \   00005E   75..00       MOV     ?V0 + 3,#0x0
   \   000061   78..         MOV     R0,#?V0 + 2
   \   000063   12....       LCALL   ?PUSH_XSTACK_I_TWO
   \   000066   7C00         MOV     R4,#0x0
   \   000068   7D00         MOV     R5,#0x0
   \   00006A   7A81         MOV     R2,#-0x7f
   \   00006C   7B00         MOV     R3,#0x0
   \   00006E   12....       LCALL   ??osal_nv_read?relay
   \   000071   7404         MOV     A,#0x4
   \   000073   12....       LCALL   ?DEALLOC_XSTACK8
   \   000076   E9           MOV     A,R1
   \   000077   703A         JNZ     ??ZDO_ProcessUserDescReq_1
   1711            {
   1712              ZDP_UserDescRsp( inMsg->TransSeq, &(inMsg->srcAddr), aoi, &userDesc, false );
   \   000079                ; Setup parameters for call to function ZDP_UserDescRsp
   \   000079   75..00       MOV     ?V0 + 2,#0x0
   \   00007C   78..         MOV     R0,#?V0 + 2
   \   00007E   12....       LCALL   ?PUSH_XSTACK_I_ONE
   \   000081   7401         MOV     A,#0x1
   \   000083   12....       LCALL   ?XSTACK_DISP0_8
   \   000086   8582..       MOV     ?V0 + 2,DPL
   \   000089   8583..       MOV     ?V0 + 3,DPH
   \   00008C   78..         MOV     R0,#?V0 + 2
   \   00008E   12....       LCALL   ?PUSH_XSTACK_I_TWO
   \   000091   AC..         MOV     R4,?V0 + 0
   \   000093   AD..         MOV     R5,?V0 + 1
   \   000095   EE           MOV     A,R6
   \   000096   2402         ADD     A,#0x2
   \   000098   FA           MOV     R2,A
   \   000099   EF           MOV     A,R7
   \   00009A   3400         ADDC    A,#0x0
   \   00009C   FB           MOV     R3,A
   \   00009D   EE           MOV     A,R6
   \   00009E   240F         ADD     A,#0xf
   \   0000A0   F582         MOV     DPL,A
   \   0000A2   EF           MOV     A,R7
   \   0000A3   3400         ADDC    A,#0x0
   \   0000A5   F583         MOV     DPH,A
   \   0000A7   E0           MOVX    A,@DPTR
   \   0000A8   F9           MOV     R1,A
   \   0000A9   12....       LCALL   ??ZDP_UserDescRsp?relay
   \   0000AC   7403         MOV     A,#0x3
   \   0000AE   12....       LCALL   ?DEALLOC_XSTACK8
   \   0000B1   803A         SJMP    ??ZDO_ProcessUserDescReq_2
   1713            }
   1714            else
   1715            {
   1716              ZDP_GenericRsp(inMsg->TransSeq, &(inMsg->srcAddr), 
   1717                     ZDP_NOT_SUPPORTED, aoi, User_Desc_rsp, inMsg->SecurityUse );
   \                     ??ZDO_ProcessUserDescReq_1:
   \   0000B3                ; Setup parameters for call to function ZDP_GenericRsp
   \   0000B3   75..11       MOV     ?V0 + 2,#0x11
   \   0000B6   75..80       MOV     ?V0 + 3,#-0x80
   \   0000B9   78..         MOV     R0,#?V0 + 2
   \   0000BB   12....       LCALL   ?PUSH_XSTACK_I_TWO
   \   0000BE   78..         MOV     R0,#?V0 + 0
   \   0000C0   12....       LCALL   ?PUSH_XSTACK_I_TWO
   \   0000C3   EE           MOV     A,R6
   \   0000C4   240E         ADD     A,#0xe
   \   0000C6   F582         MOV     DPL,A
   \   0000C8   EF           MOV     A,R7
   \   0000C9   3400         ADDC    A,#0x0
   \   0000CB   F583         MOV     DPH,A
   \   0000CD   E0           MOVX    A,@DPTR
   \   0000CE   FD           MOV     R5,A
   \   0000CF   7C84         MOV     R4,#-0x7c
   \   0000D1   EE           MOV     A,R6
   \   0000D2   2402         ADD     A,#0x2
   \   0000D4   FA           MOV     R2,A
   \   0000D5   EF           MOV     A,R7
   \   0000D6   3400         ADDC    A,#0x0
   \   0000D8   FB           MOV     R3,A
   \   0000D9   EE           MOV     A,R6
   \   0000DA   240F         ADD     A,#0xf
   \   0000DC   F582         MOV     DPL,A
   \   0000DE   EF           MOV     A,R7
   \   0000DF   3400         ADDC    A,#0x0
   \   0000E1   F583         MOV     DPH,A
   \   0000E3   E0           MOVX    A,@DPTR
   \   0000E4   F9           MOV     R1,A
   \   0000E5   12....       LCALL   ??ZDP_GenericRsp?relay
   \   0000E8   7404         MOV     A,#0x4
   \   0000EA   12....       LCALL   ?DEALLOC_XSTACK8
   1718            }
   1719          }
   \                     ??ZDO_ProcessUserDescReq_2:
   \   0000ED   7411         MOV     A,#0x11
   \   0000EF   12....       LCALL   ?DEALLOC_XSTACK8
   \   0000F2   7F04         MOV     R7,#0x4
   \   0000F4   02....       LJMP    ?BANKED_LEAVE_XDATA
   1720          
   1721          /*********************************************************************
   1722           * @fn          ZDO_ProcessUserDescSet
   1723           *
   1724           * @brief       This function finishes the processing of the User
   1725           *              Descriptor Set and generates the response.
   1726           *
   1727           * @param       inMsg - incoming message (request)
   1728           *
   1729           * @return      none
   1730           */

   \                                 In  segment BANKED_CODE, align 1, keep-with-next
   1731          void ZDO_ProcessUserDescSet( zdoIncomingMsg_t *inMsg )
   \                     ZDO_ProcessUserDescSet:
   1732          {
   \   000000   74F2         MOV     A,#-0xe
   \   000002   12....       LCALL   ?BANKED_ENTER_XDATA
   \   000005                ; Saved register size: 14
   \   000005                ; Auto size: 21
   \   000005   74EB         MOV     A,#-0x15
   \   000007   12....       LCALL   ?ALLOC_XSTACK8
   \   00000A   8A..         MOV     ?V0 + 4,R2
   \   00000C   8B..         MOV     ?V0 + 5,R3
   1733            uint8 *msg;
   1734            uint16 aoi;
   1735            UserDescriptorFormat_t userDesc;
   1736            uint8 outMsg[3];
   1737            uint8 status;
   1738          
   1739            msg = inMsg->asdu;
   \   00000E   EA           MOV     A,R2
   \   00000F   2413         ADD     A,#0x13
   \   000011   F582         MOV     DPL,A
   \   000013   EB           MOV     A,R3
   \   000014   3400         ADDC    A,#0x0
   \   000016   F583         MOV     DPH,A
   \   000018   E0           MOVX    A,@DPTR
   \   000019   F8           MOV     R0,A
   \   00001A   A3           INC     DPTR
   \   00001B   E0           MOVX    A,@DPTR
   \   00001C   F9           MOV     R1,A
   1740            aoi = BUILD_UINT16( msg[0], msg[1] );
   \   00001D   8882         MOV     DPL,R0
   \   00001F   8983         MOV     DPH,R1
   \   000021   E0           MOVX    A,@DPTR
   \   000022   FC           MOV     R4,A
   \   000023   A3           INC     DPTR
   \   000024   E0           MOVX    A,@DPTR
   \   000025   FB           MOV     R3,A
   \   000026   EC           MOV     A,R4
   \   000027   2400         ADD     A,#0x0
   \   000029   FE           MOV     R6,A
   \   00002A   E4           CLR     A
   \   00002B   3B           ADDC    A,R3
   \   00002C   FF           MOV     R7,A
   1741          
   1742            if ( aoi == ZDAppNwkAddr.addr.shortAddr )
   \   00002D   90....       MOV     DPTR,#ZDAppNwkAddr
   \   000030   E0           MOVX    A,@DPTR
   \   000031   6E           XRL     A,R6
   \   000032   7003         JNZ     ??ZDO_ProcessUserDescSet_0
   \   000034   A3           INC     DPTR
   \   000035   E0           MOVX    A,@DPTR
   \   000036   6F           XRL     A,R7
   \                     ??ZDO_ProcessUserDescSet_0:
   \   000037   6003         JZ      $+5
   \   000039   02....       LJMP    ??ZDO_ProcessUserDescSet_1 & 0xFFFF
   1743            {
   1744              userDesc.len = (msg[2] < AF_MAX_USER_DESCRIPTOR_LEN) ? msg[2] : AF_MAX_USER_DESCRIPTOR_LEN;
   \   00003C   E8           MOV     A,R0
   \   00003D   2402         ADD     A,#0x2
   \   00003F   F582         MOV     DPL,A
   \   000041   E9           MOV     A,R1
   \   000042   3400         ADDC    A,#0x0
   \   000044   F583         MOV     DPH,A
   \   000046   E0           MOVX    A,@DPTR
   \   000047   C3           CLR     C
   \   000048   9410         SUBB    A,#0x10
   \   00004A   5009         JNC     ??ZDO_ProcessUserDescSet_2
   \   00004C   E0           MOVX    A,@DPTR
   \   00004D   85..82       MOV     DPL,?XSP + 0
   \   000050   85..83       MOV     DPH,?XSP + 1
   \   000053   8008         SJMP    ??ZDO_ProcessUserDescSet_3
   \                     ??ZDO_ProcessUserDescSet_2:
   \   000055   85..82       MOV     DPL,?XSP + 0
   \   000058   85..83       MOV     DPH,?XSP + 1
   \   00005B   7410         MOV     A,#0x10
   \                     ??ZDO_ProcessUserDescSet_3:
   \   00005D   F0           MOVX    @DPTR,A
   \   00005E   E0           MOVX    A,@DPTR
   \   00005F   C0E0         PUSH    A
   \   000061   7404         MOV     A,#0x4
   \   000063   12....       LCALL   ?XSTACK_DISP0_8
   \   000066   D0E0         POP     A
   \   000068   F0           MOVX    @DPTR,A
   1745              msg ++;  // increment one for the length field
   1746              
   1747              osal_memcpy( userDesc.desc, &msg[2], userDesc.len );
   \   000069                ; Setup parameters for call to function osal_memcpy
   \   000069   8882         MOV     DPL,R0
   \   00006B   8983         MOV     DPH,R1
   \   00006D   A3           INC     DPTR
   \   00006E   A3           INC     DPTR
   \   00006F   A3           INC     DPTR
   \   000070   A982         MOV     R1,DPL
   \   000072   AA83         MOV     R2,DPH
   \   000074   89..         MOV     ?V0 + 0,R1
   \   000076   8A..         MOV     ?V0 + 1,R2
   \   000078   75..00       MOV     ?V0 + 2,#0x0
   \   00007B   78..         MOV     R0,#?V0 + 0
   \   00007D   12....       LCALL   ?PUSH_XSTACK_I_THREE
   \   000080   7407         MOV     A,#0x7
   \   000082   12....       LCALL   ?XSTACK_DISP0_8
   \   000085   E0           MOVX    A,@DPTR
   \   000086   FC           MOV     R4,A
   \   000087   7D00         MOV     R5,#0x0
   \   000089   7408         MOV     A,#0x8
   \   00008B   12....       LCALL   ?XSTACK_DISP0_8
   \   00008E   AA82         MOV     R2,DPL
   \   000090   AB83         MOV     R3,DPH
   \   000092   12....       LCALL   ??osal_memcpy?relay
   \   000095   7403         MOV     A,#0x3
   \   000097   12....       LCALL   ?DEALLOC_XSTACK8
   1748              osal_nv_write( ZCD_NV_USERDESC, 0, sizeof(UserDescriptorFormat_t), &userDesc );
   \   00009A                ; Setup parameters for call to function osal_nv_write
   \   00009A   7404         MOV     A,#0x4
   \   00009C   12....       LCALL   ?XSTACK_DISP0_8
   \   00009F   8582..       MOV     ?V0 + 0,DPL
   \   0000A2   8583..       MOV     ?V0 + 1,DPH
   \   0000A5   78..         MOV     R0,#?V0 + 0
   \   0000A7   12....       LCALL   ?PUSH_XSTACK_I_TWO
   \   0000AA   75..11       MOV     ?V0 + 0,#0x11
   \   0000AD   75..00       MOV     ?V0 + 1,#0x0
   \   0000B0   78..         MOV     R0,#?V0 + 0
   \   0000B2   12....       LCALL   ?PUSH_XSTACK_I_TWO
   \   0000B5   7C00         MOV     R4,#0x0
   \   0000B7   7D00         MOV     R5,#0x0
   \   0000B9   7A81         MOV     R2,#-0x7f
   \   0000BB   7B00         MOV     R3,#0x0
   \   0000BD   12....       LCALL   ??osal_nv_write?relay
   \   0000C0   7404         MOV     A,#0x4
   \   0000C2   12....       LCALL   ?DEALLOC_XSTACK8
   1749              if ( userDesc.len != 0 )
   \   0000C5   7404         MOV     A,#0x4
   \   0000C7   12....       LCALL   ?XSTACK_DISP0_8
   \   0000CA   E0           MOVX    A,@DPTR
   \   0000CB   90....       MOV     DPTR,#ZDO_Config_Node_Descriptor
   \   0000CE   6005         JZ      ??ZDO_ProcessUserDescSet_4
   1750              {
   1751                ZDO_Config_Node_Descriptor.UserDescAvail = TRUE;
   \   0000D0   E0           MOVX    A,@DPTR
   \   0000D1   D2E4         SETB    0xE0 /* A   */.4
   \   0000D3   8003         SJMP    ??ZDO_ProcessUserDescSet_5
   1752              }
   1753              else
   1754              {
   1755                ZDO_Config_Node_Descriptor.UserDescAvail = FALSE;
   \                     ??ZDO_ProcessUserDescSet_4:
   \   0000D5   E0           MOVX    A,@DPTR
   \   0000D6   C2E4         CLR     0xE0 /* A   */.4
   \                     ??ZDO_ProcessUserDescSet_5:
   \   0000D8   F0           MOVX    @DPTR,A
   1756              }
   1757          
   1758              status = ZDP_SUCCESS;
   \   0000D9   85..82       MOV     DPL,?XSP + 0
   \   0000DC   85..83       MOV     DPH,?XSP + 1
   \   0000DF   E4           CLR     A
   \   0000E0   8008         SJMP    ??ZDO_ProcessUserDescSet_6
   1759            }
   1760            else
   1761            {
   1762              status =  ZDP_NOT_SUPPORTED;
   \                     ??ZDO_ProcessUserDescSet_1:
   \   0000E2   85..82       MOV     DPL,?XSP + 0
   \   0000E5   85..83       MOV     DPH,?XSP + 1
   \   0000E8   7484         MOV     A,#-0x7c
   \                     ??ZDO_ProcessUserDescSet_6:
   \   0000EA   F0           MOVX    @DPTR,A
   1763            }
   1764          
   1765            outMsg[0] = status;
   \   0000EB   E0           MOVX    A,@DPTR
   \   0000EC   C0E0         PUSH    A
   \   0000EE   7401         MOV     A,#0x1
   \   0000F0   12....       LCALL   ?XSTACK_DISP0_8
   \   0000F3   D0E0         POP     A
   \   0000F5   F0           MOVX    @DPTR,A
   1766            outMsg[1] = LO_UINT16( aoi );
   \   0000F6   EE           MOV     A,R6
   \   0000F7   C0E0         PUSH    A
   \   0000F9   7402         MOV     A,#0x2
   \   0000FB   12....       LCALL   ?XSTACK_DISP0_8
   \   0000FE   D0E0         POP     A
   \   000100   F0           MOVX    @DPTR,A
   1767            outMsg[2] = LO_UINT16( aoi );
   \   000101   EE           MOV     A,R6
   \   000102   C0E0         PUSH    A
   \   000104   7403         MOV     A,#0x3
   \   000106   12....       LCALL   ?XSTACK_DISP0_8
   \   000109   D0E0         POP     A
   \   00010B   F0           MOVX    @DPTR,A
   1768          
   1769            ZDP_SendData( &(inMsg->TransSeq), &(inMsg->srcAddr), User_Desc_conf, 3, outMsg, 
   1770                         inMsg->SecurityUse );
   \   00010C                ; Setup parameters for call to function ZDP_SendData
   \   00010C   E5..         MOV     A,?V0 + 4
   \   00010E   240E         ADD     A,#0xe
   \   000110   F582         MOV     DPL,A
   \   000112   E5..         MOV     A,?V0 + 5
   \   000114   3400         ADDC    A,#0x0
   \   000116   F583         MOV     DPH,A
   \   000118   E0           MOVX    A,@DPTR
   \   000119   F5..         MOV     ?V0 + 0,A
   \   00011B   78..         MOV     R0,#?V0 + 0
   \   00011D   12....       LCALL   ?PUSH_XSTACK_I_ONE
   \   000120   7402         MOV     A,#0x2
   \   000122   12....       LCALL   ?XSTACK_DISP0_8
   \   000125   8582..       MOV     ?V0 + 0,DPL
   \   000128   8583..       MOV     ?V0 + 1,DPH
   \   00012B   78..         MOV     R0,#?V0 + 0
   \   00012D   12....       LCALL   ?PUSH_XSTACK_I_TWO
   \   000130   75..14       MOV     ?V0 + 0,#0x14
   \   000133   75..80       MOV     ?V0 + 1,#-0x80
   \   000136   78..         MOV     R0,#?V0 + 0
   \   000138   12....       LCALL   ?PUSH_XSTACK_I_TWO
   \   00013B   7903         MOV     R1,#0x3
   \   00013D   E5..         MOV     A,?V0 + 4
   \   00013F   2402         ADD     A,#0x2
   \   000141   FC           MOV     R4,A
   \   000142   E5..         MOV     A,?V0 + 5
   \   000144   3400         ADDC    A,#0x0
   \   000146   FD           MOV     R5,A
   \   000147   E5..         MOV     A,?V0 + 4
   \   000149   240F         ADD     A,#0xf
   \   00014B   FA           MOV     R2,A
   \   00014C   E5..         MOV     A,?V0 + 5
   \   00014E   3400         ADDC    A,#0x0
   \   000150   FB           MOV     R3,A
   \   000151   12....       LCALL   ??ZDP_SendData?relay
   \   000154   7405         MOV     A,#0x5
   \   000156   12....       LCALL   ?DEALLOC_XSTACK8
   1771          }
   \   000159   7415         MOV     A,#0x15
   \   00015B   12....       LCALL   ?DEALLOC_XSTACK8
   \   00015E   7F06         MOV     R7,#0x6
   \   000160   02....       LJMP    ?BANKED_LEAVE_XDATA
   1772          
   1773          /*********************************************************************
   1774           * @fn          ZDO_ProcessDeviceAnnce
   1775           *
   1776           * @brief       This function processes a device annouce message.
   1777           *
   1778           * @param       inMsg - incoming message
   1779           *
   1780           * @return      none
   1781           */

   \                                 In  segment BANKED_CODE, align 1, keep-with-next
   1782          void ZDO_ProcessDeviceAnnce( zdoIncomingMsg_t *inMsg )
   \                     ZDO_ProcessDeviceAnnce:
   1783          {
   \   000000   74F6         MOV     A,#-0xa
   \   000002   12....       LCALL   ?BANKED_ENTER_XDATA
   \   000005                ; Saved register size: 10
   \   000005                ; Auto size: 32
   \   000005   74E0         MOV     A,#-0x20
   \   000007   12....       LCALL   ?ALLOC_XSTACK8
   \   00000A   EA           MOV     A,R2
   \   00000B   FE           MOV     R6,A
   \   00000C   EB           MOV     A,R3
   \   00000D   FF           MOV     R7,A
   1784            ZDO_DeviceAnnce_t Annce;
   1785            AddrMgrEntry_t addrEntry;
   1786            uint8 parentExt[Z_EXTADDR_LEN];
   1787          
   1788            // Parse incoming message
   1789            ZDO_ParseDeviceAnnce( inMsg, &Annce );
   \   00000E                ; Setup parameters for call to function ZDO_ParseDeviceAnnce
   \   00000E   85..82       MOV     DPL,?XSP + 0
   \   000011   85..83       MOV     DPH,?XSP + 1
   \   000014   AC82         MOV     R4,DPL
   \   000016   AD83         MOV     R5,DPH
   \   000018   12....       LCALL   ??ZDO_ParseDeviceAnnce?relay
   1790          
   1791            if ( ZSTACK_END_DEVICE_BUILD )
   1792            {
   1793              // Make sure the message didn't come from myself - end device only
   1794              if ( osal_ExtAddrEqual( NLME_GetExtAddr(), Annce.extAddr ) && Annce.nwkAddr == NLME_GetShortAddr() )
   1795              {
   1796                return;
   1797              }
   1798            }
   1799            
   1800          #if defined ( ZIGBEE_STOCHASTIC_ADDRESSING )
   1801            // Clean up the neighbor table
   1802            nwkNeighborRemoveAllStranded();
   \   00001B                ; Setup parameters for call to function nwkNeighborRemoveAllStranded
   \   00001B   12....       LCALL   ??nwkNeighborRemoveAllStranded?relay
   1803            
   1804            // If address conflict is detected, no need to update the address manager
   1805            if ( NLME_CheckNewAddrSet( Annce.nwkAddr, Annce.extAddr )== ZFailure )
   \   00001E                ; Setup parameters for call to function NLME_CheckNewAddrSet
   \   00001E   7402         MOV     A,#0x2
   \   000020   12....       LCALL   ?XSTACK_DISP0_8
   \   000023   AC82         MOV     R4,DPL
   \   000025   AD83         MOV     R5,DPH
   \   000027   85..82       MOV     DPL,?XSP + 0
   \   00002A   85..83       MOV     DPH,?XSP + 1
   \   00002D   E0           MOVX    A,@DPTR
   \   00002E   FA           MOV     R2,A
   \   00002F   A3           INC     DPTR
   \   000030   E0           MOVX    A,@DPTR
   \   000031   FB           MOV     R3,A
   \   000032   12....       LCALL   ??NLME_CheckNewAddrSet?relay
   \   000035   E9           MOV     A,R1
   \   000036   6401         XRL     A,#0x1
   \   000038   7003         JNZ     $+5
   \   00003A   02....       LJMP    ??ZDO_ProcessDeviceAnnce_0 & 0xFFFF
   1806            {
   1807              return;
   1808            }
   1809          #endif  
   1810          
   1811          #if defined ( ZIGBEE_STOCHASTIC_ADDRESSING )
   1812            // Check for parent's address
   1813            NLME_GetCoordExtAddr( parentExt );
   \   00003D                ; Setup parameters for call to function NLME_GetCoordExtAddr
   \   00003D   740B         MOV     A,#0xb
   \   00003F   12....       LCALL   ?XSTACK_DISP0_8
   \   000042   AA82         MOV     R2,DPL
   \   000044   AB83         MOV     R3,DPH
   \   000046   12....       LCALL   ??NLME_GetCoordExtAddr?relay
   1814            if ( osal_ExtAddrEqual( parentExt, Annce.extAddr ) )
   \   000049                ; Setup parameters for call to function sAddrExtCmp
   \   000049   7402         MOV     A,#0x2
   \   00004B   12....       LCALL   ?XSTACK_DISP0_8
   \   00004E   AC82         MOV     R4,DPL
   \   000050   AD83         MOV     R5,DPH
   \   000052   740B         MOV     A,#0xb
   \   000054   12....       LCALL   ?XSTACK_DISP0_8
   \   000057   AA82         MOV     R2,DPL
   \   000059   AB83         MOV     R3,DPH
   \   00005B   12....       LCALL   ??sAddrExtCmp?relay
   \   00005E   E9           MOV     A,R1
   \   00005F   6036         JZ      ??ZDO_ProcessDeviceAnnce_1
   1815            {
   1816              if ( Annce.nwkAddr != NLME_GetCoordShortAddr() )
   \   000061                ; Setup parameters for call to function NLME_GetCoordShortAddr
   \   000061   12....       LCALL   ??NLME_GetCoordShortAddr?relay
   \   000064   8A..         MOV     ?V0 + 0,R2
   \   000066   8B..         MOV     ?V0 + 1,R3
   \   000068   A8..         MOV     R0,?V0 + 0
   \   00006A   A9..         MOV     R1,?V0 + 1
   \   00006C   85..82       MOV     DPL,?XSP + 0
   \   00006F   85..83       MOV     DPH,?XSP + 1
   \   000072   E0           MOVX    A,@DPTR
   \   000073   68           XRL     A,R0
   \   000074   7003         JNZ     ??ZDO_ProcessDeviceAnnce_2
   \   000076   A3           INC     DPTR
   \   000077   E0           MOVX    A,@DPTR
   \   000078   69           XRL     A,R1
   \                     ??ZDO_ProcessDeviceAnnce_2:
   \   000079   601C         JZ      ??ZDO_ProcessDeviceAnnce_1
   1817              {
   1818                // Set the Parent's MAC's new short address
   1819                _NIB.nwkCoordAddress = Annce.nwkAddr;
   \   00007B   85..82       MOV     DPL,?XSP + 0
   \   00007E   85..83       MOV     DPH,?XSP + 1
   \   000081   E0           MOVX    A,@DPTR
   \   000082   F8           MOV     R0,A
   \   000083   A3           INC     DPTR
   \   000084   E0           MOVX    A,@DPTR
   \   000085   F9           MOV     R1,A
   \   000086   90....       MOV     DPTR,#_NIB + 23
   \   000089   E8           MOV     A,R0
   \   00008A   F0           MOVX    @DPTR,A
   \   00008B   A3           INC     DPTR
   \   00008C   E9           MOV     A,R1
   \   00008D   F0           MOVX    @DPTR,A
   1820                ZMacSetReq( ZMacCoordShortAddress, (byte*)&(_NIB.nwkCoordAddress) );
   \   00008E                ; Setup parameters for call to function ZMacSetReq
   \   00008E   7A..         MOV     R2,#(_NIB + 23) & 0xff
   \   000090   7B..         MOV     R3,#((_NIB + 23) >> 8) & 0xff
   \   000092   794B         MOV     R1,#0x4b
   \   000094   12....       LCALL   ??ZMacSetReq?relay
   1821              }
   1822            }
   1823            
   1824            if ( ZSTACK_ROUTER_BUILD )
   1825            {
   1826              // If the device annce comes from a end device child that has moved 
   1827              // to another parent, remove it from associated device list
   1828          
   1829              // If the dev annce is coming from other device's children,
   1830              // (The dev annce from its own children shall be unicast to itself, 
   1831              // So check the mac destination address)
   1832              // Remove it from the associated device list. If it is not
   1833              // a child, no action will be taken in AssocRemove() anyway.
   1834              if ( inMsg->macDestAddr != NLME_GetShortAddr() )
   \                     ??ZDO_ProcessDeviceAnnce_1:
   \   000097   EE           MOV     A,R6
   \   000098   2411         ADD     A,#0x11
   \   00009A   F582         MOV     DPL,A
   \   00009C   EF           MOV     A,R7
   \   00009D   3400         ADDC    A,#0x0
   \   00009F   F583         MOV     DPH,A
   \   0000A1   C082         PUSH    DPL
   \   0000A3   C083         PUSH    DPH
   \   0000A5                ; Setup parameters for call to function NLME_GetShortAddr
   \   0000A5   12....       LCALL   ??NLME_GetShortAddr?relay
   \   0000A8   8A..         MOV     ?V0 + 0,R2
   \   0000AA   8B..         MOV     ?V0 + 1,R3
   \   0000AC   D083         POP     DPH
   \   0000AE   D082         POP     DPL
   \   0000B0   E0           MOVX    A,@DPTR
   \   0000B1   65..         XRL     A,?V0 + 0
   \   0000B3   7004         JNZ     ??ZDO_ProcessDeviceAnnce_3
   \   0000B5   A3           INC     DPTR
   \   0000B6   E0           MOVX    A,@DPTR
   \   0000B7   65..         XRL     A,?V0 + 1
   \                     ??ZDO_ProcessDeviceAnnce_3:
   \   0000B9   6038         JZ      ??ZDO_ProcessDeviceAnnce_4
   1835              {
   1836                associated_devices_t *dev_ptr;
   1837          
   1838                // If it's an end device child
   1839                dev_ptr = AssocGetWithExt( Annce.extAddr );
   \   0000BB                ; Setup parameters for call to function AssocGetWithExt
   \   0000BB   7402         MOV     A,#0x2
   \   0000BD   12....       LCALL   ?XSTACK_DISP0_8
   \   0000C0   AA82         MOV     R2,DPL
   \   0000C2   AB83         MOV     R3,DPH
   \   0000C4   12....       LCALL   ??AssocGetWithExt?relay
   \   0000C7   8A..         MOV     ?V0 + 0,R2
   \   0000C9   8B..         MOV     ?V0 + 1,R3
   \   0000CB   A8..         MOV     R0,?V0 + 0
   \   0000CD   A9..         MOV     R1,?V0 + 1
   1840                if ( dev_ptr )
   \   0000CF   E8           MOV     A,R0
   \   0000D0   49           ORL     A,R1
   \   0000D1   6020         JZ      ??ZDO_ProcessDeviceAnnce_4
   1841                {
   1842                  if ( dev_ptr->nodeRelation == CHILD_RFD ||
   1843                       dev_ptr->nodeRelation == CHILD_RFD_RX_IDLE )
   \   0000D3   E8           MOV     A,R0
   \   0000D4   2404         ADD     A,#0x4
   \   0000D6   F582         MOV     DPL,A
   \   0000D8   E9           MOV     A,R1
   \   0000D9   3400         ADDC    A,#0x0
   \   0000DB   F583         MOV     DPH,A
   \   0000DD   E0           MOVX    A,@DPTR
   \   0000DE   6401         XRL     A,#0x1
   \   0000E0   6005         JZ      ??ZDO_ProcessDeviceAnnce_5
   \   0000E2   E0           MOVX    A,@DPTR
   \   0000E3   6402         XRL     A,#0x2
   \   0000E5   700C         JNZ     ??ZDO_ProcessDeviceAnnce_4
   1844                  {
   1845                    AssocRemove( Annce.extAddr );
   \                     ??ZDO_ProcessDeviceAnnce_5:
   \   0000E7                ; Setup parameters for call to function AssocRemove
   \   0000E7   7402         MOV     A,#0x2
   \   0000E9   12....       LCALL   ?XSTACK_DISP0_8
   \   0000EC   AA82         MOV     R2,DPL
   \   0000EE   AB83         MOV     R3,DPH
   \   0000F0   12....       LCALL   ??AssocRemove?relay
   1846                  }        
   1847                }
   1848              }
   1849          
   1850              if ( Annce.nwkAddr != NLME_GetShortAddr() )
   \                     ??ZDO_ProcessDeviceAnnce_4:
   \   0000F3                ; Setup parameters for call to function NLME_GetShortAddr
   \   0000F3   12....       LCALL   ??NLME_GetShortAddr?relay
   \   0000F6   8A..         MOV     ?V0 + 0,R2
   \   0000F8   8B..         MOV     ?V0 + 1,R3
   \   0000FA   A8..         MOV     R0,?V0 + 0
   \   0000FC   A9..         MOV     R1,?V0 + 1
   \   0000FE   85..82       MOV     DPL,?XSP + 0
   \   000101   85..83       MOV     DPH,?XSP + 1
   \   000104   E0           MOVX    A,@DPTR
   \   000105   68           XRL     A,R0
   \   000106   7003         JNZ     ??ZDO_ProcessDeviceAnnce_6
   \   000108   A3           INC     DPTR
   \   000109   E0           MOVX    A,@DPTR
   \   00010A   69           XRL     A,R1
   \                     ??ZDO_ProcessDeviceAnnce_6:
   \   00010B   6034         JZ      ??ZDO_ProcessDeviceAnnce_7
   1851              {
   1852                // If an associated device is found with matched extended Address, 
   1853                // update its short address
   1854                if ( AssocChangeNwkAddr( Annce.nwkAddr, Annce.extAddr ) )
   \   00010D                ; Setup parameters for call to function AssocChangeNwkAddr
   \   00010D   7402         MOV     A,#0x2
   \   00010F   12....       LCALL   ?XSTACK_DISP0_8
   \   000112   AC82         MOV     R4,DPL
   \   000114   AD83         MOV     R5,DPH
   \   000116   85..82       MOV     DPL,?XSP + 0
   \   000119   85..83       MOV     DPH,?XSP + 1
   \   00011C   E0           MOVX    A,@DPTR
   \   00011D   FA           MOV     R2,A
   \   00011E   A3           INC     DPTR
   \   00011F   E0           MOVX    A,@DPTR
   \   000120   FB           MOV     R3,A
   \   000121   12....       LCALL   ??AssocChangeNwkAddr?relay
   \   000124   E9           MOV     A,R1
   \   000125   601A         JZ      ??ZDO_ProcessDeviceAnnce_7
   1855                {
   1856                  // Update the neighbor table
   1857                  nwkNeighborUpdateNwkAddr( Annce.nwkAddr, Annce.extAddr );
   \   000127                ; Setup parameters for call to function nwkNeighborUpdateNwkAddr
   \   000127   7402         MOV     A,#0x2
   \   000129   12....       LCALL   ?XSTACK_DISP0_8
   \   00012C   AC82         MOV     R4,DPL
   \   00012E   AD83         MOV     R5,DPH
   \   000130   85..82       MOV     DPL,?XSP + 0
   \   000133   85..83       MOV     DPH,?XSP + 1
   \   000136   E0           MOVX    A,@DPTR
   \   000137   FA           MOV     R2,A
   \   000138   A3           INC     DPTR
   \   000139   E0           MOVX    A,@DPTR
   \   00013A   FB           MOV     R3,A
   \   00013B   12....       LCALL   ??nwkNeighborUpdateNwkAddr?relay
   1858                
   1859                  // Set event to save NV 
   1860                  ZDApp_NVUpdate();
   \   00013E                ; Setup parameters for call to function ZDApp_NVUpdate
   \   00013E   12....       LCALL   ??ZDApp_NVUpdate?relay
   1861                }
   1862              }
   1863            }
   1864          #endif // ZIGBEE_STOCHASTIC_ADDRESSING
   1865            
   1866            
   1867            // Fill in the extended address in address manager if we don't have it already.
   1868            addrEntry.user = ADDRMGR_USER_DEFAULT;
   \                     ??ZDO_ProcessDeviceAnnce_7:
   \   000141   7413         MOV     A,#0x13
   \   000143   12....       LCALL   ?XSTACK_DISP0_8
   \   000146   E4           CLR     A
   \   000147   F0           MOVX    @DPTR,A
   1869            addrEntry.nwkAddr = Annce.nwkAddr;
   \   000148   85..82       MOV     DPL,?XSP + 0
   \   00014B   85..83       MOV     DPH,?XSP + 1
   \   00014E   E0           MOVX    A,@DPTR
   \   00014F   F8           MOV     R0,A
   \   000150   A3           INC     DPTR
   \   000151   E0           MOVX    A,@DPTR
   \   000152   F9           MOV     R1,A
   \   000153   7414         MOV     A,#0x14
   \   000155   12....       LCALL   ?XSTACK_DISP0_8
   \   000158   E8           MOV     A,R0
   \   000159   F0           MOVX    @DPTR,A
   \   00015A   A3           INC     DPTR
   \   00015B   E9           MOV     A,R1
   \   00015C   F0           MOVX    @DPTR,A
   1870            if ( AddrMgrEntryLookupNwk( &addrEntry ) )
   \   00015D                ; Setup parameters for call to function AddrMgrEntryLookupNwk
   \   00015D   7413         MOV     A,#0x13
   \   00015F   12....       LCALL   ?XSTACK_DISP0_8
   \   000162   AA82         MOV     R2,DPL
   \   000164   AB83         MOV     R3,DPH
   \   000166   12....       LCALL   ??AddrMgrEntryLookupNwk?relay
   \   000169   E9           MOV     A,R1
   \   00016A   604B         JZ      ??ZDO_ProcessDeviceAnnce_0
   1871            {
   1872              osal_memset( parentExt, 0, Z_EXTADDR_LEN );
   \   00016C                ; Setup parameters for call to function osal_memset
   \   00016C   7C08         MOV     R4,#0x8
   \   00016E   7D00         MOV     R5,#0x0
   \   000170   7900         MOV     R1,#0x0
   \   000172   740B         MOV     A,#0xb
   \   000174   12....       LCALL   ?XSTACK_DISP0_8
   \   000177   AA82         MOV     R2,DPL
   \   000179   AB83         MOV     R3,DPH
   \   00017B   12....       LCALL   ??osal_memset?relay
   1873              if ( osal_ExtAddrEqual( parentExt, addrEntry.extAddr ) )
   \   00017E                ; Setup parameters for call to function sAddrExtCmp
   \   00017E   7416         MOV     A,#0x16
   \   000180   12....       LCALL   ?XSTACK_DISP0_8
   \   000183   AC82         MOV     R4,DPL
   \   000185   AD83         MOV     R5,DPH
   \   000187   740B         MOV     A,#0xb
   \   000189   12....       LCALL   ?XSTACK_DISP0_8
   \   00018C   AA82         MOV     R2,DPL
   \   00018E   AB83         MOV     R3,DPH
   \   000190   12....       LCALL   ??sAddrExtCmp?relay
   \   000193   E9           MOV     A,R1
   \   000194   6021         JZ      ??ZDO_ProcessDeviceAnnce_0
   1874              {
   1875                AddrMgrExtAddrSet( addrEntry.extAddr, Annce.extAddr );
   \   000196                ; Setup parameters for call to function AddrMgrExtAddrSet
   \   000196   7402         MOV     A,#0x2
   \   000198   12....       LCALL   ?XSTACK_DISP0_8
   \   00019B   AC82         MOV     R4,DPL
   \   00019D   AD83         MOV     R5,DPH
   \   00019F   7416         MOV     A,#0x16
   \   0001A1   12....       LCALL   ?XSTACK_DISP0_8
   \   0001A4   AA82         MOV     R2,DPL
   \   0001A6   AB83         MOV     R3,DPH
   \   0001A8   12....       LCALL   ??AddrMgrExtAddrSet?relay
   1876                AddrMgrEntryUpdate( &addrEntry );
   \   0001AB                ; Setup parameters for call to function AddrMgrEntryUpdate
   \   0001AB   7413         MOV     A,#0x13
   \   0001AD   12....       LCALL   ?XSTACK_DISP0_8
   \   0001B0   AA82         MOV     R2,DPL
   \   0001B2   AB83         MOV     R3,DPH
   \   0001B4   12....       LCALL   ??AddrMgrEntryUpdate?relay
   \                     ??ZDO_ProcessDeviceAnnce_0:
   \   0001B7   7420         MOV     A,#0x20
   \   0001B9   12....       LCALL   ?DEALLOC_XSTACK8
   \   0001BC   7F02         MOV     R7,#0x2
   \   0001BE   02....       LJMP    ?BANKED_LEAVE_XDATA
   1877              }
   1878            }
   1879          }
   1880          
   1881          /*********************************************************************
   1882           * @fn          ZDO_BuildSimpleDescBuf
   1883           *
   1884           * @brief       Build a byte sequence representation of a Simple Descriptor.
   1885           *
   1886           * @param       buf  - pointer to a byte array big enough for data.
   1887           * @param       desc - SimpleDescriptionFormat_t *
   1888           *
   1889           * @return      none
   1890           */

   \                                 In  segment BANKED_CODE, align 1, keep-with-next
   1891          void ZDO_BuildSimpleDescBuf( uint8 *buf, SimpleDescriptionFormat_t *desc )
   \                     ZDO_BuildSimpleDescBuf:
   1892          {
   \   000000   74F2         MOV     A,#-0xe
   \   000002   12....       LCALL   ?BANKED_ENTER_XDATA
   \   000005                ; Saved register size: 14
   \   000005                ; Auto size: 0
   1893            byte cnt;
   1894            uint16 *ptr;
   1895          
   1896            *buf++ = desc->EndPoint;
   \   000005   8C82         MOV     DPL,R4
   \   000007   8D83         MOV     DPH,R5
   \   000009   E0           MOVX    A,@DPTR
   \   00000A   8A82         MOV     DPL,R2
   \   00000C   8B83         MOV     DPH,R3
   \   00000E   F0           MOVX    @DPTR,A
   \   00000F   A3           INC     DPTR
   \   000010   AA82         MOV     R2,DPL
   \   000012   AB83         MOV     R3,DPH
   1897            *buf++ = HI_UINT16( desc->AppProfId );
   \   000014   8C82         MOV     DPL,R4
   \   000016   8D83         MOV     DPH,R5
   \   000018   A3           INC     DPTR
   \   000019   A882         MOV     R0,DPL
   \   00001B   A983         MOV     R1,DPH
   \   00001D   A3           INC     DPTR
   \   00001E   E0           MOVX    A,@DPTR
   \   00001F   8A82         MOV     DPL,R2
   \   000021   8B83         MOV     DPH,R3
   \   000023   F0           MOVX    @DPTR,A
   \   000024   A3           INC     DPTR
   \   000025   0A           INC     R2
   \   000026   AB83         MOV     R3,DPH
   1898            *buf++ = LO_UINT16( desc->AppProfId );
   \   000028   8882         MOV     DPL,R0
   \   00002A   8983         MOV     DPH,R1
   \   00002C   E0           MOVX    A,@DPTR
   \   00002D   8A82         MOV     DPL,R2
   \   00002F   8B83         MOV     DPH,R3
   \   000031   F0           MOVX    @DPTR,A
   \   000032   A3           INC     DPTR
   \   000033   0A           INC     R2
   \   000034   AB83         MOV     R3,DPH
   1899            *buf++ = HI_UINT16( desc->AppDeviceId );
   \   000036   EC           MOV     A,R4
   \   000037   2403         ADD     A,#0x3
   \   000039   F8           MOV     R0,A
   \   00003A   ED           MOV     A,R5
   \   00003B   3400         ADDC    A,#0x0
   \   00003D   F9           MOV     R1,A
   \   00003E   8882         MOV     DPL,R0
   \   000040   8983         MOV     DPH,R1
   \   000042   A3           INC     DPTR
   \   000043   E0           MOVX    A,@DPTR
   \   000044   8A82         MOV     DPL,R2
   \   000046   8B83         MOV     DPH,R3
   \   000048   F0           MOVX    @DPTR,A
   \   000049   A3           INC     DPTR
   \   00004A   0A           INC     R2
   \   00004B   AB83         MOV     R3,DPH
   1900            *buf++ = LO_UINT16( desc->AppDeviceId );
   \   00004D   8882         MOV     DPL,R0
   \   00004F   8983         MOV     DPH,R1
   \   000051   E0           MOVX    A,@DPTR
   \   000052   8A82         MOV     DPL,R2
   \   000054   8B83         MOV     DPH,R3
   \   000056   F0           MOVX    @DPTR,A
   \   000057   A3           INC     DPTR
   \   000058   0A           INC     R2
   \   000059   AB83         MOV     R3,DPH
   1901          
   1902            *buf++ = (byte)(desc->AppDevVer << 4);
   \   00005B   8C82         MOV     DPL,R4
   \   00005D   8D83         MOV     DPH,R5
   \   00005F   A3           INC     DPTR
   \   000060   A3           INC     DPTR
   \   000061   A3           INC     DPTR
   \   000062   A3           INC     DPTR
   \   000063   A3           INC     DPTR
   \   000064   E0           MOVX    A,@DPTR
   \   000065   C4           SWAP    A
   \   000066   54F0         ANL     A,#0xf0
   \   000068   8A82         MOV     DPL,R2
   \   00006A   8B83         MOV     DPH,R3
   \   00006C   F0           MOVX    @DPTR,A
   \   00006D   A3           INC     DPTR
   \   00006E   0A           INC     R2
   \   00006F   AB83         MOV     R3,DPH
   1903          
   1904            *buf++ = desc->AppNumInClusters;
   \   000071   EC           MOV     A,R4
   \   000072   2406         ADD     A,#0x6
   \   000074   F5..         MOV     ?V0 + 2,A
   \   000076   ED           MOV     A,R5
   \   000077   3400         ADDC    A,#0x0
   \   000079   F5..         MOV     ?V0 + 3,A
   \   00007B   85..82       MOV     DPL,?V0 + 2
   \   00007E   F583         MOV     DPH,A
   \   000080   E0           MOVX    A,@DPTR
   \   000081   8A82         MOV     DPL,R2
   \   000083   8B83         MOV     DPH,R3
   \   000085   F0           MOVX    @DPTR,A
   \   000086   A3           INC     DPTR
   \   000087   0A           INC     R2
   \   000088   AB83         MOV     R3,DPH
   1905            ptr = desc->pAppInClusterList;
   \   00008A   8C82         MOV     DPL,R4
   \   00008C   8D83         MOV     DPH,R5
   \   00008E   A3           INC     DPTR
   \   00008F   A3           INC     DPTR
   \   000090   A3           INC     DPTR
   \   000091   A3           INC     DPTR
   \   000092   A3           INC     DPTR
   \   000093   A3           INC     DPTR
   \   000094   A3           INC     DPTR
   \   000095   E0           MOVX    A,@DPTR
   \   000096   FE           MOV     R6,A
   \   000097   A3           INC     DPTR
   \   000098   E0           MOVX    A,@DPTR
   \   000099   FF           MOV     R7,A
   1906            for ( cnt = 0; cnt < desc->AppNumInClusters; ptr++, cnt++ )
   \   00009A   75..00       MOV     ?V0 + 0,#0x0
   \   00009D   8028         SJMP    ??ZDO_BuildSimpleDescBuf_0
   1907            {
   1908              *buf++ = HI_UINT16( *ptr );
   \                     ??ZDO_BuildSimpleDescBuf_1:
   \   00009F   8E82         MOV     DPL,R6
   \   0000A1   8F83         MOV     DPH,R7
   \   0000A3   A3           INC     DPTR
   \   0000A4   E0           MOVX    A,@DPTR
   \   0000A5   8A82         MOV     DPL,R2
   \   0000A7   8B83         MOV     DPH,R3
   \   0000A9   F0           MOVX    @DPTR,A
   \   0000AA   E8           MOV     A,R0
   \   0000AB   FA           MOV     R2,A
   \   0000AC   E9           MOV     A,R1
   \   0000AD   FB           MOV     R3,A
   1909              *buf++ = LO_UINT16( *ptr );
   \   0000AE   8E82         MOV     DPL,R6
   \   0000B0   8F83         MOV     DPH,R7
   \   0000B2   E0           MOVX    A,@DPTR
   \   0000B3   8A82         MOV     DPL,R2
   \   0000B5   8B83         MOV     DPH,R3
   \   0000B7   F0           MOVX    @DPTR,A
   \   0000B8   A3           INC     DPTR
   \   0000B9   0A           INC     R2
   \   0000BA   AB83         MOV     R3,DPH
   1910            }
   \   0000BC   EE           MOV     A,R6
   \   0000BD   2402         ADD     A,#0x2
   \   0000BF   0E           INC     R6
   \   0000C0   0E           INC     R6
   \   0000C1   EF           MOV     A,R7
   \   0000C2   3400         ADDC    A,#0x0
   \   0000C4   FF           MOV     R7,A
   \   0000C5   05..         INC     ?V0 + 0
   \                     ??ZDO_BuildSimpleDescBuf_0:
   \   0000C7   8A82         MOV     DPL,R2
   \   0000C9   8B83         MOV     DPH,R3
   \   0000CB   A3           INC     DPTR
   \   0000CC   A882         MOV     R0,DPL
   \   0000CE   A983         MOV     R1,DPH
   \   0000D0   85..82       MOV     DPL,?V0 + 2
   \   0000D3   85..83       MOV     DPH,?V0 + 3
   \   0000D6   E0           MOVX    A,@DPTR
   \   0000D7   F5..         MOV     ?V0 + 1,A
   \   0000D9   E5..         MOV     A,?V0 + 0
   \   0000DB   C3           CLR     C
   \   0000DC   95..         SUBB    A,?V0 + 1
   \   0000DE   40BF         JC      ??ZDO_BuildSimpleDescBuf_1
   1911          
   1912            *buf++ = desc->AppNumOutClusters;
   \   0000E0   EC           MOV     A,R4
   \   0000E1   2409         ADD     A,#0x9
   \   0000E3   F5..         MOV     ?V0 + 2,A
   \   0000E5   ED           MOV     A,R5
   \   0000E6   3400         ADDC    A,#0x0
   \   0000E8   F5..         MOV     ?V0 + 3,A
   \   0000EA   85..82       MOV     DPL,?V0 + 2
   \   0000ED   F583         MOV     DPH,A
   \   0000EF   E0           MOVX    A,@DPTR
   \   0000F0   8A82         MOV     DPL,R2
   \   0000F2   8B83         MOV     DPH,R3
   \   0000F4   F0           MOVX    @DPTR,A
   \   0000F5   E8           MOV     A,R0
   \   0000F6   FA           MOV     R2,A
   \   0000F7   E9           MOV     A,R1
   \   0000F8   FB           MOV     R3,A
   1913            ptr = desc->pAppOutClusterList;
   \   0000F9   8C82         MOV     DPL,R4
   \   0000FB   8D83         MOV     DPH,R5
   \   0000FD   A3           INC     DPTR
   \   0000FE   A3           INC     DPTR
   \   0000FF   A3           INC     DPTR
   \   000100   A3           INC     DPTR
   \   000101   A3           INC     DPTR
   \   000102   A3           INC     DPTR
   \   000103   A3           INC     DPTR
   \   000104   A3           INC     DPTR
   \   000105   A3           INC     DPTR
   \   000106   A3           INC     DPTR
   \   000107   E0           MOVX    A,@DPTR
   \   000108   FE           MOV     R6,A
   \   000109   A3           INC     DPTR
   \   00010A   E0           MOVX    A,@DPTR
   \   00010B   FF           MOV     R7,A
   1914            for ( cnt = 0; cnt < desc->AppNumOutClusters; ptr++, cnt++ )
   \   00010C   75..00       MOV     ?V0 + 0,#0x0
   \   00010F   8029         SJMP    ??ZDO_BuildSimpleDescBuf_2
   1915            {
   1916              *buf++ = HI_UINT16( *ptr );
   \                     ??ZDO_BuildSimpleDescBuf_3:
   \   000111   8E82         MOV     DPL,R6
   \   000113   8F83         MOV     DPH,R7
   \   000115   A3           INC     DPTR
   \   000116   E0           MOVX    A,@DPTR
   \   000117   8A82         MOV     DPL,R2
   \   000119   8B83         MOV     DPH,R3
   \   00011B   F0           MOVX    @DPTR,A
   \   00011C   A3           INC     DPTR
   \   00011D   AA82         MOV     R2,DPL
   \   00011F   AB83         MOV     R3,DPH
   1917              *buf++ = LO_UINT16( *ptr );
   \   000121   8E82         MOV     DPL,R6
   \   000123   8F83         MOV     DPH,R7
   \   000125   E0           MOVX    A,@DPTR
   \   000126   8A82         MOV     DPL,R2
   \   000128   8B83         MOV     DPH,R3
   \   00012A   F0           MOVX    @DPTR,A
   \   00012B   A3           INC     DPTR
   \   00012C   0A           INC     R2
   \   00012D   AB83         MOV     R3,DPH
   1918            }
   \   00012F   EE           MOV     A,R6
   \   000130   2402         ADD     A,#0x2
   \   000132   0E           INC     R6
   \   000133   0E           INC     R6
   \   000134   EF           MOV     A,R7
   \   000135   3400         ADDC    A,#0x0
   \   000137   FF           MOV     R7,A
   \   000138   05..         INC     ?V0 + 0
   \                     ??ZDO_BuildSimpleDescBuf_2:
   \   00013A   85..82       MOV     DPL,?V0 + 2
   \   00013D   85..83       MOV     DPH,?V0 + 3
   \   000140   E0           MOVX    A,@DPTR
   \   000141   F8           MOV     R0,A
   \   000142   E5..         MOV     A,?V0 + 0
   \   000144   C3           CLR     C
   \   000145   98           SUBB    A,R0
   \   000146   40C9         JC      ??ZDO_BuildSimpleDescBuf_3
   1919          }
   \   000148   7F06         MOV     R7,#0x6
   \   00014A   02....       LJMP    ?BANKED_LEAVE_XDATA
   1920          
   1921          /*********************************************************************
   1922           * @fn      ZDO_MatchEndDeviceBind()
   1923           *
   1924           * @brief
   1925           *
   1926           *   Called to match end device binding requests
   1927           *
   1928           * @param  bindReq  - binding request information
   1929           * @param  SecurityUse - Security enable/disable
   1930           *
   1931           * @return  none
   1932           */

   \                                 In  segment BANKED_CODE, align 1, keep-with-next
   1933          void ZDO_MatchEndDeviceBind( ZDEndDeviceBind_t *bindReq )
   \                     ZDO_MatchEndDeviceBind:
   1934          {
   \   000000   74F2         MOV     A,#-0xe
   \   000002   12....       LCALL   ?BANKED_ENTER_XDATA
   \   000005                ; Saved register size: 14
   \   000005                ; Auto size: 10
   \   000005   74F6         MOV     A,#-0xa
   \   000007   12....       LCALL   ?ALLOC_XSTACK8
   \   00000A   8A..         MOV     ?V0 + 4,R2
   \   00000C   8B..         MOV     ?V0 + 5,R3
   1935            zAddrType_t dstAddr;
   1936            uint8 sendRsp = FALSE;
   \   00000E   7E00         MOV     R6,#0x0
   1937            uint8 status;
   1938          
   1939            // Is this the first request?
   1940            if ( matchED == NULL )
   \   000010   90....       MOV     DPTR,#matchED
   \   000013   E0           MOVX    A,@DPTR
   \   000014   F8           MOV     R0,A
   \   000015   A3           INC     DPTR
   \   000016   E0           MOVX    A,@DPTR
   \   000017   F9           MOV     R1,A
   \   000018   E8           MOV     A,R0
   \   000019   49           ORL     A,R1
   \   00001A   7073         JNZ     ??ZDO_MatchEndDeviceBind_0
   1941            {
   1942              // Create match info structure
   1943              matchED = (ZDMatchEndDeviceBind_t *)osal_mem_alloc( sizeof ( ZDMatchEndDeviceBind_t ) );
   \   00001C                ; Setup parameters for call to function osal_mem_alloc
   \   00001C   7A37         MOV     R2,#0x37
   \   00001E   7B00         MOV     R3,#0x0
   \   000020   12....       LCALL   ??osal_mem_alloc?relay
   \   000023   90....       MOV     DPTR,#matchED
   \   000026   EA           MOV     A,R2
   \   000027   F0           MOVX    @DPTR,A
   \   000028   A3           INC     DPTR
   \   000029   EB           MOV     A,R3
   \   00002A   F0           MOVX    @DPTR,A
   1944              if ( matchED )
   \   00002B   90....       MOV     DPTR,#matchED
   \   00002E   E0           MOVX    A,@DPTR
   \   00002F   F8           MOV     R0,A
   \   000030   A3           INC     DPTR
   \   000031   E0           MOVX    A,@DPTR
   \   000032   F9           MOV     R1,A
   \   000033   E8           MOV     A,R0
   \   000034   49           ORL     A,R1
   \   000035   6023         JZ      ??ZDO_MatchEndDeviceBind_1
   1945              {
   1946                // Clear the structure
   1947                osal_memset( (uint8 *)matchED, 0, sizeof ( ZDMatchEndDeviceBind_t ) );
   \   000037                ; Setup parameters for call to function osal_memset
   \   000037   7C37         MOV     R4,#0x37
   \   000039   7D00         MOV     R5,#0x0
   \   00003B   7900         MOV     R1,#0x0
   \   00003D   90....       MOV     DPTR,#matchED
   \   000040   E0           MOVX    A,@DPTR
   \   000041   FA           MOV     R2,A
   \   000042   A3           INC     DPTR
   \   000043   E0           MOVX    A,@DPTR
   \   000044   FB           MOV     R3,A
   \   000045   12....       LCALL   ??osal_memset?relay
   1948          
   1949                // Copy the first request's information
   1950                if ( !ZDO_CopyMatchInfo( &(matchED->ed1), bindReq ) )
   \   000048                ; Setup parameters for call to function ZDO_CopyMatchInfo
   \   000048   AC..         MOV     R4,?V0 + 4
   \   00004A   AD..         MOV     R5,?V0 + 5
   \   00004C   90....       MOV     DPTR,#matchED
   \   00004F   E0           MOVX    A,@DPTR
   \   000050   FA           MOV     R2,A
   \   000051   A3           INC     DPTR
   \   000052   E0           MOVX    A,@DPTR
   \   000053   FB           MOV     R3,A
   \   000054   12....       LCALL   ??ZDO_CopyMatchInfo?relay
   \   000057   E9           MOV     A,R1
   \   000058   700A         JNZ     ??ZDO_MatchEndDeviceBind_2
   1951                {
   1952          
   1953                  status = ZDP_NO_ENTRY;
   \                     ??ZDO_MatchEndDeviceBind_1:
   \   00005A   85..82       MOV     DPL,?XSP + 0
   \   00005D   85..83       MOV     DPH,?XSP + 1
   \   000060   7488         MOV     A,#-0x78
   \   000062   F0           MOVX    @DPTR,A
   1954                  sendRsp = TRUE;
   \   000063   0E           INC     R6
   1955                }
   1956              }
   1957              else
   1958              {
   1959                status = ZDP_NO_ENTRY;
   1960                sendRsp = TRUE;
   1961              }
   1962          
   1963              if ( !sendRsp )
   \                     ??ZDO_MatchEndDeviceBind_2:
   \   000064   EE           MOV     A,R6
   \   000065   6003         JZ      $+5
   \   000067   02....       LJMP    ??ZDO_MatchEndDeviceBind_3 & 0xFFFF
   1964              {
   1965                // Set into the correct state
   1966                matchED->state = ZDMATCH_WAIT_REQ;
   \   00006A   90....       MOV     DPTR,#matchED
   \   00006D   E0           MOVX    A,@DPTR
   \   00006E   242E         ADD     A,#0x2e
   \   000070   F8           MOV     R0,A
   \   000071   A3           INC     DPTR
   \   000072   E0           MOVX    A,@DPTR
   \   000073   3400         ADDC    A,#0x0
   \   000075   F9           MOV     R1,A
   \   000076   8882         MOV     DPL,R0
   \   000078   8983         MOV     DPH,R1
   \   00007A   7401         MOV     A,#0x1
   \   00007C   F0           MOVX    @DPTR,A
   1967          
   1968                // Setup the timeout
   1969                APS_SetEndDeviceBindTimeout( AIB_MaxBindingTime, ZDO_EndDeviceBindMatchTimeoutCB );
   \   00007D                ; Setup parameters for call to function APS_SetEndDeviceBindTimeout
   \   00007D   7C..         MOV     R4,#??ZDO_EndDeviceBindMatchTimeoutCB?relay & 0xff
   \   00007F   7D..         MOV     R5,#(??ZDO_EndDeviceBindMatchTimeoutCB?relay >> 8) & 0xff
   \   000081   90....       MOV     DPTR,#AIB_MaxBindingTime
   \   000084   E0           MOVX    A,@DPTR
   \   000085   FA           MOV     R2,A
   \   000086   A3           INC     DPTR
   \   000087   E0           MOVX    A,@DPTR
   \   000088   FB           MOV     R3,A
   \   000089   12....       LCALL   ??APS_SetEndDeviceBindTimeout?relay
   \   00008C   02....       LJMP    ??ZDO_MatchEndDeviceBind_3 & 0xFFFF
   1970              }
   1971            }
   1972            else
   1973            {
   1974                matchED->state = ZDMATCH_SENDING_BINDS;
   \                     ??ZDO_MatchEndDeviceBind_0:
   \   00008F   90....       MOV     DPTR,#matchED
   \   000092   E0           MOVX    A,@DPTR
   \   000093   242E         ADD     A,#0x2e
   \   000095   F8           MOV     R0,A
   \   000096   A3           INC     DPTR
   \   000097   E0           MOVX    A,@DPTR
   \   000098   3400         ADDC    A,#0x0
   \   00009A   F9           MOV     R1,A
   \   00009B   8882         MOV     DPL,R0
   \   00009D   8983         MOV     DPH,R1
   \   00009F   7402         MOV     A,#0x2
   \   0000A1   F0           MOVX    @DPTR,A
   1975          
   1976                // Copy the 2nd request's information
   1977                if ( !ZDO_CopyMatchInfo( &(matchED->ed2), bindReq ) )
   \   0000A2                ; Setup parameters for call to function ZDO_CopyMatchInfo
   \   0000A2   AC..         MOV     R4,?V0 + 4
   \   0000A4   AD..         MOV     R5,?V0 + 5
   \   0000A6   90....       MOV     DPTR,#matchED
   \   0000A9   E0           MOVX    A,@DPTR
   \   0000AA   2417         ADD     A,#0x17
   \   0000AC   FA           MOV     R2,A
   \   0000AD   A3           INC     DPTR
   \   0000AE   E0           MOVX    A,@DPTR
   \   0000AF   3400         ADDC    A,#0x0
   \   0000B1   FB           MOV     R3,A
   \   0000B2   12....       LCALL   ??ZDO_CopyMatchInfo?relay
   \   0000B5   E9           MOV     A,R1
   \   0000B6   700A         JNZ     ??ZDO_MatchEndDeviceBind_4
   1978                {
   1979                  status = ZDP_NO_ENTRY;
   \   0000B8   85..82       MOV     DPL,?XSP + 0
   \   0000BB   85..83       MOV     DPH,?XSP + 1
   \   0000BE   7488         MOV     A,#-0x78
   \   0000C0   F0           MOVX    @DPTR,A
   1980                  sendRsp = TRUE;
   \   0000C1   0E           INC     R6
   1981                }
   1982          
   1983                // Make a source match for ed1
   1984                matchED->ed1numMatched = ZDO_CompareClusterLists(
   1985                            matchED->ed1.numOutClusters, matchED->ed1.outClusters,
   1986                            matchED->ed2.numInClusters, matchED->ed2.inClusters, ZDOBuildBuf );
   \                     ??ZDO_MatchEndDeviceBind_4:
   \   0000C2                ; Setup parameters for call to function ZDO_CompareClusterLists
   \   0000C2   75....       MOV     ?V0 + 0,#ZDOBuildBuf & 0xff
   \   0000C5   75....       MOV     ?V0 + 1,#(ZDOBuildBuf >> 8) & 0xff
   \   0000C8   78..         MOV     R0,#?V0 + 0
   \   0000CA   12....       LCALL   ?PUSH_XSTACK_I_TWO
   \   0000CD   90....       MOV     DPTR,#matchED
   \   0000D0   E0           MOVX    A,@DPTR
   \   0000D1   2429         ADD     A,#0x29
   \   0000D3   F8           MOV     R0,A
   \   0000D4   A3           INC     DPTR
   \   0000D5   E0           MOVX    A,@DPTR
   \   0000D6   3400         ADDC    A,#0x0
   \   0000D8   F9           MOV     R1,A
   \   0000D9   8882         MOV     DPL,R0
   \   0000DB   8983         MOV     DPH,R1
   \   0000DD   12....       LCALL   ?PUSH_XSTACK8_X_TWO
   \   0000E0   90....       MOV     DPTR,#matchED
   \   0000E3   E0           MOVX    A,@DPTR
   \   0000E4   2428         ADD     A,#0x28
   \   0000E6   F8           MOV     R0,A
   \   0000E7   A3           INC     DPTR
   \   0000E8   E0           MOVX    A,@DPTR
   \   0000E9   3400         ADDC    A,#0x0
   \   0000EB   F9           MOV     R1,A
   \   0000EC   8882         MOV     DPL,R0
   \   0000EE   8983         MOV     DPH,R1
   \   0000F0   E0           MOVX    A,@DPTR
   \   0000F1   FC           MOV     R4,A
   \   0000F2   90....       MOV     DPTR,#matchED
   \   0000F5   E0           MOVX    A,@DPTR
   \   0000F6   2415         ADD     A,#0x15
   \   0000F8   F8           MOV     R0,A
   \   0000F9   A3           INC     DPTR
   \   0000FA   E0           MOVX    A,@DPTR
   \   0000FB   3400         ADDC    A,#0x0
   \   0000FD   F9           MOV     R1,A
   \   0000FE   8882         MOV     DPL,R0
   \   000100   8983         MOV     DPH,R1
   \   000102   E0           MOVX    A,@DPTR
   \   000103   FA           MOV     R2,A
   \   000104   A3           INC     DPTR
   \   000105   E0           MOVX    A,@DPTR
   \   000106   FB           MOV     R3,A
   \   000107   90....       MOV     DPTR,#matchED
   \   00010A   E0           MOVX    A,@DPTR
   \   00010B   2414         ADD     A,#0x14
   \   00010D   F8           MOV     R0,A
   \   00010E   A3           INC     DPTR
   \   00010F   E0           MOVX    A,@DPTR
   \   000110   3400         ADDC    A,#0x0
   \   000112   F9           MOV     R1,A
   \   000113   8882         MOV     DPL,R0
   \   000115   8983         MOV     DPH,R1
   \   000117   E0           MOVX    A,@DPTR
   \   000118   F9           MOV     R1,A
   \   000119   12....       LCALL   ??ZDO_CompareClusterLists?relay
   \   00011C   7404         MOV     A,#0x4
   \   00011E   12....       LCALL   ?DEALLOC_XSTACK8
   \   000121   E9           MOV     A,R1
   \   000122   C0E0         PUSH    A
   \   000124   90....       MOV     DPTR,#matchED
   \   000127   E0           MOVX    A,@DPTR
   \   000128   2431         ADD     A,#0x31
   \   00012A   F8           MOV     R0,A
   \   00012B   A3           INC     DPTR
   \   00012C   E0           MOVX    A,@DPTR
   \   00012D   3400         ADDC    A,#0x0
   \   00012F   F9           MOV     R1,A
   \   000130   8882         MOV     DPL,R0
   \   000132   8983         MOV     DPH,R1
   \   000134   D0E0         POP     A
   \   000136   F0           MOVX    @DPTR,A
   1987                if ( matchED->ed1numMatched )
   \   000137   90....       MOV     DPTR,#matchED
   \   00013A   E0           MOVX    A,@DPTR
   \   00013B   2431         ADD     A,#0x31
   \   00013D   F8           MOV     R0,A
   \   00013E   A3           INC     DPTR
   \   00013F   E0           MOVX    A,@DPTR
   \   000140   3400         ADDC    A,#0x0
   \   000142   F9           MOV     R1,A
   \   000143   8882         MOV     DPL,R0
   \   000145   8983         MOV     DPH,R1
   \   000147   E0           MOVX    A,@DPTR
   \   000148   7003         JNZ     $+5
   \   00014A   02....       LJMP    ??ZDO_MatchEndDeviceBind_5 & 0xFFFF
   1988                {
   1989                  // Save the match list
   1990                  matchED->ed1Matched = osal_mem_alloc( (short)(matchED->ed1numMatched * sizeof ( uint16 )) );
   \   00014D                ; Setup parameters for call to function osal_mem_alloc
   \   00014D   E0           MOVX    A,@DPTR
   \   00014E   C3           CLR     C
   \   00014F   33           RLC     A
   \   000150   FA           MOV     R2,A
   \   000151   E4           CLR     A
   \   000152   33           RLC     A
   \   000153   FB           MOV     R3,A
   \   000154   12....       LCALL   ??osal_mem_alloc?relay
   \   000157   8A..         MOV     ?V0 + 0,R2
   \   000159   8B..         MOV     ?V0 + 1,R3
   \   00015B   90....       MOV     DPTR,#matchED
   \   00015E   E0           MOVX    A,@DPTR
   \   00015F   2432         ADD     A,#0x32
   \   000161   FA           MOV     R2,A
   \   000162   A3           INC     DPTR
   \   000163   E0           MOVX    A,@DPTR
   \   000164   3400         ADDC    A,#0x0
   \   000166   FB           MOV     R3,A
   \   000167   8A82         MOV     DPL,R2
   \   000169   8B83         MOV     DPH,R3
   \   00016B   E5..         MOV     A,?V0 + 0
   \   00016D   F0           MOVX    @DPTR,A
   \   00016E   A3           INC     DPTR
   \   00016F   E5..         MOV     A,?V0 + 1
   \   000171   F0           MOVX    @DPTR,A
   1991                  if ( matchED->ed1Matched )
   \   000172   90....       MOV     DPTR,#matchED
   \   000175   E0           MOVX    A,@DPTR
   \   000176   2432         ADD     A,#0x32
   \   000178   F8           MOV     R0,A
   \   000179   A3           INC     DPTR
   \   00017A   E0           MOVX    A,@DPTR
   \   00017B   3400         ADDC    A,#0x0
   \   00017D   F9           MOV     R1,A
   \   00017E   E8           MOV     A,R0
   \   00017F   FA           MOV     R2,A
   \   000180   E9           MOV     A,R1
   \   000181   FB           MOV     R3,A
   \   000182   8A82         MOV     DPL,R2
   \   000184   8B83         MOV     DPH,R3
   \   000186   E0           MOVX    A,@DPTR
   \   000187   F8           MOV     R0,A
   \   000188   A3           INC     DPTR
   \   000189   E0           MOVX    A,@DPTR
   \   00018A   F9           MOV     R1,A
   \   00018B   E8           MOV     A,R0
   \   00018C   49           ORL     A,R1
   \   00018D   6038         JZ      ??ZDO_MatchEndDeviceBind_6
   1992                  {
   1993                    osal_memcpy( matchED->ed1Matched, ZDOBuildBuf, (matchED->ed1numMatched * sizeof ( uint16 )) );
   \   00018F                ; Setup parameters for call to function osal_memcpy
   \   00018F   75....       MOV     ?V0 + 0,#ZDOBuildBuf & 0xff
   \   000192   75....       MOV     ?V0 + 1,#(ZDOBuildBuf >> 8) & 0xff
   \   000195   75..00       MOV     ?V0 + 2,#0x0
   \   000198   78..         MOV     R0,#?V0 + 0
   \   00019A   12....       LCALL   ?PUSH_XSTACK_I_THREE
   \   00019D   90....       MOV     DPTR,#matchED
   \   0001A0   E0           MOVX    A,@DPTR
   \   0001A1   2431         ADD     A,#0x31
   \   0001A3   F8           MOV     R0,A
   \   0001A4   A3           INC     DPTR
   \   0001A5   E0           MOVX    A,@DPTR
   \   0001A6   3400         ADDC    A,#0x0
   \   0001A8   F9           MOV     R1,A
   \   0001A9   8882         MOV     DPL,R0
   \   0001AB   8983         MOV     DPH,R1
   \   0001AD   E0           MOVX    A,@DPTR
   \   0001AE   C3           CLR     C
   \   0001AF   33           RLC     A
   \   0001B0   FC           MOV     R4,A
   \   0001B1   E4           CLR     A
   \   0001B2   33           RLC     A
   \   0001B3   FD           MOV     R5,A
   \   0001B4   8A82         MOV     DPL,R2
   \   0001B6   8B83         MOV     DPH,R3
   \   0001B8   E0           MOVX    A,@DPTR
   \   0001B9   FA           MOV     R2,A
   \   0001BA   A3           INC     DPTR
   \   0001BB   E0           MOVX    A,@DPTR
   \   0001BC   FB           MOV     R3,A
   \   0001BD   12....       LCALL   ??osal_memcpy?relay
   \   0001C0   7403         MOV     A,#0x3
   \   0001C2   12....       LCALL   ?DEALLOC_XSTACK8
   \   0001C5   800B         SJMP    ??ZDO_MatchEndDeviceBind_5
   1994                  }
   1995                  else
   1996                  {
   1997                    // Allocation error, stop
   1998                    status = ZDP_NO_ENTRY;
   \                     ??ZDO_MatchEndDeviceBind_6:
   \   0001C7   85..82       MOV     DPL,?XSP + 0
   \   0001CA   85..83       MOV     DPH,?XSP + 1
   \   0001CD   7488         MOV     A,#-0x78
   \   0001CF   F0           MOVX    @DPTR,A
   1999                    sendRsp = TRUE;
   \   0001D0   7E01         MOV     R6,#0x1
   2000                  }
   2001                }
   2002          
   2003                // Make a source match for ed2
   2004                matchED->ed2numMatched = ZDO_CompareClusterLists(
   2005                            matchED->ed2.numOutClusters, matchED->ed2.outClusters,
   2006                            matchED->ed1.numInClusters, matchED->ed1.inClusters, ZDOBuildBuf );
   \                     ??ZDO_MatchEndDeviceBind_5:
   \   0001D2                ; Setup parameters for call to function ZDO_CompareClusterLists
   \   0001D2   75....       MOV     ?V0 + 0,#ZDOBuildBuf & 0xff
   \   0001D5   75....       MOV     ?V0 + 1,#(ZDOBuildBuf >> 8) & 0xff
   \   0001D8   78..         MOV     R0,#?V0 + 0
   \   0001DA   12....       LCALL   ?PUSH_XSTACK_I_TWO
   \   0001DD   90....       MOV     DPTR,#matchED
   \   0001E0   E0           MOVX    A,@DPTR
   \   0001E1   2412         ADD     A,#0x12
   \   0001E3   F8           MOV     R0,A
   \   0001E4   A3           INC     DPTR
   \   0001E5   E0           MOVX    A,@DPTR
   \   0001E6   3400         ADDC    A,#0x0
   \   0001E8   F9           MOV     R1,A
   \   0001E9   8882         MOV     DPL,R0
   \   0001EB   8983         MOV     DPH,R1
   \   0001ED   12....       LCALL   ?PUSH_XSTACK8_X_TWO
   \   0001F0   90....       MOV     DPTR,#matchED
   \   0001F3   E0           MOVX    A,@DPTR
   \   0001F4   2411         ADD     A,#0x11
   \   0001F6   F8           MOV     R0,A
   \   0001F7   A3           INC     DPTR
   \   0001F8   E0           MOVX    A,@DPTR
   \   0001F9   3400         ADDC    A,#0x0
   \   0001FB   F9           MOV     R1,A
   \   0001FC   8882         MOV     DPL,R0
   \   0001FE   8983         MOV     DPH,R1
   \   000200   E0           MOVX    A,@DPTR
   \   000201   FC           MOV     R4,A
   \   000202   90....       MOV     DPTR,#matchED
   \   000205   E0           MOVX    A,@DPTR
   \   000206   242C         ADD     A,#0x2c
   \   000208   F8           MOV     R0,A
   \   000209   A3           INC     DPTR
   \   00020A   E0           MOVX    A,@DPTR
   \   00020B   3400         ADDC    A,#0x0
   \   00020D   F9           MOV     R1,A
   \   00020E   8882         MOV     DPL,R0
   \   000210   8983         MOV     DPH,R1
   \   000212   E0           MOVX    A,@DPTR
   \   000213   FA           MOV     R2,A
   \   000214   A3           INC     DPTR
   \   000215   E0           MOVX    A,@DPTR
   \   000216   FB           MOV     R3,A
   \   000217   90....       MOV     DPTR,#matchED
   \   00021A   E0           MOVX    A,@DPTR
   \   00021B   242B         ADD     A,#0x2b
   \   00021D   F8           MOV     R0,A
   \   00021E   A3           INC     DPTR
   \   00021F   E0           MOVX    A,@DPTR
   \   000220   3400         ADDC    A,#0x0
   \   000222   F9           MOV     R1,A
   \   000223   8882         MOV     DPL,R0
   \   000225   8983         MOV     DPH,R1
   \   000227   E0           MOVX    A,@DPTR
   \   000228   F9           MOV     R1,A
   \   000229   12....       LCALL   ??ZDO_CompareClusterLists?relay
   \   00022C   7404         MOV     A,#0x4
   \   00022E   12....       LCALL   ?DEALLOC_XSTACK8
   \   000231   E9           MOV     A,R1
   \   000232   C0E0         PUSH    A
   \   000234   90....       MOV     DPTR,#matchED
   \   000237   E0           MOVX    A,@DPTR
   \   000238   2434         ADD     A,#0x34
   \   00023A   F8           MOV     R0,A
   \   00023B   A3           INC     DPTR
   \   00023C   E0           MOVX    A,@DPTR
   \   00023D   3400         ADDC    A,#0x0
   \   00023F   F9           MOV     R1,A
   \   000240   8882         MOV     DPL,R0
   \   000242   8983         MOV     DPH,R1
   \   000244   D0E0         POP     A
   \   000246   F0           MOVX    @DPTR,A
   2007                if ( matchED->ed2numMatched )
   \   000247   90....       MOV     DPTR,#matchED
   \   00024A   E0           MOVX    A,@DPTR
   \   00024B   2434         ADD     A,#0x34
   \   00024D   F8           MOV     R0,A
   \   00024E   A3           INC     DPTR
   \   00024F   E0           MOVX    A,@DPTR
   \   000250   3400         ADDC    A,#0x0
   \   000252   F9           MOV     R1,A
   \   000253   8882         MOV     DPL,R0
   \   000255   8983         MOV     DPH,R1
   \   000257   E0           MOVX    A,@DPTR
   \   000258   7003         JNZ     $+5
   \   00025A   02....       LJMP    ??ZDO_MatchEndDeviceBind_7 & 0xFFFF
   2008                {
   2009                  // Save the match list
   2010                  matchED->ed2Matched = osal_mem_alloc( (short)(matchED->ed2numMatched * sizeof ( uint16 )) );
   \   00025D                ; Setup parameters for call to function osal_mem_alloc
   \   00025D   E0           MOVX    A,@DPTR
   \   00025E   C3           CLR     C
   \   00025F   33           RLC     A
   \   000260   FA           MOV     R2,A
   \   000261   E4           CLR     A
   \   000262   33           RLC     A
   \   000263   FB           MOV     R3,A
   \   000264   12....       LCALL   ??osal_mem_alloc?relay
   \   000267   8A..         MOV     ?V0 + 0,R2
   \   000269   8B..         MOV     ?V0 + 1,R3
   \   00026B   90....       MOV     DPTR,#matchED
   \   00026E   E0           MOVX    A,@DPTR
   \   00026F   2435         ADD     A,#0x35
   \   000271   FA           MOV     R2,A
   \   000272   A3           INC     DPTR
   \   000273   E0           MOVX    A,@DPTR
   \   000274   3400         ADDC    A,#0x0
   \   000276   FB           MOV     R3,A
   \   000277   8A82         MOV     DPL,R2
   \   000279   8B83         MOV     DPH,R3
   \   00027B   E5..         MOV     A,?V0 + 0
   \   00027D   F0           MOVX    @DPTR,A
   \   00027E   A3           INC     DPTR
   \   00027F   E5..         MOV     A,?V0 + 1
   \   000281   F0           MOVX    @DPTR,A
   2011                  if ( matchED->ed2Matched )
   \   000282   90....       MOV     DPTR,#matchED
   \   000285   E0           MOVX    A,@DPTR
   \   000286   2435         ADD     A,#0x35
   \   000288   F8           MOV     R0,A
   \   000289   A3           INC     DPTR
   \   00028A   E0           MOVX    A,@DPTR
   \   00028B   3400         ADDC    A,#0x0
   \   00028D   F9           MOV     R1,A
   \   00028E   E8           MOV     A,R0
   \   00028F   FA           MOV     R2,A
   \   000290   E9           MOV     A,R1
   \   000291   FB           MOV     R3,A
   \   000292   8A82         MOV     DPL,R2
   \   000294   8B83         MOV     DPH,R3
   \   000296   E0           MOVX    A,@DPTR
   \   000297   F8           MOV     R0,A
   \   000298   A3           INC     DPTR
   \   000299   E0           MOVX    A,@DPTR
   \   00029A   F9           MOV     R1,A
   \   00029B   E8           MOV     A,R0
   \   00029C   49           ORL     A,R1
   \   00029D   6038         JZ      ??ZDO_MatchEndDeviceBind_8
   2012                  {
   2013                    osal_memcpy( matchED->ed2Matched, ZDOBuildBuf, (matchED->ed2numMatched * sizeof ( uint16 )) );
   \   00029F                ; Setup parameters for call to function osal_memcpy
   \   00029F   75....       MOV     ?V0 + 0,#ZDOBuildBuf & 0xff
   \   0002A2   75....       MOV     ?V0 + 1,#(ZDOBuildBuf >> 8) & 0xff
   \   0002A5   75..00       MOV     ?V0 + 2,#0x0
   \   0002A8   78..         MOV     R0,#?V0 + 0
   \   0002AA   12....       LCALL   ?PUSH_XSTACK_I_THREE
   \   0002AD   90....       MOV     DPTR,#matchED
   \   0002B0   E0           MOVX    A,@DPTR
   \   0002B1   2434         ADD     A,#0x34
   \   0002B3   F8           MOV     R0,A
   \   0002B4   A3           INC     DPTR
   \   0002B5   E0           MOVX    A,@DPTR
   \   0002B6   3400         ADDC    A,#0x0
   \   0002B8   F9           MOV     R1,A
   \   0002B9   8882         MOV     DPL,R0
   \   0002BB   8983         MOV     DPH,R1
   \   0002BD   E0           MOVX    A,@DPTR
   \   0002BE   C3           CLR     C
   \   0002BF   33           RLC     A
   \   0002C0   FC           MOV     R4,A
   \   0002C1   E4           CLR     A
   \   0002C2   33           RLC     A
   \   0002C3   FD           MOV     R5,A
   \   0002C4   8A82         MOV     DPL,R2
   \   0002C6   8B83         MOV     DPH,R3
   \   0002C8   E0           MOVX    A,@DPTR
   \   0002C9   FA           MOV     R2,A
   \   0002CA   A3           INC     DPTR
   \   0002CB   E0           MOVX    A,@DPTR
   \   0002CC   FB           MOV     R3,A
   \   0002CD   12....       LCALL   ??osal_memcpy?relay
   \   0002D0   7403         MOV     A,#0x3
   \   0002D2   12....       LCALL   ?DEALLOC_XSTACK8
   \   0002D5   800B         SJMP    ??ZDO_MatchEndDeviceBind_7
   2014                  }
   2015                  else
   2016                  {
   2017                    // Allocation error, stop
   2018                    status = ZDP_NO_ENTRY;
   \                     ??ZDO_MatchEndDeviceBind_8:
   \   0002D7   85..82       MOV     DPL,?XSP + 0
   \   0002DA   85..83       MOV     DPH,?XSP + 1
   \   0002DD   7488         MOV     A,#-0x78
   \   0002DF   F0           MOVX    @DPTR,A
   2019                    sendRsp = TRUE;
   \   0002E0   7E01         MOV     R6,#0x1
   2020                  }
   2021                }
   2022          
   2023                if ( (sendRsp == FALSE) && (matchED->ed1numMatched || matchED->ed2numMatched) )
   \                     ??ZDO_MatchEndDeviceBind_7:
   \   0002E2   EE           MOV     A,R6
   \   0002E3   7031         JNZ     ??ZDO_MatchEndDeviceBind_9
   \   0002E5   90....       MOV     DPTR,#matchED
   \   0002E8   E0           MOVX    A,@DPTR
   \   0002E9   2431         ADD     A,#0x31
   \   0002EB   F8           MOV     R0,A
   \   0002EC   A3           INC     DPTR
   \   0002ED   E0           MOVX    A,@DPTR
   \   0002EE   3400         ADDC    A,#0x0
   \   0002F0   F9           MOV     R1,A
   \   0002F1   8882         MOV     DPL,R0
   \   0002F3   8983         MOV     DPH,R1
   \   0002F5   E0           MOVX    A,@DPTR
   \   0002F6   7013         JNZ     ??ZDO_MatchEndDeviceBind_10
   \   0002F8   90....       MOV     DPTR,#matchED
   \   0002FB   E0           MOVX    A,@DPTR
   \   0002FC   2434         ADD     A,#0x34
   \   0002FE   F8           MOV     R0,A
   \   0002FF   A3           INC     DPTR
   \   000300   E0           MOVX    A,@DPTR
   \   000301   3400         ADDC    A,#0x0
   \   000303   F9           MOV     R1,A
   \   000304   8882         MOV     DPL,R0
   \   000306   8983         MOV     DPH,R1
   \   000308   E0           MOVX    A,@DPTR
   \   000309   600B         JZ      ??ZDO_MatchEndDeviceBind_9
   2024                {
   2025                  // Do the first unbind/bind state
   2026                  ZDMatchSendState( ZDMATCH_REASON_START, ZDP_SUCCESS, 0 );
   \                     ??ZDO_MatchEndDeviceBind_10:
   \   00030B                ; Setup parameters for call to function ZDMatchSendState
   \   00030B   7B00         MOV     R3,#0x0
   \   00030D   7A00         MOV     R2,#0x0
   \   00030F   7900         MOV     R1,#0x0
   \   000311   12....       LCALL   ??ZDMatchSendState?relay
   \   000314   800B         SJMP    ??ZDO_MatchEndDeviceBind_3
   2027                }
   2028                else
   2029                {
   2030                  status = ZDP_NO_MATCH;
   \                     ??ZDO_MatchEndDeviceBind_9:
   \   000316   85..82       MOV     DPL,?XSP + 0
   \   000319   85..83       MOV     DPH,?XSP + 1
   \   00031C   7486         MOV     A,#-0x7a
   \   00031E   F0           MOVX    @DPTR,A
   2031                  sendRsp = TRUE;
   \   00031F   7E01         MOV     R6,#0x1
   2032                }
   2033            }
   2034          
   2035            if ( sendRsp )
   \                     ??ZDO_MatchEndDeviceBind_3:
   \   000321   EE           MOV     A,R6
   \   000322   7003         JNZ     $+5
   \   000324   02....       LJMP    ??ZDO_MatchEndDeviceBind_11 & 0xFFFF
   2036            {
   2037              // send response to this requester
   2038              dstAddr.addrMode = Addr16Bit;
   \   000327   7409         MOV     A,#0x9
   \   000329   12....       LCALL   ?XSTACK_DISP0_8
   \   00032C   7402         MOV     A,#0x2
   \   00032E   F0           MOVX    @DPTR,A
   2039              dstAddr.addr.shortAddr = bindReq->srcAddr;
   \   00032F   85..82       MOV     DPL,?V0 + 4
   \   000332   85..83       MOV     DPH,?V0 + 5
   \   000335   A3           INC     DPTR
   \   000336   A3           INC     DPTR
   \   000337   E0           MOVX    A,@DPTR
   \   000338   F8           MOV     R0,A
   \   000339   A3           INC     DPTR
   \   00033A   E0           MOVX    A,@DPTR
   \   00033B   F9           MOV     R1,A
   \   00033C   7401         MOV     A,#0x1
   \   00033E   12....       LCALL   ?XSTACK_DISP0_8
   \   000341   E8           MOV     A,R0
   \   000342   F0           MOVX    @DPTR,A
   \   000343   A3           INC     DPTR
   \   000344   E9           MOV     A,R1
   \   000345   F0           MOVX    @DPTR,A
   2040              ZDP_EndDeviceBindRsp( bindReq->TransSeq, &dstAddr, status, bindReq->SecurityUse );
   \   000346                ; Setup parameters for call to function ZDP_SendData
   \   000346   85..82       MOV     DPL,?V0 + 4
   \   000349   85..83       MOV     DPH,?V0 + 5
   \   00034C   A3           INC     DPTR
   \   00034D   E0           MOVX    A,@DPTR
   \   00034E   F5..         MOV     ?V0 + 0,A
   \   000350   78..         MOV     R0,#?V0 + 0
   \   000352   12....       LCALL   ?PUSH_XSTACK_I_ONE
   \   000355   7401         MOV     A,#0x1
   \   000357   12....       LCALL   ?XSTACK_DISP0_8
   \   00035A   8582..       MOV     ?V0 + 0,DPL
   \   00035D   8583..       MOV     ?V0 + 1,DPH
   \   000360   78..         MOV     R0,#?V0 + 0
   \   000362   12....       LCALL   ?PUSH_XSTACK_I_TWO
   \   000365   75..20       MOV     ?V0 + 0,#0x20
   \   000368   75..80       MOV     ?V0 + 1,#-0x80
   \   00036B   78..         MOV     R0,#?V0 + 0
   \   00036D   12....       LCALL   ?PUSH_XSTACK_I_TWO
   \   000370   7901         MOV     R1,#0x1
   \   000372   7406         MOV     A,#0x6
   \   000374   12....       LCALL   ?XSTACK_DISP0_8
   \   000377   AC82         MOV     R4,DPL
   \   000379   AD83         MOV     R5,DPH
   \   00037B   AA..         MOV     R2,?V0 + 4
   \   00037D   AB..         MOV     R3,?V0 + 5
   \   00037F   12....       LCALL   ??ZDP_SendData?relay
   \   000382   7405         MOV     A,#0x5
   \   000384   12....       LCALL   ?DEALLOC_XSTACK8
   2041          
   2042              if ( matchED->state == ZDMATCH_SENDING_BINDS )
   \   000387   90....       MOV     DPTR,#matchED
   \   00038A   E0           MOVX    A,@DPTR
   \   00038B   242E         ADD     A,#0x2e
   \   00038D   F8           MOV     R0,A
   \   00038E   A3           INC     DPTR
   \   00038F   E0           MOVX    A,@DPTR
   \   000390   3400         ADDC    A,#0x0
   \   000392   F9           MOV     R1,A
   \   000393   8882         MOV     DPL,R0
   \   000395   8983         MOV     DPH,R1
   \   000397   E0           MOVX    A,@DPTR
   \   000398   6402         XRL     A,#0x2
   \   00039A   706E         JNZ     ??ZDO_MatchEndDeviceBind_12
   2043              {
   2044                // send response to first requester
   2045                dstAddr.addrMode = Addr16Bit;
   \   00039C   7409         MOV     A,#0x9
   \   00039E   12....       LCALL   ?XSTACK_DISP0_8
   \   0003A1   7402         MOV     A,#0x2
   \   0003A3   F0           MOVX    @DPTR,A
   2046                dstAddr.addr.shortAddr = matchED->ed1.srcAddr;
   \   0003A4   90....       MOV     DPTR,#matchED
   \   0003A7   E0           MOVX    A,@DPTR
   \   0003A8   F8           MOV     R0,A
   \   0003A9   A3           INC     DPTR
   \   0003AA   E0           MOVX    A,@DPTR
   \   0003AB   F583         MOV     DPH,A
   \   0003AD   8882         MOV     DPL,R0
   \   0003AF   A3           INC     DPTR
   \   0003B0   A3           INC     DPTR
   \   0003B1   E0           MOVX    A,@DPTR
   \   0003B2   F8           MOV     R0,A
   \   0003B3   A3           INC     DPTR
   \   0003B4   E0           MOVX    A,@DPTR
   \   0003B5   F9           MOV     R1,A
   \   0003B6   7401         MOV     A,#0x1
   \   0003B8   12....       LCALL   ?XSTACK_DISP0_8
   \   0003BB   E8           MOV     A,R0
   \   0003BC   F0           MOVX    @DPTR,A
   \   0003BD   A3           INC     DPTR
   \   0003BE   E9           MOV     A,R1
   \   0003BF   F0           MOVX    @DPTR,A
   2047                ZDP_EndDeviceBindRsp( matchED->ed1.TransSeq, &dstAddr, status, matchED->ed1.SecurityUse );
   \   0003C0                ; Setup parameters for call to function ZDP_SendData
   \   0003C0   90....       MOV     DPTR,#matchED
   \   0003C3   E0           MOVX    A,@DPTR
   \   0003C4   F8           MOV     R0,A
   \   0003C5   A3           INC     DPTR
   \   0003C6   E0           MOVX    A,@DPTR
   \   0003C7   F583         MOV     DPH,A
   \   0003C9   8882         MOV     DPL,R0
   \   0003CB   A3           INC     DPTR
   \   0003CC   E0           MOVX    A,@DPTR
   \   0003CD   F5..         MOV     ?V0 + 0,A
   \   0003CF   78..         MOV     R0,#?V0 + 0
   \   0003D1   12....       LCALL   ?PUSH_XSTACK_I_ONE
   \   0003D4   7401         MOV     A,#0x1
   \   0003D6   12....       LCALL   ?XSTACK_DISP0_8
   \   0003D9   8582..       MOV     ?V0 + 0,DPL
   \   0003DC   8583..       MOV     ?V0 + 1,DPH
   \   0003DF   78..         MOV     R0,#?V0 + 0
   \   0003E1   12....       LCALL   ?PUSH_XSTACK_I_TWO
   \   0003E4   75..20       MOV     ?V0 + 0,#0x20
   \   0003E7   75..80       MOV     ?V0 + 1,#-0x80
   \   0003EA   78..         MOV     R0,#?V0 + 0
   \   0003EC   12....       LCALL   ?PUSH_XSTACK_I_TWO
   \   0003EF   7901         MOV     R1,#0x1
   \   0003F1   7406         MOV     A,#0x6
   \   0003F3   12....       LCALL   ?XSTACK_DISP0_8
   \   0003F6   AC82         MOV     R4,DPL
   \   0003F8   AD83         MOV     R5,DPH
   \   0003FA   90....       MOV     DPTR,#matchED
   \   0003FD   E0           MOVX    A,@DPTR
   \   0003FE   FA           MOV     R2,A
   \   0003FF   A3           INC     DPTR
   \   000400   E0           MOVX    A,@DPTR
   \   000401   FB           MOV     R3,A
   \   000402   12....       LCALL   ??ZDP_SendData?relay
   \   000405   7405         MOV     A,#0x5
   \   000407   12....       LCALL   ?DEALLOC_XSTACK8
   2048              }
   2049          
   2050              // Process ended - release memory used
   2051              ZDO_RemoveMatchMemory();
   \                     ??ZDO_MatchEndDeviceBind_12:
   \   00040A                ; Setup parameters for call to function ZDO_RemoveMatchMemory
   \   00040A   12....       LCALL   ??ZDO_RemoveMatchMemory?relay
   2052            }
   2053          }
   \                     ??ZDO_MatchEndDeviceBind_11:
   \   00040D   740A         MOV     A,#0xa
   \   00040F   12....       LCALL   ?DEALLOC_XSTACK8
   \   000412   7F06         MOV     R7,#0x6
   \   000414   02....       LJMP    ?BANKED_LEAVE_XDATA
   2054          
   2055          /*********************************************************************
   2056           * @fn      ZDO_RemoveMatchMemory()
   2057           *
   2058           * @brief   Called to clear the memory used for the end device bind.
   2059           *
   2060           * @param  none
   2061           *
   2062           * @return  none
   2063           */

   \                                 In  segment BANKED_CODE, align 1, keep-with-next
   2064          static void ZDO_RemoveMatchMemory( void )
   \                     ZDO_RemoveMatchMemory:
   2065          {
   \   000000   C082         PUSH    DPL
   \   000002   C083         PUSH    DPH
   \   000004                ; Saved register size: 2
   \   000004                ; Auto size: 0
   2066            if ( matchED != NULL )
   \   000004   90....       MOV     DPTR,#matchED
   \   000007   E0           MOVX    A,@DPTR
   \   000008   F8           MOV     R0,A
   \   000009   A3           INC     DPTR
   \   00000A   E0           MOVX    A,@DPTR
   \   00000B   F9           MOV     R1,A
   \   00000C   E8           MOV     A,R0
   \   00000D   49           ORL     A,R1
   \   00000E   7003         JNZ     $+5
   \   000010   02....       LJMP    ??ZDO_RemoveMatchMemory_0 & 0xFFFF
   2067            {
   2068              if ( matchED->ed2Matched != NULL )
   \   000013   90....       MOV     DPTR,#matchED
   \   000016   E0           MOVX    A,@DPTR
   \   000017   2435         ADD     A,#0x35
   \   000019   F8           MOV     R0,A
   \   00001A   A3           INC     DPTR
   \   00001B   E0           MOVX    A,@DPTR
   \   00001C   3400         ADDC    A,#0x0
   \   00001E   F9           MOV     R1,A
   \   00001F   8882         MOV     DPL,R0
   \   000021   8983         MOV     DPH,R1
   \   000023   E0           MOVX    A,@DPTR
   \   000024   FA           MOV     R2,A
   \   000025   A3           INC     DPTR
   \   000026   E0           MOVX    A,@DPTR
   \   000027   FB           MOV     R3,A
   \   000028   EA           MOV     A,R2
   \   000029   4B           ORL     A,R3
   \   00002A   600C         JZ      ??ZDO_RemoveMatchMemory_1
   2069                osal_mem_free( matchED->ed2Matched );
   \   00002C                ; Setup parameters for call to function osal_mem_free
   \   00002C   8882         MOV     DPL,R0
   \   00002E   8983         MOV     DPH,R1
   \   000030   E0           MOVX    A,@DPTR
   \   000031   FA           MOV     R2,A
   \   000032   A3           INC     DPTR
   \   000033   E0           MOVX    A,@DPTR
   \   000034   FB           MOV     R3,A
   \   000035   12....       LCALL   ??osal_mem_free?relay
   2070              if ( matchED->ed1Matched != NULL )
   \                     ??ZDO_RemoveMatchMemory_1:
   \   000038   90....       MOV     DPTR,#matchED
   \   00003B   E0           MOVX    A,@DPTR
   \   00003C   2432         ADD     A,#0x32
   \   00003E   F8           MOV     R0,A
   \   00003F   A3           INC     DPTR
   \   000040   E0           MOVX    A,@DPTR
   \   000041   3400         ADDC    A,#0x0
   \   000043   F9           MOV     R1,A
   \   000044   8882         MOV     DPL,R0
   \   000046   8983         MOV     DPH,R1
   \   000048   E0           MOVX    A,@DPTR
   \   000049   FA           MOV     R2,A
   \   00004A   A3           INC     DPTR
   \   00004B   E0           MOVX    A,@DPTR
   \   00004C   FB           MOV     R3,A
   \   00004D   EA           MOV     A,R2
   \   00004E   4B           ORL     A,R3
   \   00004F   600C         JZ      ??ZDO_RemoveMatchMemory_2
   2071                osal_mem_free( matchED->ed1Matched );
   \   000051                ; Setup parameters for call to function osal_mem_free
   \   000051   8882         MOV     DPL,R0
   \   000053   8983         MOV     DPH,R1
   \   000055   E0           MOVX    A,@DPTR
   \   000056   FA           MOV     R2,A
   \   000057   A3           INC     DPTR
   \   000058   E0           MOVX    A,@DPTR
   \   000059   FB           MOV     R3,A
   \   00005A   12....       LCALL   ??osal_mem_free?relay
   2072          
   2073              if ( matchED->ed1.inClusters != NULL )
   \                     ??ZDO_RemoveMatchMemory_2:
   \   00005D   90....       MOV     DPTR,#matchED
   \   000060   E0           MOVX    A,@DPTR
   \   000061   2412         ADD     A,#0x12
   \   000063   F8           MOV     R0,A
   \   000064   A3           INC     DPTR
   \   000065   E0           MOVX    A,@DPTR
   \   000066   3400         ADDC    A,#0x0
   \   000068   F9           MOV     R1,A
   \   000069   8882         MOV     DPL,R0
   \   00006B   8983         MOV     DPH,R1
   \   00006D   E0           MOVX    A,@DPTR
   \   00006E   FA           MOV     R2,A
   \   00006F   A3           INC     DPTR
   \   000070   E0           MOVX    A,@DPTR
   \   000071   FB           MOV     R3,A
   \   000072   EA           MOV     A,R2
   \   000073   4B           ORL     A,R3
   \   000074   600C         JZ      ??ZDO_RemoveMatchMemory_3
   2074                osal_mem_free( matchED->ed1.inClusters );
   \   000076                ; Setup parameters for call to function osal_mem_free
   \   000076   8882         MOV     DPL,R0
   \   000078   8983         MOV     DPH,R1
   \   00007A   E0           MOVX    A,@DPTR
   \   00007B   FA           MOV     R2,A
   \   00007C   A3           INC     DPTR
   \   00007D   E0           MOVX    A,@DPTR
   \   00007E   FB           MOV     R3,A
   \   00007F   12....       LCALL   ??osal_mem_free?relay
   2075          
   2076              if ( matchED->ed1.outClusters != NULL )
   \                     ??ZDO_RemoveMatchMemory_3:
   \   000082   90....       MOV     DPTR,#matchED
   \   000085   E0           MOVX    A,@DPTR
   \   000086   2415         ADD     A,#0x15
   \   000088   F8           MOV     R0,A
   \   000089   A3           INC     DPTR
   \   00008A   E0           MOVX    A,@DPTR
   \   00008B   3400         ADDC    A,#0x0
   \   00008D   F9           MOV     R1,A
   \   00008E   8882         MOV     DPL,R0
   \   000090   8983         MOV     DPH,R1
   \   000092   E0           MOVX    A,@DPTR
   \   000093   FA           MOV     R2,A
   \   000094   A3           INC     DPTR
   \   000095   E0           MOVX    A,@DPTR
   \   000096   FB           MOV     R3,A
   \   000097   EA           MOV     A,R2
   \   000098   4B           ORL     A,R3
   \   000099   600C         JZ      ??ZDO_RemoveMatchMemory_4
   2077                osal_mem_free( matchED->ed1.outClusters );
   \   00009B                ; Setup parameters for call to function osal_mem_free
   \   00009B   8882         MOV     DPL,R0
   \   00009D   8983         MOV     DPH,R1
   \   00009F   E0           MOVX    A,@DPTR
   \   0000A0   FA           MOV     R2,A
   \   0000A1   A3           INC     DPTR
   \   0000A2   E0           MOVX    A,@DPTR
   \   0000A3   FB           MOV     R3,A
   \   0000A4   12....       LCALL   ??osal_mem_free?relay
   2078          
   2079              if ( matchED->ed2.inClusters != NULL )
   \                     ??ZDO_RemoveMatchMemory_4:
   \   0000A7   90....       MOV     DPTR,#matchED
   \   0000AA   E0           MOVX    A,@DPTR
   \   0000AB   2429         ADD     A,#0x29
   \   0000AD   F8           MOV     R0,A
   \   0000AE   A3           INC     DPTR
   \   0000AF   E0           MOVX    A,@DPTR
   \   0000B0   3400         ADDC    A,#0x0
   \   0000B2   F9           MOV     R1,A
   \   0000B3   8882         MOV     DPL,R0
   \   0000B5   8983         MOV     DPH,R1
   \   0000B7   E0           MOVX    A,@DPTR
   \   0000B8   FA           MOV     R2,A
   \   0000B9   A3           INC     DPTR
   \   0000BA   E0           MOVX    A,@DPTR
   \   0000BB   FB           MOV     R3,A
   \   0000BC   EA           MOV     A,R2
   \   0000BD   4B           ORL     A,R3
   \   0000BE   600C         JZ      ??ZDO_RemoveMatchMemory_5
   2080                osal_mem_free( matchED->ed2.inClusters );
   \   0000C0                ; Setup parameters for call to function osal_mem_free
   \   0000C0   8882         MOV     DPL,R0
   \   0000C2   8983         MOV     DPH,R1
   \   0000C4   E0           MOVX    A,@DPTR
   \   0000C5   FA           MOV     R2,A
   \   0000C6   A3           INC     DPTR
   \   0000C7   E0           MOVX    A,@DPTR
   \   0000C8   FB           MOV     R3,A
   \   0000C9   12....       LCALL   ??osal_mem_free?relay
   2081          
   2082              if ( matchED->ed2.outClusters != NULL )
   \                     ??ZDO_RemoveMatchMemory_5:
   \   0000CC   90....       MOV     DPTR,#matchED
   \   0000CF   E0           MOVX    A,@DPTR
   \   0000D0   242C         ADD     A,#0x2c
   \   0000D2   F8           MOV     R0,A
   \   0000D3   A3           INC     DPTR
   \   0000D4   E0           MOVX    A,@DPTR
   \   0000D5   3400         ADDC    A,#0x0
   \   0000D7   F9           MOV     R1,A
   \   0000D8   8882         MOV     DPL,R0
   \   0000DA   8983         MOV     DPH,R1
   \   0000DC   E0           MOVX    A,@DPTR
   \   0000DD   FA           MOV     R2,A
   \   0000DE   A3           INC     DPTR
   \   0000DF   E0           MOVX    A,@DPTR
   \   0000E0   FB           MOV     R3,A
   \   0000E1   EA           MOV     A,R2
   \   0000E2   4B           ORL     A,R3
   \   0000E3   600C         JZ      ??ZDO_RemoveMatchMemory_6
   2083                osal_mem_free( matchED->ed2.outClusters );
   \   0000E5                ; Setup parameters for call to function osal_mem_free
   \   0000E5   8882         MOV     DPL,R0
   \   0000E7   8983         MOV     DPH,R1
   \   0000E9   E0           MOVX    A,@DPTR
   \   0000EA   FA           MOV     R2,A
   \   0000EB   A3           INC     DPTR
   \   0000EC   E0           MOVX    A,@DPTR
   \   0000ED   FB           MOV     R3,A
   \   0000EE   12....       LCALL   ??osal_mem_free?relay
   2084          
   2085              osal_mem_free( matchED );
   \                     ??ZDO_RemoveMatchMemory_6:
   \   0000F1                ; Setup parameters for call to function osal_mem_free
   \   0000F1   90....       MOV     DPTR,#matchED
   \   0000F4   E0           MOVX    A,@DPTR
   \   0000F5   FA           MOV     R2,A
   \   0000F6   A3           INC     DPTR
   \   0000F7   E0           MOVX    A,@DPTR
   \   0000F8   FB           MOV     R3,A
   \   0000F9   12....       LCALL   ??osal_mem_free?relay
   2086          
   2087              matchED = (ZDMatchEndDeviceBind_t *)NULL;
   \   0000FC   90....       MOV     DPTR,#matchED
   \   0000FF   E4           CLR     A
   \   000100   F0           MOVX    @DPTR,A
   \   000101   A3           INC     DPTR
   \   000102   F0           MOVX    @DPTR,A
   2088            }
   2089          }
   \                     ??ZDO_RemoveMatchMemory_0:
   \   000103   D083         POP     DPH
   \   000105   D082         POP     DPL
   \   000107   02....       LJMP    ?BRET
   2090          
   2091          /*********************************************************************
   2092           * @fn      ZDO_CopyMatchInfo()
   2093           *
   2094           * @brief   Called to copy memory used for the end device bind.
   2095           *
   2096           * @param  srcReq - source information
   2097           * @param  dstReq - destination location
   2098           *
   2099           * @return  TRUE if copy was successful.
   2100           */

   \                                 In  segment BANKED_CODE, align 1, keep-with-next
   2101          static uint8 ZDO_CopyMatchInfo( ZDEndDeviceBind_t *destReq, ZDEndDeviceBind_t *srcReq )
   \                     ZDO_CopyMatchInfo:
   2102          {
   \   000000   74F0         MOV     A,#-0x10
   \   000002   12....       LCALL   ?BANKED_ENTER_XDATA
   \   000005                ; Saved register size: 16
   \   000005                ; Auto size: 4
   \   000005   74FC         MOV     A,#-0x4
   \   000007   12....       LCALL   ?ALLOC_XSTACK8
   \   00000A   7402         MOV     A,#0x2
   \   00000C   12....       LCALL   ?XSTACK_DISP0_8
   \   00000F   EC           MOV     A,R4
   \   000010   F0           MOVX    @DPTR,A
   \   000011   A3           INC     DPTR
   \   000012   ED           MOV     A,R5
   \   000013   F0           MOVX    @DPTR,A
   \   000014   8A..         MOV     ?V0 + 4,R2
   \   000016   8B..         MOV     ?V0 + 5,R3
   2103            uint8 allOK = TRUE;
   \   000018   7E01         MOV     R6,#0x1
   2104          
   2105            // Copy bind information into the match info structure
   2106            osal_memcpy( (uint8 *)destReq, srcReq, sizeof ( ZDEndDeviceBind_t ) );
   \   00001A                ; Setup parameters for call to function osal_memcpy
   \   00001A   7402         MOV     A,#0x2
   \   00001C   12....       LCALL   ?XSTACK_DISP0_8
   \   00001F   E0           MOVX    A,@DPTR
   \   000020   F5..         MOV     ?V0 + 0,A
   \   000022   A3           INC     DPTR
   \   000023   E0           MOVX    A,@DPTR
   \   000024   F5..         MOV     ?V0 + 1,A
   \   000026   75..00       MOV     ?V0 + 2,#0x0
   \   000029   78..         MOV     R0,#?V0 + 0
   \   00002B   12....       LCALL   ?PUSH_XSTACK_I_THREE
   \   00002E   7C17         MOV     R4,#0x17
   \   000030   7D00         MOV     R5,#0x0
   \   000032   12....       LCALL   ??osal_memcpy?relay
   \   000035   7403         MOV     A,#0x3
   \   000037   12....       LCALL   ?DEALLOC_XSTACK8
   2107          
   2108            // Initialize the destination cluster pointers
   2109            destReq->inClusters = NULL;
   \   00003A   E5..         MOV     A,?V0 + 4
   \   00003C   2412         ADD     A,#0x12
   \   00003E   F5..         MOV     ?V0 + 6,A
   \   000040   E5..         MOV     A,?V0 + 5
   \   000042   3400         ADDC    A,#0x0
   \   000044   F5..         MOV     ?V0 + 7,A
   \   000046   85..82       MOV     DPL,?V0 + 6
   \   000049   F583         MOV     DPH,A
   \   00004B   E4           CLR     A
   \   00004C   F0           MOVX    @DPTR,A
   \   00004D   A3           INC     DPTR
   \   00004E   F0           MOVX    @DPTR,A
   2110            destReq->outClusters = NULL;
   \   00004F   E5..         MOV     A,?V0 + 4
   \   000051   2415         ADD     A,#0x15
   \   000053   F5..         MOV     ?V0 + 4,A
   \   000055   E5..         MOV     A,?V0 + 5
   \   000057   3400         ADDC    A,#0x0
   \   000059   F5..         MOV     ?V0 + 5,A
   \   00005B   85..82       MOV     DPL,?V0 + 4
   \   00005E   F583         MOV     DPH,A
   \   000060   E4           CLR     A
   \   000061   F0           MOVX    @DPTR,A
   \   000062   A3           INC     DPTR
   \   000063   F0           MOVX    @DPTR,A
   2111          
   2112            // Copy input cluster IDs
   2113            if ( srcReq->numInClusters )
   \   000064   7402         MOV     A,#0x2
   \   000066   12....       LCALL   ?XSTACK_DISP0_8
   \   000069   E0           MOVX    A,@DPTR
   \   00006A   2411         ADD     A,#0x11
   \   00006C   F8           MOV     R0,A
   \   00006D   A3           INC     DPTR
   \   00006E   E0           MOVX    A,@DPTR
   \   00006F   3400         ADDC    A,#0x0
   \   000071   F9           MOV     R1,A
   \   000072   85..82       MOV     DPL,?XSP + 0
   \   000075   85..83       MOV     DPH,?XSP + 1
   \   000078   E8           MOV     A,R0
   \   000079   F0           MOVX    @DPTR,A
   \   00007A   A3           INC     DPTR
   \   00007B   E9           MOV     A,R1
   \   00007C   F0           MOVX    @DPTR,A
   \   00007D   85..82       MOV     DPL,?XSP + 0
   \   000080   85..83       MOV     DPH,?XSP + 1
   \   000083   E0           MOVX    A,@DPTR
   \   000084   F8           MOV     R0,A
   \   000085   A3           INC     DPTR
   \   000086   E0           MOVX    A,@DPTR
   \   000087   F583         MOV     DPH,A
   \   000089   8882         MOV     DPL,R0
   \   00008B   E0           MOVX    A,@DPTR
   \   00008C   607A         JZ      ??ZDO_CopyMatchInfo_0
   2114            {
   2115              destReq->inClusters = osal_mem_alloc( (short)(srcReq->numInClusters * sizeof ( uint16 )) );
   \   00008E                ; Setup parameters for call to function osal_mem_alloc
   \   00008E   85..82       MOV     DPL,?XSP + 0
   \   000091   85..83       MOV     DPH,?XSP + 1
   \   000094   E0           MOVX    A,@DPTR
   \   000095   F8           MOV     R0,A
   \   000096   A3           INC     DPTR
   \   000097   E0           MOVX    A,@DPTR
   \   000098   F583         MOV     DPH,A
   \   00009A   8882         MOV     DPL,R0
   \   00009C   E0           MOVX    A,@DPTR
   \   00009D   C3           CLR     C
   \   00009E   33           RLC     A
   \   00009F   FA           MOV     R2,A
   \   0000A0   E4           CLR     A
   \   0000A1   33           RLC     A
   \   0000A2   FB           MOV     R3,A
   \   0000A3   12....       LCALL   ??osal_mem_alloc?relay
   \   0000A6   85..82       MOV     DPL,?V0 + 6
   \   0000A9   85..83       MOV     DPH,?V0 + 7
   \   0000AC   EA           MOV     A,R2
   \   0000AD   F0           MOVX    @DPTR,A
   \   0000AE   A3           INC     DPTR
   \   0000AF   EB           MOV     A,R3
   \   0000B0   F0           MOVX    @DPTR,A
   2116              if ( destReq->inClusters )
   \   0000B1   85..82       MOV     DPL,?V0 + 6
   \   0000B4   85..83       MOV     DPH,?V0 + 7
   \   0000B7   E0           MOVX    A,@DPTR
   \   0000B8   F8           MOV     R0,A
   \   0000B9   A3           INC     DPTR
   \   0000BA   E0           MOVX    A,@DPTR
   \   0000BB   F9           MOV     R1,A
   \   0000BC   E8           MOV     A,R0
   \   0000BD   49           ORL     A,R1
   \   0000BE   6047         JZ      ??ZDO_CopyMatchInfo_1
   2117              {
   2118                // Copy the clusters
   2119                osal_memcpy( (uint8*)(destReq->inClusters), (uint8 *)(srcReq->inClusters),
   2120                                (srcReq->numInClusters * sizeof ( uint16 )) );
   \   0000C0                ; Setup parameters for call to function osal_memcpy
   \   0000C0   7402         MOV     A,#0x2
   \   0000C2   12....       LCALL   ?XSTACK_DISP0_8
   \   0000C5   E0           MOVX    A,@DPTR
   \   0000C6   2412         ADD     A,#0x12
   \   0000C8   F8           MOV     R0,A
   \   0000C9   A3           INC     DPTR
   \   0000CA   E0           MOVX    A,@DPTR
   \   0000CB   3400         ADDC    A,#0x0
   \   0000CD   F9           MOV     R1,A
   \   0000CE   8882         MOV     DPL,R0
   \   0000D0   8983         MOV     DPH,R1
   \   0000D2   E0           MOVX    A,@DPTR
   \   0000D3   F5..         MOV     ?V0 + 0,A
   \   0000D5   A3           INC     DPTR
   \   0000D6   E0           MOVX    A,@DPTR
   \   0000D7   F5..         MOV     ?V0 + 1,A
   \   0000D9   78..         MOV     R0,#?V0 + 0
   \   0000DB   12....       LCALL   ?PUSH_XSTACK_I_THREE
   \   0000DE   7403         MOV     A,#0x3
   \   0000E0   12....       LCALL   ?XSTACK_DISP0_8
   \   0000E3   E0           MOVX    A,@DPTR
   \   0000E4   F8           MOV     R0,A
   \   0000E5   A3           INC     DPTR
   \   0000E6   E0           MOVX    A,@DPTR
   \   0000E7   F583         MOV     DPH,A
   \   0000E9   8882         MOV     DPL,R0
   \   0000EB   E0           MOVX    A,@DPTR
   \   0000EC   C3           CLR     C
   \   0000ED   33           RLC     A
   \   0000EE   FC           MOV     R4,A
   \   0000EF   E4           CLR     A
   \   0000F0   33           RLC     A
   \   0000F1   FD           MOV     R5,A
   \   0000F2   85..82       MOV     DPL,?V0 + 6
   \   0000F5   85..83       MOV     DPH,?V0 + 7
   \   0000F8   E0           MOVX    A,@DPTR
   \   0000F9   FA           MOV     R2,A
   \   0000FA   A3           INC     DPTR
   \   0000FB   E0           MOVX    A,@DPTR
   \   0000FC   FB           MOV     R3,A
   \   0000FD   12....       LCALL   ??osal_memcpy?relay
   \   000100   7403         MOV     A,#0x3
   \   000102   12....       LCALL   ?DEALLOC_XSTACK8
   \   000105   8001         SJMP    ??ZDO_CopyMatchInfo_0
   2121              }
   2122              else
   2123                allOK = FALSE;
   \                     ??ZDO_CopyMatchInfo_1:
   \   000107   1E           DEC     R6
   2124            }
   2125          
   2126            // Copy output cluster IDs
   2127            if ( srcReq->numOutClusters )
   \                     ??ZDO_CopyMatchInfo_0:
   \   000108   7402         MOV     A,#0x2
   \   00010A   12....       LCALL   ?XSTACK_DISP0_8
   \   00010D   E0           MOVX    A,@DPTR
   \   00010E   2414         ADD     A,#0x14
   \   000110   F8           MOV     R0,A
   \   000111   A3           INC     DPTR
   \   000112   E0           MOVX    A,@DPTR
   \   000113   3400         ADDC    A,#0x0
   \   000115   F9           MOV     R1,A
   \   000116   85..82       MOV     DPL,?XSP + 0
   \   000119   85..83       MOV     DPH,?XSP + 1
   \   00011C   E8           MOV     A,R0
   \   00011D   F0           MOVX    @DPTR,A
   \   00011E   A3           INC     DPTR
   \   00011F   E9           MOV     A,R1
   \   000120   F0           MOVX    @DPTR,A
   \   000121   85..82       MOV     DPL,?XSP + 0
   \   000124   85..83       MOV     DPH,?XSP + 1
   \   000127   E0           MOVX    A,@DPTR
   \   000128   F8           MOV     R0,A
   \   000129   A3           INC     DPTR
   \   00012A   E0           MOVX    A,@DPTR
   \   00012B   F583         MOV     DPH,A
   \   00012D   8882         MOV     DPL,R0
   \   00012F   E0           MOVX    A,@DPTR
   \   000130   607B         JZ      ??ZDO_CopyMatchInfo_2
   2128            {
   2129              destReq->outClusters = osal_mem_alloc( (short)(srcReq->numOutClusters * sizeof ( uint16 )) );
   \   000132                ; Setup parameters for call to function osal_mem_alloc
   \   000132   85..82       MOV     DPL,?XSP + 0
   \   000135   85..83       MOV     DPH,?XSP + 1
   \   000138   E0           MOVX    A,@DPTR
   \   000139   F8           MOV     R0,A
   \   00013A   A3           INC     DPTR
   \   00013B   E0           MOVX    A,@DPTR
   \   00013C   F583         MOV     DPH,A
   \   00013E   8882         MOV     DPL,R0
   \   000140   E0           MOVX    A,@DPTR
   \   000141   C3           CLR     C
   \   000142   33           RLC     A
   \   000143   FA           MOV     R2,A
   \   000144   E4           CLR     A
   \   000145   33           RLC     A
   \   000146   FB           MOV     R3,A
   \   000147   12....       LCALL   ??osal_mem_alloc?relay
   \   00014A   85..82       MOV     DPL,?V0 + 4
   \   00014D   85..83       MOV     DPH,?V0 + 5
   \   000150   EA           MOV     A,R2
   \   000151   F0           MOVX    @DPTR,A
   \   000152   A3           INC     DPTR
   \   000153   EB           MOV     A,R3
   \   000154   F0           MOVX    @DPTR,A
   2130              if ( destReq->outClusters )
   \   000155   85..82       MOV     DPL,?V0 + 4
   \   000158   85..83       MOV     DPH,?V0 + 5
   \   00015B   E0           MOVX    A,@DPTR
   \   00015C   F8           MOV     R0,A
   \   00015D   A3           INC     DPTR
   \   00015E   E0           MOVX    A,@DPTR
   \   00015F   F9           MOV     R1,A
   \   000160   E8           MOV     A,R0
   \   000161   49           ORL     A,R1
   \   000162   6047         JZ      ??ZDO_CopyMatchInfo_3
   2131              {
   2132                // Copy the clusters
   2133                osal_memcpy( (uint8 *)(destReq->outClusters), (uint8 *)(srcReq->outClusters),
   2134                                (srcReq->numOutClusters * sizeof ( uint16 )) );
   \   000164                ; Setup parameters for call to function osal_memcpy
   \   000164   7402         MOV     A,#0x2
   \   000166   12....       LCALL   ?XSTACK_DISP0_8
   \   000169   E0           MOVX    A,@DPTR
   \   00016A   2415         ADD     A,#0x15
   \   00016C   F8           MOV     R0,A
   \   00016D   A3           INC     DPTR
   \   00016E   E0           MOVX    A,@DPTR
   \   00016F   3400         ADDC    A,#0x0
   \   000171   F9           MOV     R1,A
   \   000172   8882         MOV     DPL,R0
   \   000174   8983         MOV     DPH,R1
   \   000176   E0           MOVX    A,@DPTR
   \   000177   F5..         MOV     ?V0 + 0,A
   \   000179   A3           INC     DPTR
   \   00017A   E0           MOVX    A,@DPTR
   \   00017B   F5..         MOV     ?V0 + 1,A
   \   00017D   78..         MOV     R0,#?V0 + 0
   \   00017F   12....       LCALL   ?PUSH_XSTACK_I_THREE
   \   000182   7403         MOV     A,#0x3
   \   000184   12....       LCALL   ?XSTACK_DISP0_8
   \   000187   E0           MOVX    A,@DPTR
   \   000188   F8           MOV     R0,A
   \   000189   A3           INC     DPTR
   \   00018A   E0           MOVX    A,@DPTR
   \   00018B   F583         MOV     DPH,A
   \   00018D   8882         MOV     DPL,R0
   \   00018F   E0           MOVX    A,@DPTR
   \   000190   C3           CLR     C
   \   000191   33           RLC     A
   \   000192   FC           MOV     R4,A
   \   000193   E4           CLR     A
   \   000194   33           RLC     A
   \   000195   FD           MOV     R5,A
   \   000196   85..82       MOV     DPL,?V0 + 4
   \   000199   85..83       MOV     DPH,?V0 + 5
   \   00019C   E0           MOVX    A,@DPTR
   \   00019D   FA           MOV     R2,A
   \   00019E   A3           INC     DPTR
   \   00019F   E0           MOVX    A,@DPTR
   \   0001A0   FB           MOV     R3,A
   \   0001A1   12....       LCALL   ??osal_memcpy?relay
   \   0001A4   7403         MOV     A,#0x3
   \   0001A6   12....       LCALL   ?DEALLOC_XSTACK8
   \   0001A9   8002         SJMP    ??ZDO_CopyMatchInfo_2
   2135              }
   2136              else
   2137                allOK = FALSE;
   \                     ??ZDO_CopyMatchInfo_3:
   \   0001AB   7E00         MOV     R6,#0x0
   2138            }
   2139          
   2140            if ( !allOK )
   \                     ??ZDO_CopyMatchInfo_2:
   \   0001AD   EE           MOV     A,R6
   \   0001AE   703A         JNZ     ??ZDO_CopyMatchInfo_4
   2141            {
   2142              if ( destReq->inClusters != NULL )
   \   0001B0   85..82       MOV     DPL,?V0 + 6
   \   0001B3   85..83       MOV     DPH,?V0 + 7
   \   0001B6   E0           MOVX    A,@DPTR
   \   0001B7   F8           MOV     R0,A
   \   0001B8   A3           INC     DPTR
   \   0001B9   E0           MOVX    A,@DPTR
   \   0001BA   F9           MOV     R1,A
   \   0001BB   E8           MOV     A,R0
   \   0001BC   49           ORL     A,R1
   \   0001BD   600E         JZ      ??ZDO_CopyMatchInfo_5
   2143                osal_mem_free( destReq->inClusters );
   \   0001BF                ; Setup parameters for call to function osal_mem_free
   \   0001BF   85..82       MOV     DPL,?V0 + 6
   \   0001C2   85..83       MOV     DPH,?V0 + 7
   \   0001C5   E0           MOVX    A,@DPTR
   \   0001C6   FA           MOV     R2,A
   \   0001C7   A3           INC     DPTR
   \   0001C8   E0           MOVX    A,@DPTR
   \   0001C9   FB           MOV     R3,A
   \   0001CA   12....       LCALL   ??osal_mem_free?relay
   2144              if ( destReq->outClusters != NULL )
   \                     ??ZDO_CopyMatchInfo_5:
   \   0001CD   85..82       MOV     DPL,?V0 + 4
   \   0001D0   85..83       MOV     DPH,?V0 + 5
   \   0001D3   E0           MOVX    A,@DPTR
   \   0001D4   F8           MOV     R0,A
   \   0001D5   A3           INC     DPTR
   \   0001D6   E0           MOVX    A,@DPTR
   \   0001D7   F9           MOV     R1,A
   \   0001D8   E8           MOV     A,R0
   \   0001D9   49           ORL     A,R1
   \   0001DA   600E         JZ      ??ZDO_CopyMatchInfo_4
   2145                osal_mem_free( destReq->outClusters );
   \   0001DC                ; Setup parameters for call to function osal_mem_free
   \   0001DC   85..82       MOV     DPL,?V0 + 4
   \   0001DF   85..83       MOV     DPH,?V0 + 5
   \   0001E2   E0           MOVX    A,@DPTR
   \   0001E3   FA           MOV     R2,A
   \   0001E4   A3           INC     DPTR
   \   0001E5   E0           MOVX    A,@DPTR
   \   0001E6   FB           MOV     R3,A
   \   0001E7   12....       LCALL   ??osal_mem_free?relay
   2146            }
   2147          
   2148            return ( allOK );
   \                     ??ZDO_CopyMatchInfo_4:
   \   0001EA   EE           MOV     A,R6
   \   0001EB   F9           MOV     R1,A
   \   0001EC   7404         MOV     A,#0x4
   \   0001EE   12....       LCALL   ?DEALLOC_XSTACK8
   \   0001F1   7F08         MOV     R7,#0x8
   \   0001F3   02....       LJMP    ?BANKED_LEAVE_XDATA
   2149          }
   2150          
   2151          /*********************************************************************
   2152           * @fn      ZDMatchSendState()
   2153           *
   2154           * @brief   State machine for the End device match message algorithm.
   2155           *
   2156           * @param  reason - state of algoritm
   2157           * @param  status - initial message status
   2158           * @param  TransSeq - next transaction sequence number
   2159           *
   2160           * @return  FALSE if error and we are not currently matching, TRUE
   2161           *          if success.
   2162           */

   \                                 In  segment BANKED_CODE, align 1, keep-with-next
   2163          uint8 ZDMatchSendState( uint8 reason, uint8 status, uint8 TransSeq )
   \                     ZDMatchSendState:
   2164          {
   \   000000   74F0         MOV     A,#-0x10
   \   000002   12....       LCALL   ?BANKED_ENTER_XDATA
   \   000005                ; Saved register size: 16
   \   000005                ; Auto size: 22
   \   000005   74EA         MOV     A,#-0x16
   \   000007   12....       LCALL   ?ALLOC_XSTACK8
   \   00000A   EB           MOV     A,R3
   \   00000B   C0E0         PUSH    A
   \   00000D   7403         MOV     A,#0x3
   \   00000F   12....       LCALL   ?XSTACK_DISP0_8
   \   000012   D0E0         POP     A
   \   000014   F0           MOVX    @DPTR,A
   \   000015   89..         MOV     ?V0 + 6,R1
   \   000017   8A..         MOV     ?V0 + 7,R2
   2165            uint8 *dstIEEEAddr;
   2166            uint8 dstEP;
   2167            zAddrType_t dstAddr;
   2168            zAddrType_t destinationAddr;
   2169            uint16 msgType;
   2170            uint16 clusterID;
   2171            ZDEndDeviceBind_t *ed = NULL;
   \   000019   75..00       MOV     ?V0 + 2,#0x0
   \   00001C   75..00       MOV     ?V0 + 3,#0x0
   2172            uint8 rspStatus = ZDP_SUCCESS;
   \   00001F   85..82       MOV     DPL,?XSP + 0
   \   000022   85..83       MOV     DPH,?XSP + 1
   \   000025   E4           CLR     A
   \   000026   F0           MOVX    @DPTR,A
   2173          
   2174            if ( matchED == NULL )
   \   000027   90....       MOV     DPTR,#matchED
   \   00002A   E0           MOVX    A,@DPTR
   \   00002B   F8           MOV     R0,A
   \   00002C   A3           INC     DPTR
   \   00002D   E0           MOVX    A,@DPTR
   \   00002E   F9           MOV     R1,A
   \   00002F   E8           MOV     A,R0
   \   000030   49           ORL     A,R1
   \   000031   7005         JNZ     ??ZDMatchSendState_0
   2175              return ( FALSE );
   \                     ??ZDMatchSendState_1:
   \   000033   7900         MOV     R1,#0x0
   \   000035   02....       LJMP    ??ZDMatchSendState_2 & 0xFFFF
   2176          
   2177            // Check sequence number
   2178            if ( reason == ZDMATCH_REASON_BIND_RSP || reason == ZDMATCH_REASON_UNBIND_RSP )
   \                     ??ZDMatchSendState_0:
   \   000038   7403         MOV     A,#0x3
   \   00003A   65..         XRL     A,?V0 + 6
   \   00003C   6006         JZ      ??ZDMatchSendState_3
   \   00003E   7402         MOV     A,#0x2
   \   000040   65..         XRL     A,?V0 + 6
   \   000042   701B         JNZ     ??ZDMatchSendState_4
   2179            {
   2180              if ( TransSeq != matchED->transSeq )
   \                     ??ZDMatchSendState_3:
   \   000044   7403         MOV     A,#0x3
   \   000046   12....       LCALL   ?XSTACK_DISP0_8
   \   000049   E0           MOVX    A,@DPTR
   \   00004A   FA           MOV     R2,A
   \   00004B   90....       MOV     DPTR,#matchED
   \   00004E   E0           MOVX    A,@DPTR
   \   00004F   2430         ADD     A,#0x30
   \   000051   F8           MOV     R0,A
   \   000052   A3           INC     DPTR
   \   000053   E0           MOVX    A,@DPTR
   \   000054   3400         ADDC    A,#0x0
   \   000056   F9           MOV     R1,A
   \   000057   8882         MOV     DPL,R0
   \   000059   8983         MOV     DPH,R1
   \   00005B   E0           MOVX    A,@DPTR
   \   00005C   6A           XRL     A,R2
   \   00005D   70D4         JNZ     ??ZDMatchSendState_1
   2181                return( FALSE ); // ignore the message
   2182            }
   2183          
   2184            // turn off timer
   2185            APS_SetEndDeviceBindTimeout( 0, ZDO_EndDeviceBindMatchTimeoutCB );
   \                     ??ZDMatchSendState_4:
   \   00005F                ; Setup parameters for call to function APS_SetEndDeviceBindTimeout
   \   00005F   7C..         MOV     R4,#??ZDO_EndDeviceBindMatchTimeoutCB?relay & 0xff
   \   000061   7D..         MOV     R5,#(??ZDO_EndDeviceBindMatchTimeoutCB?relay >> 8) & 0xff
   \   000063   7A00         MOV     R2,#0x0
   \   000065   7B00         MOV     R3,#0x0
   \   000067   12....       LCALL   ??APS_SetEndDeviceBindTimeout?relay
   2186          
   2187            if ( reason == ZDMATCH_REASON_TIMEOUT )
   \   00006A   7401         MOV     A,#0x1
   \   00006C   65..         XRL     A,?V0 + 6
   \   00006E   7009         JNZ     ??ZDMatchSendState_5
   2188            {
   2189              rspStatus = ZDP_TIMEOUT;    // The process will stop
   \   000070   85..82       MOV     DPL,?XSP + 0
   \   000073   85..83       MOV     DPH,?XSP + 1
   \   000076   7485         MOV     A,#-0x7b
   \   000078   F0           MOVX    @DPTR,A
   2190            }
   2191          
   2192            if ( reason == ZDMATCH_REASON_START || reason == ZDMATCH_REASON_BIND_RSP )
   \                     ??ZDMatchSendState_5:
   \   000079   E5..         MOV     A,?V0 + 6
   \   00007B   6006         JZ      ??ZDMatchSendState_6
   \   00007D   7403         MOV     A,#0x3
   \   00007F   65..         XRL     A,?V0 + 6
   \   000081   7025         JNZ     ??ZDMatchSendState_7
   2193            {
   2194              matchED->sending = ZDMATCH_SENDING_UNBIND;
   \                     ??ZDMatchSendState_6:
   \   000083   90....       MOV     DPTR,#matchED
   \   000086   E0           MOVX    A,@DPTR
   \   000087   242F         ADD     A,#0x2f
   \   000089   F8           MOV     R0,A
   \   00008A   A3           INC     DPTR
   \   00008B   E0           MOVX    A,@DPTR
   \   00008C   3400         ADDC    A,#0x0
   \   00008E   F9           MOV     R1,A
   \   00008F   8882         MOV     DPL,R0
   \   000091   8983         MOV     DPH,R1
   \   000093   7401         MOV     A,#0x1
   \   000095   F0           MOVX    @DPTR,A
   2195          
   2196              if ( reason == ZDMATCH_REASON_BIND_RSP && status != ZDP_SUCCESS )
   \   000096   7403         MOV     A,#0x3
   \   000098   65..         XRL     A,?V0 + 6
   \   00009A   702D         JNZ     ??ZDMatchSendState_8
   \   00009C   E5..         MOV     A,?V0 + 7
   \   00009E   6029         JZ      ??ZDMatchSendState_8
   2197              {
   2198                rspStatus = status;
   \   0000A0   85..82       MOV     DPL,?XSP + 0
   \   0000A3   85..83       MOV     DPH,?XSP + 1
   \   0000A6   8020         SJMP    ??ZDMatchSendState_9
   2199              }
   2200            }
   2201            else if ( reason == ZDMATCH_REASON_UNBIND_RSP )
   \                     ??ZDMatchSendState_7:
   \   0000A8   7402         MOV     A,#0x2
   \   0000AA   65..         XRL     A,?V0 + 6
   \   0000AC   701B         JNZ     ??ZDMatchSendState_8
   2202            {
   2203              if ( status == ZDP_SUCCESS )
   \   0000AE   90....       MOV     DPTR,#matchED
   \   0000B1   E0           MOVX    A,@DPTR
   \   0000B2   242F         ADD     A,#0x2f
   \   0000B4   F8           MOV     R0,A
   \   0000B5   A3           INC     DPTR
   \   0000B6   E0           MOVX    A,@DPTR
   \   0000B7   3400         ADDC    A,#0x0
   \   0000B9   F9           MOV     R1,A
   \   0000BA   8882         MOV     DPL,R0
   \   0000BC   8983         MOV     DPH,R1
   \   0000BE   E5..         MOV     A,?V0 + 7
   \   0000C0   7004         JNZ     ??ZDMatchSendState_10
   2204              {
   2205                matchED->sending = ZDMATCH_SENDING_UNBIND;
   \   0000C2   7401         MOV     A,#0x1
   \   0000C4   8002         SJMP    ??ZDMatchSendState_9
   2206              }
   2207              else
   2208              {
   2209                matchED->sending = ZDMATCH_SENDING_BIND;
   \                     ??ZDMatchSendState_10:
   \   0000C6   7402         MOV     A,#0x2
   \                     ??ZDMatchSendState_9:
   \   0000C8   F0           MOVX    @DPTR,A
   2210              }
   2211            }
   2212          
   2213            if ( reason != ZDMATCH_REASON_START && matchED->sending == ZDMATCH_SENDING_UNBIND )
   \                     ??ZDMatchSendState_8:
   \   0000C9   E5..         MOV     A,?V0 + 6
   \   0000CB   603E         JZ      ??ZDMatchSendState_11
   \   0000CD   90....       MOV     DPTR,#matchED
   \   0000D0   E0           MOVX    A,@DPTR
   \   0000D1   242F         ADD     A,#0x2f
   \   0000D3   F8           MOV     R0,A
   \   0000D4   A3           INC     DPTR
   \   0000D5   E0           MOVX    A,@DPTR
   \   0000D6   3400         ADDC    A,#0x0
   \   0000D8   F9           MOV     R1,A
   \   0000D9   8882         MOV     DPL,R0
   \   0000DB   8983         MOV     DPH,R1
   \   0000DD   E0           MOVX    A,@DPTR
   \   0000DE   6401         XRL     A,#0x1
   \   0000E0   7029         JNZ     ??ZDMatchSendState_11
   2214            {
   2215              // Move to the next cluster ID
   2216              if ( matchED->ed1numMatched )
   \   0000E2   90....       MOV     DPTR,#matchED
   \   0000E5   E0           MOVX    A,@DPTR
   \   0000E6   2431         ADD     A,#0x31
   \   0000E8   F8           MOV     R0,A
   \   0000E9   A3           INC     DPTR
   \   0000EA   E0           MOVX    A,@DPTR
   \   0000EB   3400         ADDC    A,#0x0
   \   0000ED   F9           MOV     R1,A
   \   0000EE   8882         MOV     DPL,R0
   \   0000F0   8983         MOV     DPH,R1
   \   0000F2   E0           MOVX    A,@DPTR
   \   0000F3   7013         JNZ     ??ZDMatchSendState_12
   2217                matchED->ed1numMatched--;
   2218              else if ( matchED->ed2numMatched )
   \   0000F5   90....       MOV     DPTR,#matchED
   \   0000F8   E0           MOVX    A,@DPTR
   \   0000F9   2434         ADD     A,#0x34
   \   0000FB   F8           MOV     R0,A
   \   0000FC   A3           INC     DPTR
   \   0000FD   E0           MOVX    A,@DPTR
   \   0000FE   3400         ADDC    A,#0x0
   \   000100   F9           MOV     R1,A
   \   000101   8882         MOV     DPL,R0
   \   000103   8983         MOV     DPH,R1
   \   000105   E0           MOVX    A,@DPTR
   \   000106   6003         JZ      ??ZDMatchSendState_11
   2219                matchED->ed2numMatched--;
   \                     ??ZDMatchSendState_12:
   \   000108   E0           MOVX    A,@DPTR
   \   000109   14           DEC     A
   \   00010A   F0           MOVX    @DPTR,A
   2220            }
   2221          
   2222            // What message do we send now
   2223            if ( matchED->ed1numMatched )
   \                     ??ZDMatchSendState_11:
   \   00010B   90....       MOV     DPTR,#matchED
   \   00010E   E0           MOVX    A,@DPTR
   \   00010F   2431         ADD     A,#0x31
   \   000111   F8           MOV     R0,A
   \   000112   A3           INC     DPTR
   \   000113   E0           MOVX    A,@DPTR
   \   000114   3400         ADDC    A,#0x0
   \   000116   F9           MOV     R1,A
   \   000117   8882         MOV     DPL,R0
   \   000119   8983         MOV     DPH,R1
   \   00011B   E0           MOVX    A,@DPTR
   \   00011C   90....       MOV     DPTR,#matchED
   \   00011F   6058         JZ      ??ZDMatchSendState_13
   2224            {
   2225              ed = &(matchED->ed1);
   \   000121   E0           MOVX    A,@DPTR
   \   000122   F5..         MOV     ?V0 + 2,A
   \   000124   A3           INC     DPTR
   \   000125   E0           MOVX    A,@DPTR
   \   000126   F5..         MOV     ?V0 + 3,A
   2226              clusterID = matchED->ed1Matched[matchED->ed1numMatched-1];
   \   000128   8882         MOV     DPL,R0
   \   00012A   8983         MOV     DPH,R1
   \   00012C   E0           MOVX    A,@DPTR
   \   00012D   C3           CLR     C
   \   00012E   33           RLC     A
   \   00012F   F8           MOV     R0,A
   \   000130   E4           CLR     A
   \   000131   33           RLC     A
   \   000132   F9           MOV     R1,A
   \   000133   90....       MOV     DPTR,#matchED
   \   000136   E0           MOVX    A,@DPTR
   \   000137   2432         ADD     A,#0x32
   \   000139   FA           MOV     R2,A
   \   00013A   A3           INC     DPTR
   \   00013B   E0           MOVX    A,@DPTR
   \   00013C   3400         ADDC    A,#0x0
   \   00013E   FB           MOV     R3,A
   \   00013F   8A82         MOV     DPL,R2
   \   000141   8B83         MOV     DPH,R3
   \   000143   E0           MOVX    A,@DPTR
   \   000144   28           ADD     A,R0
   \   000145   F8           MOV     R0,A
   \   000146   A3           INC     DPTR
   \   000147   E0           MOVX    A,@DPTR
   \   000148   39           ADDC    A,R1
   \   000149   F9           MOV     R1,A
   \   00014A   E8           MOV     A,R0
   \   00014B   24FE         ADD     A,#-0x2
   \   00014D   F582         MOV     DPL,A
   \   00014F   E9           MOV     A,R1
   \   000150   34FF         ADDC    A,#-0x1
   \   000152   F583         MOV     DPH,A
   \   000154   E0           MOVX    A,@DPTR
   \   000155   F5..         MOV     ?V0 + 0,A
   \   000157   A3           INC     DPTR
   \   000158   E0           MOVX    A,@DPTR
   \   000159   F5..         MOV     ?V0 + 1,A
   2227              dstIEEEAddr = matchED->ed2.ieeeAddr;
   \   00015B   90....       MOV     DPTR,#matchED
   \   00015E   E0           MOVX    A,@DPTR
   \   00015F   241D         ADD     A,#0x1d
   \   000161   F8           MOV     R0,A
   \   000162   A3           INC     DPTR
   \   000163   E0           MOVX    A,@DPTR
   \   000164   3400         ADDC    A,#0x0
   \   000166   F9           MOV     R1,A
   \   000167   7401         MOV     A,#0x1
   \   000169   12....       LCALL   ?XSTACK_DISP0_8
   \   00016C   E8           MOV     A,R0
   \   00016D   F0           MOVX    @DPTR,A
   \   00016E   A3           INC     DPTR
   \   00016F   E9           MOV     A,R1
   \   000170   F0           MOVX    @DPTR,A
   2228              dstEP = matchED->ed2.endpoint;
   \   000171   90....       MOV     DPTR,#matchED
   \   000174   E0           MOVX    A,@DPTR
   \   000175   2425         ADD     A,#0x25
   \   000177   806D         SJMP    ??ZDMatchSendState_14
   2229            }
   2230            else if ( matchED->ed2numMatched )
   \                     ??ZDMatchSendState_13:
   \   000179   E0           MOVX    A,@DPTR
   \   00017A   2434         ADD     A,#0x34
   \   00017C   F8           MOV     R0,A
   \   00017D   A3           INC     DPTR
   \   00017E   E0           MOVX    A,@DPTR
   \   00017F   3400         ADDC    A,#0x0
   \   000181   F9           MOV     R1,A
   \   000182   8882         MOV     DPL,R0
   \   000184   8983         MOV     DPH,R1
   \   000186   E0           MOVX    A,@DPTR
   \   000187   606A         JZ      ??ZDMatchSendState_15
   2231            {
   2232              ed = &(matchED->ed2);
   \   000189   90....       MOV     DPTR,#matchED
   \   00018C   E0           MOVX    A,@DPTR
   \   00018D   2417         ADD     A,#0x17
   \   00018F   F5..         MOV     ?V0 + 2,A
   \   000191   A3           INC     DPTR
   \   000192   E0           MOVX    A,@DPTR
   \   000193   3400         ADDC    A,#0x0
   \   000195   F5..         MOV     ?V0 + 3,A
   2233              clusterID = matchED->ed2Matched[matchED->ed2numMatched-1];
   \   000197   8882         MOV     DPL,R0
   \   000199   8983         MOV     DPH,R1
   \   00019B   E0           MOVX    A,@DPTR
   \   00019C   C3           CLR     C
   \   00019D   33           RLC     A
   \   00019E   F8           MOV     R0,A
   \   00019F   E4           CLR     A
   \   0001A0   33           RLC     A
   \   0001A1   F9           MOV     R1,A
   \   0001A2   90....       MOV     DPTR,#matchED
   \   0001A5   E0           MOVX    A,@DPTR
   \   0001A6   2435         ADD     A,#0x35
   \   0001A8   FA           MOV     R2,A
   \   0001A9   A3           INC     DPTR
   \   0001AA   E0           MOVX    A,@DPTR
   \   0001AB   3400         ADDC    A,#0x0
   \   0001AD   FB           MOV     R3,A
   \   0001AE   8A82         MOV     DPL,R2
   \   0001B0   8B83         MOV     DPH,R3
   \   0001B2   E0           MOVX    A,@DPTR
   \   0001B3   28           ADD     A,R0
   \   0001B4   F8           MOV     R0,A
   \   0001B5   A3           INC     DPTR
   \   0001B6   E0           MOVX    A,@DPTR
   \   0001B7   39           ADDC    A,R1
   \   0001B8   F9           MOV     R1,A
   \   0001B9   E8           MOV     A,R0
   \   0001BA   24FE         ADD     A,#-0x2
   \   0001BC   F582         MOV     DPL,A
   \   0001BE   E9           MOV     A,R1
   \   0001BF   34FF         ADDC    A,#-0x1
   \   0001C1   F583         MOV     DPH,A
   \   0001C3   E0           MOVX    A,@DPTR
   \   0001C4   F5..         MOV     ?V0 + 0,A
   \   0001C6   A3           INC     DPTR
   \   0001C7   E0           MOVX    A,@DPTR
   \   0001C8   F5..         MOV     ?V0 + 1,A
   2234              dstIEEEAddr = matchED->ed1.ieeeAddr;
   \   0001CA   90....       MOV     DPTR,#matchED
   \   0001CD   E0           MOVX    A,@DPTR
   \   0001CE   2406         ADD     A,#0x6
   \   0001D0   F8           MOV     R0,A
   \   0001D1   A3           INC     DPTR
   \   0001D2   E0           MOVX    A,@DPTR
   \   0001D3   3400         ADDC    A,#0x0
   \   0001D5   F9           MOV     R1,A
   \   0001D6   7401         MOV     A,#0x1
   \   0001D8   12....       LCALL   ?XSTACK_DISP0_8
   \   0001DB   E8           MOV     A,R0
   \   0001DC   F0           MOVX    @DPTR,A
   \   0001DD   A3           INC     DPTR
   \   0001DE   E9           MOV     A,R1
   \   0001DF   F0           MOVX    @DPTR,A
   2235              dstEP = matchED->ed1.endpoint;
   \   0001E0   90....       MOV     DPTR,#matchED
   \   0001E3   E0           MOVX    A,@DPTR
   \   0001E4   240E         ADD     A,#0xe
   \                     ??ZDMatchSendState_14:
   \   0001E6   F8           MOV     R0,A
   \   0001E7   A3           INC     DPTR
   \   0001E8   E0           MOVX    A,@DPTR
   \   0001E9   3400         ADDC    A,#0x0
   \   0001EB   F9           MOV     R1,A
   \   0001EC   8882         MOV     DPL,R0
   \   0001EE   8983         MOV     DPH,R1
   \   0001F0   E0           MOVX    A,@DPTR
   \   0001F1   F5..         MOV     ?V0 + 5,A
   2236            }
   2237          
   2238            dstAddr.addrMode = Addr16Bit;
   \                     ??ZDMatchSendState_15:
   \   0001F3   740C         MOV     A,#0xc
   \   0001F5   12....       LCALL   ?XSTACK_DISP0_8
   \   0001F8   7402         MOV     A,#0x2
   \   0001FA   F0           MOVX    @DPTR,A
   2239          
   2240            // Send the next message
   2241            if ( rspStatus == ZDP_SUCCESS && ed )
   \   0001FB   85..82       MOV     DPL,?XSP + 0
   \   0001FE   85..83       MOV     DPH,?XSP + 1
   \   000201   E0           MOVX    A,@DPTR
   \   000202   6003         JZ      $+5
   \   000204   02....       LJMP    ??ZDMatchSendState_16 & 0xFFFF
   \   000207   E5..         MOV     A,?V0 + 2
   \   000209   45..         ORL     A,?V0 + 3
   \   00020B   7003         JNZ     $+5
   \   00020D   02....       LJMP    ??ZDMatchSendState_16 & 0xFFFF
   2242            {
   2243              // Send unbind/bind message to source
   2244              if ( matchED->sending == ZDMATCH_SENDING_UNBIND )
   \   000210   90....       MOV     DPTR,#matchED
   \   000213   E0           MOVX    A,@DPTR
   \   000214   242F         ADD     A,#0x2f
   \   000216   F8           MOV     R0,A
   \   000217   A3           INC     DPTR
   \   000218   E0           MOVX    A,@DPTR
   \   000219   3400         ADDC    A,#0x0
   \   00021B   F9           MOV     R1,A
   \   00021C   8882         MOV     DPL,R0
   \   00021E   8983         MOV     DPH,R1
   \   000220   E0           MOVX    A,@DPTR
   \   000221   6401         XRL     A,#0x1
   \   000223   7004         JNZ     ??ZDMatchSendState_17
   2245                msgType = Unbind_req;
   \   000225   7E22         MOV     R6,#0x22
   \   000227   8002         SJMP    ??ZDMatchSendState_18
   2246              else
   2247                msgType = Bind_req;
   \                     ??ZDMatchSendState_17:
   \   000229   7E21         MOV     R6,#0x21
   2248          
   2249              dstAddr.addr.shortAddr = ed->srcAddr;
   \                     ??ZDMatchSendState_18:
   \   00022B   85..82       MOV     DPL,?V0 + 2
   \   00022E   85..83       MOV     DPH,?V0 + 3
   \   000231   A3           INC     DPTR
   \   000232   A3           INC     DPTR
   \   000233   E0           MOVX    A,@DPTR
   \   000234   F8           MOV     R0,A
   \   000235   A3           INC     DPTR
   \   000236   E0           MOVX    A,@DPTR
   \   000237   F9           MOV     R1,A
   \   000238   7404         MOV     A,#0x4
   \   00023A   12....       LCALL   ?XSTACK_DISP0_8
   \   00023D   E8           MOV     A,R0
   \   00023E   F0           MOVX    @DPTR,A
   \   00023F   A3           INC     DPTR
   \   000240   E9           MOV     A,R1
   \   000241   F0           MOVX    @DPTR,A
   2250          
   2251              // Save off the transaction sequence number
   2252              matchED->transSeq = ZDP_TransID;
   \   000242   90....       MOV     DPTR,#ZDP_TransID
   \   000245   E0           MOVX    A,@DPTR
   \   000246   C0E0         PUSH    A
   \   000248   90....       MOV     DPTR,#matchED
   \   00024B   E0           MOVX    A,@DPTR
   \   00024C   2430         ADD     A,#0x30
   \   00024E   F8           MOV     R0,A
   \   00024F   A3           INC     DPTR
   \   000250   E0           MOVX    A,@DPTR
   \   000251   3400         ADDC    A,#0x0
   \   000253   F9           MOV     R1,A
   \   000254   8882         MOV     DPL,R0
   \   000256   8983         MOV     DPH,R1
   \   000258   D0E0         POP     A
   \   00025A   F0           MOVX    @DPTR,A
   2253          
   2254              destinationAddr.addrMode = Addr64Bit;
   \   00025B   7415         MOV     A,#0x15
   \   00025D   12....       LCALL   ?XSTACK_DISP0_8
   \   000260   7403         MOV     A,#0x3
   \   000262   F0           MOVX    @DPTR,A
   2255              osal_cpyExtAddr( destinationAddr.addr.extAddr, dstIEEEAddr );
   \   000263                ; Setup parameters for call to function sAddrExtCpy
   \   000263   7401         MOV     A,#0x1
   \   000265   12....       LCALL   ?XSTACK_DISP0_8
   \   000268   E0           MOVX    A,@DPTR
   \   000269   FC           MOV     R4,A
   \   00026A   A3           INC     DPTR
   \   00026B   E0           MOVX    A,@DPTR
   \   00026C   FD           MOV     R5,A
   \   00026D   740D         MOV     A,#0xd
   \   00026F   12....       LCALL   ?XSTACK_DISP0_8
   \   000272   AA82         MOV     R2,DPL
   \   000274   AB83         MOV     R3,DPH
   \   000276   12....       LCALL   ??sAddrExtCpy?relay
   2256          
   2257              ZDP_BindUnbindReq( msgType, &dstAddr, ed->ieeeAddr, ed->endpoint, clusterID,
   2258                  &destinationAddr, dstEP, ed->SecurityUse );
   \   000279                ; Setup parameters for call to function ZDP_BindUnbindReq
   \   000279   85..82       MOV     DPL,?V0 + 2
   \   00027C   85..83       MOV     DPH,?V0 + 3
   \   00027F   A3           INC     DPTR
   \   000280   E0           MOVX    A,@DPTR
   \   000281   F5..         MOV     ?V0 + 4,A
   \   000283   78..         MOV     R0,#?V0 + 4
   \   000285   12....       LCALL   ?PUSH_XSTACK_I_ONE
   \   000288   E5..         MOV     A,?V0 + 5
   \   00028A   F5..         MOV     ?V0 + 4,A
   \   00028C   78..         MOV     R0,#?V0 + 4
   \   00028E   12....       LCALL   ?PUSH_XSTACK_I_ONE
   \   000291   740F         MOV     A,#0xf
   \   000293   12....       LCALL   ?XSTACK_DISP0_8
   \   000296   8582..       MOV     ?V0 + 4,DPL
   \   000299   8583..       MOV     ?V0 + 5,DPH
   \   00029C   78..         MOV     R0,#?V0 + 4
   \   00029E   12....       LCALL   ?PUSH_XSTACK_I_TWO
   \   0002A1   78..         MOV     R0,#?V0 + 0
   \   0002A3   12....       LCALL   ?PUSH_XSTACK_I_TWO
   \   0002A6   E5..         MOV     A,?V0 + 2
   \   0002A8   2406         ADD     A,#0x6
   \   0002AA   F5..         MOV     ?V0 + 0,A
   \   0002AC   E5..         MOV     A,?V0 + 3
   \   0002AE   3400         ADDC    A,#0x0
   \   0002B0   F5..         MOV     ?V0 + 1,A
   \   0002B2   78..         MOV     R0,#?V0 + 0
   \   0002B4   12....       LCALL   ?PUSH_XSTACK_I_TWO
   \   0002B7   E5..         MOV     A,?V0 + 2
   \   0002B9   240E         ADD     A,#0xe
   \   0002BB   F582         MOV     DPL,A
   \   0002BD   E5..         MOV     A,?V0 + 3
   \   0002BF   3400         ADDC    A,#0x0
   \   0002C1   F583         MOV     DPH,A
   \   0002C3   E0           MOVX    A,@DPTR
   \   0002C4   F9           MOV     R1,A
   \   0002C5   740C         MOV     A,#0xc
   \   0002C7   12....       LCALL   ?XSTACK_DISP0_8
   \   0002CA   AC82         MOV     R4,DPL
   \   0002CC   AD83         MOV     R5,DPH
   \   0002CE   EE           MOV     A,R6
   \   0002CF   FA           MOV     R2,A
   \   0002D0   7B00         MOV     R3,#0x0
   \   0002D2   12....       LCALL   ??ZDP_BindUnbindReq?relay
   \   0002D5   7408         MOV     A,#0x8
   \   0002D7   12....       LCALL   ?DEALLOC_XSTACK8
   2259          
   2260              // Set timeout for response
   2261              APS_SetEndDeviceBindTimeout( AIB_MaxBindingTime, ZDO_EndDeviceBindMatchTimeoutCB );
   \   0002DA                ; Setup parameters for call to function APS_SetEndDeviceBindTimeout
   \   0002DA   7C..         MOV     R4,#??ZDO_EndDeviceBindMatchTimeoutCB?relay & 0xff
   \   0002DC   7D..         MOV     R5,#(??ZDO_EndDeviceBindMatchTimeoutCB?relay >> 8) & 0xff
   \   0002DE   90....       MOV     DPTR,#AIB_MaxBindingTime
   \   0002E1   E0           MOVX    A,@DPTR
   \   0002E2   FA           MOV     R2,A
   \   0002E3   A3           INC     DPTR
   \   0002E4   E0           MOVX    A,@DPTR
   \   0002E5   FB           MOV     R3,A
   \   0002E6   12....       LCALL   ??APS_SetEndDeviceBindTimeout?relay
   \   0002E9   02....       LJMP    ??ZDMatchSendState_19 & 0xFFFF
   2262            }
   2263            else
   2264            {
   2265              // Send the response messages to requesting devices
   2266              // send response to first requester
   2267              dstAddr.addr.shortAddr = matchED->ed1.srcAddr;
   \                     ??ZDMatchSendState_16:
   \   0002EC   90....       MOV     DPTR,#matchED
   \   0002EF   E0           MOVX    A,@DPTR
   \   0002F0   F8           MOV     R0,A
   \   0002F1   A3           INC     DPTR
   \   0002F2   E0           MOVX    A,@DPTR
   \   0002F3   F583         MOV     DPH,A
   \   0002F5   8882         MOV     DPL,R0
   \   0002F7   A3           INC     DPTR
   \   0002F8   A3           INC     DPTR
   \   0002F9   E0           MOVX    A,@DPTR
   \   0002FA   F8           MOV     R0,A
   \   0002FB   A3           INC     DPTR
   \   0002FC   E0           MOVX    A,@DPTR
   \   0002FD   F9           MOV     R1,A
   \   0002FE   7404         MOV     A,#0x4
   \   000300   12....       LCALL   ?XSTACK_DISP0_8
   \   000303   E8           MOV     A,R0
   \   000304   F0           MOVX    @DPTR,A
   \   000305   A3           INC     DPTR
   \   000306   E9           MOV     A,R1
   \   000307   F0           MOVX    @DPTR,A
   2268              ZDP_EndDeviceBindRsp( matchED->ed1.TransSeq, &dstAddr, rspStatus, matchED->ed1.SecurityUse );
   \   000308                ; Setup parameters for call to function ZDP_SendData
   \   000308   90....       MOV     DPTR,#matchED
   \   00030B   E0           MOVX    A,@DPTR
   \   00030C   F8           MOV     R0,A
   \   00030D   A3           INC     DPTR
   \   00030E   E0           MOVX    A,@DPTR
   \   00030F   F583         MOV     DPH,A
   \   000311   8882         MOV     DPL,R0
   \   000313   A3           INC     DPTR
   \   000314   E0           MOVX    A,@DPTR
   \   000315   F5..         MOV     ?V0 + 0,A
   \   000317   78..         MOV     R0,#?V0 + 0
   \   000319   12....       LCALL   ?PUSH_XSTACK_I_ONE
   \   00031C   7401         MOV     A,#0x1
   \   00031E   12....       LCALL   ?XSTACK_DISP0_8
   \   000321   8582..       MOV     ?V0 + 0,DPL
   \   000324   8583..       MOV     ?V0 + 1,DPH
   \   000327   78..         MOV     R0,#?V0 + 0
   \   000329   12....       LCALL   ?PUSH_XSTACK_I_TWO
   \   00032C   75..20       MOV     ?V0 + 0,#0x20
   \   00032F   75..80       MOV     ?V0 + 1,#-0x80
   \   000332   78..         MOV     R0,#?V0 + 0
   \   000334   12....       LCALL   ?PUSH_XSTACK_I_TWO
   \   000337   7901         MOV     R1,#0x1
   \   000339   7409         MOV     A,#0x9
   \   00033B   12....       LCALL   ?XSTACK_DISP0_8
   \   00033E   AC82         MOV     R4,DPL
   \   000340   AD83         MOV     R5,DPH
   \   000342   90....       MOV     DPTR,#matchED
   \   000345   E0           MOVX    A,@DPTR
   \   000346   FA           MOV     R2,A
   \   000347   A3           INC     DPTR
   \   000348   E0           MOVX    A,@DPTR
   \   000349   FB           MOV     R3,A
   \   00034A   12....       LCALL   ??ZDP_SendData?relay
   \   00034D   7405         MOV     A,#0x5
   \   00034F   12....       LCALL   ?DEALLOC_XSTACK8
   2269          
   2270              // send response to second requester
   2271              if ( matchED->state == ZDMATCH_SENDING_BINDS )
   \   000352   90....       MOV     DPTR,#matchED
   \   000355   E0           MOVX    A,@DPTR
   \   000356   242E         ADD     A,#0x2e
   \   000358   F8           MOV     R0,A
   \   000359   A3           INC     DPTR
   \   00035A   E0           MOVX    A,@DPTR
   \   00035B   3400         ADDC    A,#0x0
   \   00035D   F9           MOV     R1,A
   \   00035E   8882         MOV     DPL,R0
   \   000360   8983         MOV     DPH,R1
   \   000362   E0           MOVX    A,@DPTR
   \   000363   6402         XRL     A,#0x2
   \   000365   7071         JNZ     ??ZDMatchSendState_20
   2272              {
   2273                dstAddr.addr.shortAddr = matchED->ed2.srcAddr;
   \   000367   90....       MOV     DPTR,#matchED
   \   00036A   E0           MOVX    A,@DPTR
   \   00036B   2419         ADD     A,#0x19
   \   00036D   F8           MOV     R0,A
   \   00036E   A3           INC     DPTR
   \   00036F   E0           MOVX    A,@DPTR
   \   000370   3400         ADDC    A,#0x0
   \   000372   F9           MOV     R1,A
   \   000373   8882         MOV     DPL,R0
   \   000375   8983         MOV     DPH,R1
   \   000377   E0           MOVX    A,@DPTR
   \   000378   F8           MOV     R0,A
   \   000379   A3           INC     DPTR
   \   00037A   E0           MOVX    A,@DPTR
   \   00037B   F9           MOV     R1,A
   \   00037C   7404         MOV     A,#0x4
   \   00037E   12....       LCALL   ?XSTACK_DISP0_8
   \   000381   E8           MOV     A,R0
   \   000382   F0           MOVX    @DPTR,A
   \   000383   A3           INC     DPTR
   \   000384   E9           MOV     A,R1
   \   000385   F0           MOVX    @DPTR,A
   2274                ZDP_EndDeviceBindRsp( matchED->ed2.TransSeq, &dstAddr, rspStatus, matchED->ed2.SecurityUse );
   \   000386                ; Setup parameters for call to function ZDP_SendData
   \   000386   90....       MOV     DPTR,#matchED
   \   000389   E0           MOVX    A,@DPTR
   \   00038A   2418         ADD     A,#0x18
   \   00038C   F8           MOV     R0,A
   \   00038D   A3           INC     DPTR
   \   00038E   E0           MOVX    A,@DPTR
   \   00038F   3400         ADDC    A,#0x0
   \   000391   F9           MOV     R1,A
   \   000392   8882         MOV     DPL,R0
   \   000394   8983         MOV     DPH,R1
   \   000396   E0           MOVX    A,@DPTR
   \   000397   F5..         MOV     ?V0 + 0,A
   \   000399   78..         MOV     R0,#?V0 + 0
   \   00039B   12....       LCALL   ?PUSH_XSTACK_I_ONE
   \   00039E   7401         MOV     A,#0x1
   \   0003A0   12....       LCALL   ?XSTACK_DISP0_8
   \   0003A3   8582..       MOV     ?V0 + 0,DPL
   \   0003A6   8583..       MOV     ?V0 + 1,DPH
   \   0003A9   78..         MOV     R0,#?V0 + 0
   \   0003AB   12....       LCALL   ?PUSH_XSTACK_I_TWO
   \   0003AE   75..20       MOV     ?V0 + 0,#0x20
   \   0003B1   75..80       MOV     ?V0 + 1,#-0x80
   \   0003B4   78..         MOV     R0,#?V0 + 0
   \   0003B6   12....       LCALL   ?PUSH_XSTACK_I_TWO
   \   0003B9   7901         MOV     R1,#0x1
   \   0003BB   7409         MOV     A,#0x9
   \   0003BD   12....       LCALL   ?XSTACK_DISP0_8
   \   0003C0   AC82         MOV     R4,DPL
   \   0003C2   AD83         MOV     R5,DPH
   \   0003C4   90....       MOV     DPTR,#matchED
   \   0003C7   E0           MOVX    A,@DPTR
   \   0003C8   2417         ADD     A,#0x17
   \   0003CA   FA           MOV     R2,A
   \   0003CB   A3           INC     DPTR
   \   0003CC   E0           MOVX    A,@DPTR
   \   0003CD   3400         ADDC    A,#0x0
   \   0003CF   FB           MOV     R3,A
   \   0003D0   12....       LCALL   ??ZDP_SendData?relay
   \   0003D3   7405         MOV     A,#0x5
   \   0003D5   12....       LCALL   ?DEALLOC_XSTACK8
   2275              }
   2276          
   2277              // Process ended - release memory used
   2278              ZDO_RemoveMatchMemory();
   \                     ??ZDMatchSendState_20:
   \   0003D8                ; Setup parameters for call to function ZDO_RemoveMatchMemory
   \   0003D8   12....       LCALL   ??ZDO_RemoveMatchMemory?relay
   2279            }
   2280          
   2281            return ( TRUE );
   \                     ??ZDMatchSendState_19:
   \   0003DB   7901         MOV     R1,#0x1
   \                     ??ZDMatchSendState_2:
   \   0003DD   7416         MOV     A,#0x16
   \   0003DF   12....       LCALL   ?DEALLOC_XSTACK8
   \   0003E2   7F08         MOV     R7,#0x8
   \   0003E4   02....       LJMP    ?BANKED_LEAVE_XDATA
   2282          }
   2283          
   2284          /*********************************************************************
   2285           * @fn      ZDO_EndDeviceBindMatchTimeoutCB()
   2286           *
   2287           * @brief   End device bind timeout.
   2288           *
   2289           * @param  none
   2290           *
   2291           * @return  none
   2292           */

   \                                 In  segment BANKED_CODE, align 1, keep-with-next
   2293          static void ZDO_EndDeviceBindMatchTimeoutCB( void )
   \                     ZDO_EndDeviceBindMatchTimeoutCB:
   2294          {
   \   000000   C082         PUSH    DPL
   \   000002   C083         PUSH    DPH
   \   000004                ; Saved register size: 2
   \   000004                ; Auto size: 0
   2295            ZDMatchSendState( ZDMATCH_REASON_TIMEOUT, ZDP_TIMEOUT, 0 );
   \   000004                ; Setup parameters for call to function ZDMatchSendState
   \   000004   7B00         MOV     R3,#0x0
   \   000006   7A85         MOV     R2,#-0x7b
   \   000008   7901         MOV     R1,#0x1
   \   00000A   12....       LCALL   ??ZDMatchSendState?relay
   2296          }
   \   00000D   D083         POP     DPH
   \   00000F   D082         POP     DPL
   \   000011   02....       LJMP    ?BRET
   2297          
   2298          /*********************************************************************
   2299           * ZDO MESSAGE PARSING API FUNCTIONS
   2300           */
   2301          
   2302          /*********************************************************************
   2303           * @fn          ZDO_ParseEndDeviceBindReq
   2304           *
   2305           * @brief       This function parses the End_Device_Bind_req message.
   2306           * 
   2307           *     NOTE:  The clusters lists in bindReq are allocated in this
   2308           *            function and must be freed by that calling function.
   2309           *
   2310           * @param       inMsg  - incoming message (request)
   2311           * @param       bindReq - pointer to place to parse message to
   2312           *
   2313           * @return      none
   2314           */

   \                                 In  segment BANKED_CODE, align 1, keep-with-next
   2315          void ZDO_ParseEndDeviceBindReq( zdoIncomingMsg_t *inMsg, ZDEndDeviceBind_t *bindReq )
   \                     ZDO_ParseEndDeviceBindReq:
   2316          {
   \   000000   74F0         MOV     A,#-0x10
   \   000002   12....       LCALL   ?BANKED_ENTER_XDATA
   \   000005                ; Saved register size: 16
   \   000005                ; Auto size: 0
   \   000005   8C..         MOV     ?V0 + 0,R4
   \   000007   8D..         MOV     ?V0 + 1,R5
   2317            uint8 *msg;
   2318          
   2319            // Parse the message
   2320            bindReq->TransSeq = inMsg->TransSeq;
   \   000009   EA           MOV     A,R2
   \   00000A   240F         ADD     A,#0xf
   \   00000C   F582         MOV     DPL,A
   \   00000E   EB           MOV     A,R3
   \   00000F   3400         ADDC    A,#0x0
   \   000011   F583         MOV     DPH,A
   \   000013   E0           MOVX    A,@DPTR
   \   000014   8C82         MOV     DPL,R4
   \   000016   8D83         MOV     DPH,R5
   \   000018   F0           MOVX    @DPTR,A
   2321            bindReq->srcAddr = inMsg->srcAddr.addr.shortAddr;
   \   000019   8A82         MOV     DPL,R2
   \   00001B   8B83         MOV     DPH,R3
   \   00001D   A3           INC     DPTR
   \   00001E   A3           INC     DPTR
   \   00001F   E0           MOVX    A,@DPTR
   \   000020   F8           MOV     R0,A
   \   000021   A3           INC     DPTR
   \   000022   E0           MOVX    A,@DPTR
   \   000023   F9           MOV     R1,A
   \   000024   8C82         MOV     DPL,R4
   \   000026   8D83         MOV     DPH,R5
   \   000028   A3           INC     DPTR
   \   000029   A3           INC     DPTR
   \   00002A   E8           MOV     A,R0
   \   00002B   F0           MOVX    @DPTR,A
   \   00002C   A3           INC     DPTR
   \   00002D   E9           MOV     A,R1
   \   00002E   F0           MOVX    @DPTR,A
   2322            bindReq->SecurityUse = inMsg->SecurityUse;
   \   00002F   EA           MOV     A,R2
   \   000030   240E         ADD     A,#0xe
   \   000032   F582         MOV     DPL,A
   \   000034   EB           MOV     A,R3
   \   000035   3400         ADDC    A,#0x0
   \   000037   F583         MOV     DPH,A
   \   000039   E0           MOVX    A,@DPTR
   \   00003A   8C82         MOV     DPL,R4
   \   00003C   8D83         MOV     DPH,R5
   \   00003E   A3           INC     DPTR
   \   00003F   F0           MOVX    @DPTR,A
   2323            msg = inMsg->asdu;
   \   000040   EA           MOV     A,R2
   \   000041   2413         ADD     A,#0x13
   \   000043   F582         MOV     DPL,A
   \   000045   EB           MOV     A,R3
   \   000046   3400         ADDC    A,#0x0
   \   000048   F583         MOV     DPH,A
   \   00004A   E0           MOVX    A,@DPTR
   \   00004B   FE           MOV     R6,A
   \   00004C   A3           INC     DPTR
   \   00004D   E0           MOVX    A,@DPTR
   \   00004E   FF           MOV     R7,A
   2324          
   2325            bindReq->localCoordinator = BUILD_UINT16( msg[0], msg[1] );
   \   00004F   8E82         MOV     DPL,R6
   \   000051   8F83         MOV     DPH,R7
   \   000053   E0           MOVX    A,@DPTR
   \   000054   FA           MOV     R2,A
   \   000055   A3           INC     DPTR
   \   000056   E0           MOVX    A,@DPTR
   \   000057   F9           MOV     R1,A
   \   000058   EA           MOV     A,R2
   \   000059   8C82         MOV     DPL,R4
   \   00005B   8D83         MOV     DPH,R5
   \   00005D   A3           INC     DPTR
   \   00005E   A3           INC     DPTR
   \   00005F   A3           INC     DPTR
   \   000060   A3           INC     DPTR
   \   000061   F0           MOVX    @DPTR,A
   \   000062   A3           INC     DPTR
   \   000063   E9           MOV     A,R1
   \   000064   F0           MOVX    @DPTR,A
   2326            msg += 2;
   \   000065   EE           MOV     A,R6
   \   000066   2402         ADD     A,#0x2
   \   000068   0E           INC     R6
   \   000069   0E           INC     R6
   \   00006A   EF           MOV     A,R7
   \   00006B   3400         ADDC    A,#0x0
   \   00006D   FF           MOV     R7,A
   2327          
   2328            osal_cpyExtAddr( bindReq->ieeeAddr, msg );
   \   00006E                ; Setup parameters for call to function sAddrExtCpy
   \   00006E   EE           MOV     A,R6
   \   00006F   FC           MOV     R4,A
   \   000070   EF           MOV     A,R7
   \   000071   FD           MOV     R5,A
   \   000072   E5..         MOV     A,?V0 + 0
   \   000074   2406         ADD     A,#0x6
   \   000076   FA           MOV     R2,A
   \   000077   E5..         MOV     A,?V0 + 1
   \   000079   3400         ADDC    A,#0x0
   \   00007B   FB           MOV     R3,A
   \   00007C   12....       LCALL   ??sAddrExtCpy?relay
   2329            msg += Z_EXTADDR_LEN;
   \   00007F   EE           MOV     A,R6
   \   000080   2408         ADD     A,#0x8
   \   000082   FE           MOV     R6,A
   \   000083   EF           MOV     A,R7
   \   000084   3400         ADDC    A,#0x0
   \   000086   FF           MOV     R7,A
   2330          
   2331            bindReq->endpoint = *msg++;
   \   000087   8E82         MOV     DPL,R6
   \   000089   8F83         MOV     DPH,R7
   \   00008B   E0           MOVX    A,@DPTR
   \   00008C   C0E0         PUSH    A
   \   00008E   E5..         MOV     A,?V0 + 0
   \   000090   240E         ADD     A,#0xe
   \   000092   F582         MOV     DPL,A
   \   000094   E5..         MOV     A,?V0 + 1
   \   000096   3400         ADDC    A,#0x0
   \   000098   F583         MOV     DPH,A
   \   00009A   D0E0         POP     A
   \   00009C   F0           MOVX    @DPTR,A
   \   00009D   8E82         MOV     DPL,R6
   \   00009F   8F83         MOV     DPH,R7
   \   0000A1   A3           INC     DPTR
   \   0000A2   AE82         MOV     R6,DPL
   \   0000A4   AF83         MOV     R7,DPH
   2332            bindReq->profileID = BUILD_UINT16( msg[0], msg[1] );
   \   0000A6   E0           MOVX    A,@DPTR
   \   0000A7   FA           MOV     R2,A
   \   0000A8   A3           INC     DPTR
   \   0000A9   E0           MOVX    A,@DPTR
   \   0000AA   F9           MOV     R1,A
   \   0000AB   EA           MOV     A,R2
   \   0000AC   F8           MOV     R0,A
   \   0000AD   E5..         MOV     A,?V0 + 0
   \   0000AF   240F         ADD     A,#0xf
   \   0000B1   F582         MOV     DPL,A
   \   0000B3   E5..         MOV     A,?V0 + 1
   \   0000B5   3400         ADDC    A,#0x0
   \   0000B7   F583         MOV     DPH,A
   \   0000B9   E8           MOV     A,R0
   \   0000BA   F0           MOVX    @DPTR,A
   \   0000BB   A3           INC     DPTR
   \   0000BC   E9           MOV     A,R1
   \   0000BD   F0           MOVX    @DPTR,A
   2333            msg += 2;
   \   0000BE   EE           MOV     A,R6
   \   0000BF   2402         ADD     A,#0x2
   \   0000C1   0E           INC     R6
   \   0000C2   0E           INC     R6
   \   0000C3   EF           MOV     A,R7
   \   0000C4   3400         ADDC    A,#0x0
   \   0000C6   FF           MOV     R7,A
   2334          
   2335            bindReq->inClusters = NULL;
   \   0000C7   E5..         MOV     A,?V0 + 0
   \   0000C9   2412         ADD     A,#0x12
   \   0000CB   F5..         MOV     ?V0 + 2,A
   \   0000CD   E5..         MOV     A,?V0 + 1
   \   0000CF   3400         ADDC    A,#0x0
   \   0000D1   F5..         MOV     ?V0 + 3,A
   \   0000D3   85..82       MOV     DPL,?V0 + 2
   \   0000D6   F583         MOV     DPH,A
   \   0000D8   E4           CLR     A
   \   0000D9   F0           MOVX    @DPTR,A
   \   0000DA   A3           INC     DPTR
   \   0000DB   F0           MOVX    @DPTR,A
   2336            bindReq->outClusters = NULL;
   \   0000DC   E5..         MOV     A,?V0 + 0
   \   0000DE   2415         ADD     A,#0x15
   \   0000E0   F5..         MOV     ?V0 + 6,A
   \   0000E2   E5..         MOV     A,?V0 + 1
   \   0000E4   3400         ADDC    A,#0x0
   \   0000E6   F5..         MOV     ?V0 + 7,A
   \   0000E8   85..82       MOV     DPL,?V0 + 6
   \   0000EB   F583         MOV     DPH,A
   \   0000ED   E4           CLR     A
   \   0000EE   F0           MOVX    @DPTR,A
   \   0000EF   A3           INC     DPTR
   \   0000F0   F0           MOVX    @DPTR,A
   2337            
   2338            if ((bindReq->numInClusters = *msg++) &&
   2339                (bindReq->inClusters = (uint16*)osal_mem_alloc( (bindReq->numInClusters * sizeof( uint16 )))))
   \   0000F1   8E82         MOV     DPL,R6
   \   0000F3   8F83         MOV     DPH,R7
   \   0000F5   E0           MOVX    A,@DPTR
   \   0000F6   F8           MOV     R0,A
   \   0000F7   A3           INC     DPTR
   \   0000F8   0E           INC     R6
   \   0000F9   AF83         MOV     R7,DPH
   \   0000FB   E5..         MOV     A,?V0 + 0
   \   0000FD   2411         ADD     A,#0x11
   \   0000FF   F5..         MOV     ?V0 + 4,A
   \   000101   E5..         MOV     A,?V0 + 1
   \   000103   3400         ADDC    A,#0x0
   \   000105   F5..         MOV     ?V0 + 5,A
   \   000107   E8           MOV     A,R0
   \   000108   85..82       MOV     DPL,?V0 + 4
   \   00010B   85..83       MOV     DPH,?V0 + 5
   \   00010E   F0           MOVX    @DPTR,A
   \   00010F   6048         JZ      ??ZDO_ParseEndDeviceBindReq_0
   \   000111                ; Setup parameters for call to function osal_mem_alloc
   \   000111   E0           MOVX    A,@DPTR
   \   000112   C3           CLR     C
   \   000113   33           RLC     A
   \   000114   FA           MOV     R2,A
   \   000115   E4           CLR     A
   \   000116   33           RLC     A
   \   000117   FB           MOV     R3,A
   \   000118   12....       LCALL   ??osal_mem_alloc?relay
   \   00011B   85..82       MOV     DPL,?V0 + 2
   \   00011E   85..83       MOV     DPH,?V0 + 3
   \   000121   EA           MOV     A,R2
   \   000122   F0           MOVX    @DPTR,A
   \   000123   A3           INC     DPTR
   \   000124   EB           MOV     A,R3
   \   000125   F0           MOVX    @DPTR,A
   \   000126   85..82       MOV     DPL,?V0 + 2
   \   000129   85..83       MOV     DPH,?V0 + 3
   \   00012C   E0           MOVX    A,@DPTR
   \   00012D   F8           MOV     R0,A
   \   00012E   A3           INC     DPTR
   \   00012F   E0           MOVX    A,@DPTR
   \   000130   F9           MOV     R1,A
   \   000131   E8           MOV     A,R0
   \   000132   49           ORL     A,R1
   \   000133   6024         JZ      ??ZDO_ParseEndDeviceBindReq_0
   2340            {
   2341              msg = ZDO_ConvertOTAClusters( bindReq->numInClusters, msg, bindReq->inClusters );
   \   000135                ; Setup parameters for call to function ZDO_ConvertOTAClusters
   \   000135   85..82       MOV     DPL,?V0 + 2
   \   000138   85..83       MOV     DPH,?V0 + 3
   \   00013B   E0           MOVX    A,@DPTR
   \   00013C   FC           MOV     R4,A
   \   00013D   A3           INC     DPTR
   \   00013E   E0           MOVX    A,@DPTR
   \   00013F   FD           MOV     R5,A
   \   000140   EE           MOV     A,R6
   \   000141   FA           MOV     R2,A
   \   000142   EF           MOV     A,R7
   \   000143   FB           MOV     R3,A
   \   000144   85..82       MOV     DPL,?V0 + 4
   \   000147   85..83       MOV     DPH,?V0 + 5
   \   00014A   E0           MOVX    A,@DPTR
   \   00014B   F9           MOV     R1,A
   \   00014C   12....       LCALL   ??ZDO_ConvertOTAClusters?relay
   \   00014F   8A..         MOV     ?V0 + 2,R2
   \   000151   8B..         MOV     ?V0 + 3,R3
   \   000153   AE..         MOV     R6,?V0 + 2
   \   000155   AF..         MOV     R7,?V0 + 3
   \   000157   8008         SJMP    ??ZDO_ParseEndDeviceBindReq_1
   2342            }
   2343            else
   2344            {
   2345              bindReq->numInClusters = 0;
   \                     ??ZDO_ParseEndDeviceBindReq_0:
   \   000159   85..82       MOV     DPL,?V0 + 4
   \   00015C   85..83       MOV     DPH,?V0 + 5
   \   00015F   E4           CLR     A
   \   000160   F0           MOVX    @DPTR,A
   2346            }
   2347          
   2348            if ((bindReq->numOutClusters = *msg++) &&
   2349                (bindReq->outClusters = (uint16*)osal_mem_alloc((bindReq->numOutClusters * sizeof(uint16)))))
   \                     ??ZDO_ParseEndDeviceBindReq_1:
   \   000161   8E82         MOV     DPL,R6
   \   000163   8F83         MOV     DPH,R7
   \   000165   E0           MOVX    A,@DPTR
   \   000166   F8           MOV     R0,A
   \   000167   A3           INC     DPTR
   \   000168   AE82         MOV     R6,DPL
   \   00016A   AF83         MOV     R7,DPH
   \   00016C   E5..         MOV     A,?V0 + 0
   \   00016E   2414         ADD     A,#0x14
   \   000170   F5..         MOV     ?V0 + 0,A
   \   000172   E5..         MOV     A,?V0 + 1
   \   000174   3400         ADDC    A,#0x0
   \   000176   F5..         MOV     ?V0 + 1,A
   \   000178   E8           MOV     A,R0
   \   000179   85..82       MOV     DPL,?V0 + 0
   \   00017C   85..83       MOV     DPH,?V0 + 1
   \   00017F   F0           MOVX    @DPTR,A
   \   000180   6040         JZ      ??ZDO_ParseEndDeviceBindReq_2
   \   000182                ; Setup parameters for call to function osal_mem_alloc
   \   000182   E0           MOVX    A,@DPTR
   \   000183   C3           CLR     C
   \   000184   33           RLC     A
   \   000185   FA           MOV     R2,A
   \   000186   E4           CLR     A
   \   000187   33           RLC     A
   \   000188   FB           MOV     R3,A
   \   000189   12....       LCALL   ??osal_mem_alloc?relay
   \   00018C   85..82       MOV     DPL,?V0 + 6
   \   00018F   85..83       MOV     DPH,?V0 + 7
   \   000192   EA           MOV     A,R2
   \   000193   F0           MOVX    @DPTR,A
   \   000194   A3           INC     DPTR
   \   000195   EB           MOV     A,R3
   \   000196   F0           MOVX    @DPTR,A
   \   000197   85..82       MOV     DPL,?V0 + 6
   \   00019A   85..83       MOV     DPH,?V0 + 7
   \   00019D   E0           MOVX    A,@DPTR
   \   00019E   F8           MOV     R0,A
   \   00019F   A3           INC     DPTR
   \   0001A0   E0           MOVX    A,@DPTR
   \   0001A1   F9           MOV     R1,A
   \   0001A2   E8           MOV     A,R0
   \   0001A3   49           ORL     A,R1
   \   0001A4   601C         JZ      ??ZDO_ParseEndDeviceBindReq_2
   2350            {
   2351              msg = ZDO_ConvertOTAClusters( bindReq->numOutClusters, msg, bindReq->outClusters );
   \   0001A6                ; Setup parameters for call to function ZDO_ConvertOTAClusters
   \   0001A6   85..82       MOV     DPL,?V0 + 6
   \   0001A9   85..83       MOV     DPH,?V0 + 7
   \   0001AC   E0           MOVX    A,@DPTR
   \   0001AD   FC           MOV     R4,A
   \   0001AE   A3           INC     DPTR
   \   0001AF   E0           MOVX    A,@DPTR
   \   0001B0   FD           MOV     R5,A
   \   0001B1   EE           MOV     A,R6
   \   0001B2   FA           MOV     R2,A
   \   0001B3   EF           MOV     A,R7
   \   0001B4   FB           MOV     R3,A
   \   0001B5   85..82       MOV     DPL,?V0 + 0
   \   0001B8   85..83       MOV     DPH,?V0 + 1
   \   0001BB   E0           MOVX    A,@DPTR
   \   0001BC   F9           MOV     R1,A
   \   0001BD   12....       LCALL   ??ZDO_ConvertOTAClusters?relay
   \   0001C0   8008         SJMP    ??ZDO_ParseEndDeviceBindReq_3
   2352            }
   2353            else
   2354            {
   2355              bindReq->numOutClusters = 0;
   \                     ??ZDO_ParseEndDeviceBindReq_2:
   \   0001C2   85..82       MOV     DPL,?V0 + 0
   \   0001C5   85..83       MOV     DPH,?V0 + 1
   \   0001C8   E4           CLR     A
   \   0001C9   F0           MOVX    @DPTR,A
   2356            }
   2357          }
   \                     ??ZDO_ParseEndDeviceBindReq_3:
   \   0001CA   7F08         MOV     R7,#0x8
   \   0001CC   02....       LJMP    ?BANKED_LEAVE_XDATA
   2358          
   2359          /*********************************************************************
   2360           * @fn          ZDO_ParseBindUnbindReq
   2361           *
   2362           * @brief       This function parses the Bind_req or Unbind_req message.
   2363           *
   2364           * @param       inMsg  - incoming message (request)
   2365           * @param       pReq - place to put parsed information
   2366           *
   2367           * @return      none
   2368           */

   \                                 In  segment BANKED_CODE, align 1, keep-with-next
   2369          void ZDO_ParseBindUnbindReq( zdoIncomingMsg_t *inMsg, ZDO_BindUnbindReq_t *pReq )
   \                     ZDO_ParseBindUnbindReq:
   2370          {
   \   000000   74F6         MOV     A,#-0xa
   \   000002   12....       LCALL   ?BANKED_ENTER_XDATA
   \   000005                ; Saved register size: 10
   \   000005                ; Auto size: 0
   \   000005   8C..         MOV     ?V0 + 0,R4
   \   000007   8D..         MOV     ?V0 + 1,R5
   2371            uint8 *msg;
   2372          
   2373            msg = inMsg->asdu;
   \   000009   EA           MOV     A,R2
   \   00000A   2413         ADD     A,#0x13
   \   00000C   F582         MOV     DPL,A
   \   00000E   EB           MOV     A,R3
   \   00000F   3400         ADDC    A,#0x0
   \   000011   F583         MOV     DPH,A
   \   000013   E0           MOVX    A,@DPTR
   \   000014   FE           MOV     R6,A
   \   000015   A3           INC     DPTR
   \   000016   E0           MOVX    A,@DPTR
   \   000017   FF           MOV     R7,A
   2374            osal_cpyExtAddr( pReq->srcAddress, msg );
   \   000018                ; Setup parameters for call to function sAddrExtCpy
   \   000018   EE           MOV     A,R6
   \   000019   FC           MOV     R4,A
   \   00001A   EF           MOV     A,R7
   \   00001B   FD           MOV     R5,A
   \   00001C   AA..         MOV     R2,?V0 + 0
   \   00001E   AB..         MOV     R3,?V0 + 1
   \   000020   12....       LCALL   ??sAddrExtCpy?relay
   2375            msg += Z_EXTADDR_LEN;
   \   000023   EE           MOV     A,R6
   \   000024   2408         ADD     A,#0x8
   \   000026   FE           MOV     R6,A
   \   000027   EF           MOV     A,R7
   \   000028   3400         ADDC    A,#0x0
   \   00002A   FF           MOV     R7,A
   2376            pReq->srcEndpoint = *msg++;
   \   00002B   8E82         MOV     DPL,R6
   \   00002D   8F83         MOV     DPH,R7
   \   00002F   E0           MOVX    A,@DPTR
   \   000030   85..82       MOV     DPL,?V0 + 0
   \   000033   85..83       MOV     DPH,?V0 + 1
   \   000036   A3           INC     DPTR
   \   000037   A3           INC     DPTR
   \   000038   A3           INC     DPTR
   \   000039   A3           INC     DPTR
   \   00003A   A3           INC     DPTR
   \   00003B   A3           INC     DPTR
   \   00003C   A3           INC     DPTR
   \   00003D   A3           INC     DPTR
   \   00003E   F0           MOVX    @DPTR,A
   \   00003F   8E82         MOV     DPL,R6
   \   000041   8F83         MOV     DPH,R7
   \   000043   A3           INC     DPTR
   \   000044   AE82         MOV     R6,DPL
   \   000046   AF83         MOV     R7,DPH
   2377            pReq->clusterID = BUILD_UINT16( msg[0], msg[1] );
   \   000048   E0           MOVX    A,@DPTR
   \   000049   FA           MOV     R2,A
   \   00004A   A3           INC     DPTR
   \   00004B   E0           MOVX    A,@DPTR
   \   00004C   F9           MOV     R1,A
   \   00004D   EA           MOV     A,R2
   \   00004E   85..82       MOV     DPL,?V0 + 0
   \   000051   85..83       MOV     DPH,?V0 + 1
   \   000054   A3           INC     DPTR
   \   000055   A3           INC     DPTR
   \   000056   A3           INC     DPTR
   \   000057   A3           INC     DPTR
   \   000058   A3           INC     DPTR
   \   000059   A3           INC     DPTR
   \   00005A   A3           INC     DPTR
   \   00005B   A3           INC     DPTR
   \   00005C   A3           INC     DPTR
   \   00005D   F0           MOVX    @DPTR,A
   \   00005E   A3           INC     DPTR
   \   00005F   E9           MOV     A,R1
   \   000060   F0           MOVX    @DPTR,A
   2378            msg += 2;
   \   000061   EE           MOV     A,R6
   \   000062   2402         ADD     A,#0x2
   \   000064   0E           INC     R6
   \   000065   0E           INC     R6
   \   000066   EF           MOV     A,R7
   \   000067   3400         ADDC    A,#0x0
   \   000069   FF           MOV     R7,A
   2379            pReq->dstAddress.addrMode = *msg++;
   \   00006A   E5..         MOV     A,?V0 + 0
   \   00006C   2413         ADD     A,#0x13
   \   00006E   F8           MOV     R0,A
   \   00006F   E5..         MOV     A,?V0 + 1
   \   000071   3400         ADDC    A,#0x0
   \   000073   F9           MOV     R1,A
   \   000074   8E82         MOV     DPL,R6
   \   000076   8F83         MOV     DPH,R7
   \   000078   E0           MOVX    A,@DPTR
   \   000079   8882         MOV     DPL,R0
   \   00007B   8983         MOV     DPH,R1
   \   00007D   F0           MOVX    @DPTR,A
   \   00007E   8E82         MOV     DPL,R6
   \   000080   8F83         MOV     DPH,R7
   \   000082   A3           INC     DPTR
   \   000083   0E           INC     R6
   \   000084   AF83         MOV     R7,DPH
   2380            if ( pReq->dstAddress.addrMode == Addr64Bit )
   \   000086   E5..         MOV     A,?V0 + 0
   \   000088   240B         ADD     A,#0xb
   \   00008A   FA           MOV     R2,A
   \   00008B   E5..         MOV     A,?V0 + 1
   \   00008D   3400         ADDC    A,#0x0
   \   00008F   FB           MOV     R3,A
   \   000090   8882         MOV     DPL,R0
   \   000092   8983         MOV     DPH,R1
   \   000094   E0           MOVX    A,@DPTR
   \   000095   6403         XRL     A,#0x3
   \   000097   7026         JNZ     ??ZDO_ParseBindUnbindReq_0
   2381            {
   2382              osal_cpyExtAddr( pReq->dstAddress.addr.extAddr, msg );
   \   000099                ; Setup parameters for call to function sAddrExtCpy
   \   000099   EE           MOV     A,R6
   \   00009A   FC           MOV     R4,A
   \   00009B   EF           MOV     A,R7
   \   00009C   FD           MOV     R5,A
   \   00009D   12....       LCALL   ??sAddrExtCpy?relay
   2383              msg += Z_EXTADDR_LEN;
   2384              pReq->dstEndpoint = *msg;
   \   0000A0   8E82         MOV     DPL,R6
   \   0000A2   8F83         MOV     DPH,R7
   \   0000A4   A3           INC     DPTR
   \   0000A5   A3           INC     DPTR
   \   0000A6   A3           INC     DPTR
   \   0000A7   A3           INC     DPTR
   \   0000A8   A3           INC     DPTR
   \   0000A9   A3           INC     DPTR
   \   0000AA   A3           INC     DPTR
   \   0000AB   A3           INC     DPTR
   \   0000AC   E0           MOVX    A,@DPTR
   \   0000AD   C0E0         PUSH    A
   \   0000AF   E5..         MOV     A,?V0 + 0
   \   0000B1   2414         ADD     A,#0x14
   \   0000B3   F582         MOV     DPL,A
   \   0000B5   E5..         MOV     A,?V0 + 1
   \   0000B7   3400         ADDC    A,#0x0
   \   0000B9   F583         MOV     DPH,A
   \   0000BB   D0E0         POP     A
   \   0000BD   8011         SJMP    ??ZDO_ParseBindUnbindReq_1
   2385            }
   2386            else
   2387            {
   2388              // copy group address
   2389              pReq->dstAddress.addr.shortAddr = BUILD_UINT16( msg[0], msg[1] );
   \                     ??ZDO_ParseBindUnbindReq_0:
   \   0000BF   8E82         MOV     DPL,R6
   \   0000C1   8F83         MOV     DPH,R7
   \   0000C3   E0           MOVX    A,@DPTR
   \   0000C4   FC           MOV     R4,A
   \   0000C5   A3           INC     DPTR
   \   0000C6   E0           MOVX    A,@DPTR
   \   0000C7   F9           MOV     R1,A
   \   0000C8   EC           MOV     A,R4
   \   0000C9   8A82         MOV     DPL,R2
   \   0000CB   8B83         MOV     DPH,R3
   \   0000CD   F0           MOVX    @DPTR,A
   \   0000CE   A3           INC     DPTR
   \   0000CF   E9           MOV     A,R1
   \                     ??ZDO_ParseBindUnbindReq_1:
   \   0000D0   F0           MOVX    @DPTR,A
   2390            }
   2391          }
   \   0000D1   7F02         MOV     R7,#0x2
   \   0000D3   02....       LJMP    ?BANKED_LEAVE_XDATA
   2392          
   2393          /*********************************************************************
   2394           * @fn      ZDO_ParseAddrRsp
   2395           *
   2396           * @brief   Turns the inMsg (incoming message) into the out parsed
   2397           *          structure.
   2398           *
   2399           * @param   inMsg - incoming message
   2400           *
   2401           * @return  pointer to parsed structures.  This structure was 
   2402           *          allocated using osal_mem_alloc, so it must be freed
   2403           *          by the calling function [osal_mem_free()].
   2404           */

   \                                 In  segment BANKED_CODE, align 1, keep-with-next
   2405          ZDO_NwkIEEEAddrResp_t *ZDO_ParseAddrRsp( zdoIncomingMsg_t *inMsg )
   \                     ZDO_ParseAddrRsp:
   2406          {
   \   000000   74F2         MOV     A,#-0xe
   \   000002   12....       LCALL   ?BANKED_ENTER_XDATA
   \   000005                ; Saved register size: 14
   \   000005                ; Auto size: 0
   \   000005   EA           MOV     A,R2
   \   000006   FE           MOV     R6,A
   \   000007   EB           MOV     A,R3
   \   000008   FF           MOV     R7,A
   2407            ZDO_NwkIEEEAddrResp_t *rsp;
   2408            uint8 *msg;
   2409            byte cnt = 0;
   2410            
   2411            // Calculate the number of items in the list
   2412            if ( inMsg->asduLen > (1 + Z_EXTADDR_LEN + 2) )
   \   000009   EE           MOV     A,R6
   \   00000A   2410         ADD     A,#0x10
   \   00000C   F582         MOV     DPL,A
   \   00000E   EF           MOV     A,R7
   \   00000F   3400         ADDC    A,#0x0
   \   000011   F583         MOV     DPH,A
   \   000013   E0           MOVX    A,@DPTR
   \   000014   C3           CLR     C
   \   000015   940C         SUBB    A,#0xc
   \   000017   401C         JC      ??ZDO_ParseAddrRsp_0
   2413              cnt = inMsg->asdu[1 + Z_EXTADDR_LEN + 2];
   \   000019   EE           MOV     A,R6
   \   00001A   2413         ADD     A,#0x13
   \   00001C   F582         MOV     DPL,A
   \   00001E   EF           MOV     A,R7
   \   00001F   3400         ADDC    A,#0x0
   \   000021   F583         MOV     DPH,A
   \   000023   E0           MOVX    A,@DPTR
   \   000024   240B         ADD     A,#0xb
   \   000026   F8           MOV     R0,A
   \   000027   A3           INC     DPTR
   \   000028   E0           MOVX    A,@DPTR
   \   000029   3400         ADDC    A,#0x0
   \   00002B   F9           MOV     R1,A
   \   00002C   8882         MOV     DPL,R0
   \   00002E   8983         MOV     DPH,R1
   \   000030   E0           MOVX    A,@DPTR
   \   000031   F5..         MOV     ?V0 + 2,A
   \   000033   8003         SJMP    ??ZDO_ParseAddrRsp_1
   2414            else 
   2415              cnt = 0;
   \                     ??ZDO_ParseAddrRsp_0:
   \   000035   75..00       MOV     ?V0 + 2,#0x0
   2416           
   2417            // Make buffer
   2418            rsp = (ZDO_NwkIEEEAddrResp_t *)osal_mem_alloc( sizeof(ZDO_NwkIEEEAddrResp_t) + (cnt * sizeof ( uint16 )) );
   \                     ??ZDO_ParseAddrRsp_1:
   \   000038                ; Setup parameters for call to function osal_mem_alloc
   \   000038   E5..         MOV     A,?V0 + 2
   \   00003A   C3           CLR     C
   \   00003B   33           RLC     A
   \   00003C   F8           MOV     R0,A
   \   00003D   E4           CLR     A
   \   00003E   33           RLC     A
   \   00003F   F9           MOV     R1,A
   \   000040   E8           MOV     A,R0
   \   000041   240D         ADD     A,#0xd
   \   000043   FA           MOV     R2,A
   \   000044   E9           MOV     A,R1
   \   000045   3400         ADDC    A,#0x0
   \   000047   FB           MOV     R3,A
   \   000048   12....       LCALL   ??osal_mem_alloc?relay
   \   00004B   8A..         MOV     ?V0 + 0,R2
   \   00004D   8B..         MOV     ?V0 + 1,R3
   2419            
   2420            if ( rsp )
   \   00004F   EA           MOV     A,R2
   \   000050   45..         ORL     A,?V0 + 1
   \   000052   7003         JNZ     $+5
   \   000054   02....       LJMP    ??ZDO_ParseAddrRsp_2 & 0xFFFF
   2421            {
   2422              msg = inMsg->asdu;
   \   000057   EE           MOV     A,R6
   \   000058   2413         ADD     A,#0x13
   \   00005A   F582         MOV     DPL,A
   \   00005C   EF           MOV     A,R7
   \   00005D   3400         ADDC    A,#0x0
   \   00005F   F583         MOV     DPH,A
   \   000061   E0           MOVX    A,@DPTR
   \   000062   FE           MOV     R6,A
   \   000063   A3           INC     DPTR
   \   000064   E0           MOVX    A,@DPTR
   \   000065   FF           MOV     R7,A
   2423            
   2424              rsp->status = *msg++;
   \   000066   8E82         MOV     DPL,R6
   \   000068   8F83         MOV     DPH,R7
   \   00006A   E0           MOVX    A,@DPTR
   \   00006B   8A82         MOV     DPL,R2
   \   00006D   8B83         MOV     DPH,R3
   \   00006F   F0           MOVX    @DPTR,A
   \   000070   8E82         MOV     DPL,R6
   \   000072   8F83         MOV     DPH,R7
   \   000074   A3           INC     DPTR
   \   000075   AE82         MOV     R6,DPL
   \   000077   AF83         MOV     R7,DPH
   2425              if ( rsp->status == ZDO_SUCCESS )
   \   000079   8A82         MOV     DPL,R2
   \   00007B   8B83         MOV     DPH,R3
   \   00007D   E0           MOVX    A,@DPTR
   \   00007E   6003         JZ      $+5
   \   000080   02....       LJMP    ??ZDO_ParseAddrRsp_2 & 0xFFFF
   2426              {
   2427                osal_cpyExtAddr( rsp->extAddr, msg );
   \   000083                ; Setup parameters for call to function sAddrExtCpy
   \   000083   EE           MOV     A,R6
   \   000084   FC           MOV     R4,A
   \   000085   EF           MOV     A,R7
   \   000086   FD           MOV     R5,A
   \   000087   EA           MOV     A,R2
   \   000088   2403         ADD     A,#0x3
   \   00008A   0A           INC     R2
   \   00008B   0A           INC     R2
   \   00008C   0A           INC     R2
   \   00008D   EB           MOV     A,R3
   \   00008E   3400         ADDC    A,#0x0
   \   000090   FB           MOV     R3,A
   \   000091   12....       LCALL   ??sAddrExtCpy?relay
   2428                msg += Z_EXTADDR_LEN;
   \   000094   EE           MOV     A,R6
   \   000095   2408         ADD     A,#0x8
   \   000097   FE           MOV     R6,A
   \   000098   EF           MOV     A,R7
   \   000099   3400         ADDC    A,#0x0
   \   00009B   FF           MOV     R7,A
   2429                rsp->nwkAddr = BUILD_UINT16( msg[0], msg[1] );
   \   00009C   8E82         MOV     DPL,R6
   \   00009E   8F83         MOV     DPH,R7
   \   0000A0   E0           MOVX    A,@DPTR
   \   0000A1   FA           MOV     R2,A
   \   0000A2   A3           INC     DPTR
   \   0000A3   E0           MOVX    A,@DPTR
   \   0000A4   F9           MOV     R1,A
   \   0000A5   EA           MOV     A,R2
   \   0000A6   85..82       MOV     DPL,?V0 + 0
   \   0000A9   85..83       MOV     DPH,?V0 + 1
   \   0000AC   A3           INC     DPTR
   \   0000AD   F0           MOVX    @DPTR,A
   \   0000AE   A3           INC     DPTR
   \   0000AF   E9           MOV     A,R1
   \   0000B0   F0           MOVX    @DPTR,A
   2430          
   2431                msg += 2;
   \   0000B1   EE           MOV     A,R6
   \   0000B2   2402         ADD     A,#0x2
   \   0000B4   0E           INC     R6
   \   0000B5   0E           INC     R6
   \   0000B6   EF           MOV     A,R7
   \   0000B7   3400         ADDC    A,#0x0
   \   0000B9   FF           MOV     R7,A
   2432                rsp->numAssocDevs = 0;
   \   0000BA   E5..         MOV     A,?V0 + 0
   \   0000BC   240B         ADD     A,#0xb
   \   0000BE   F8           MOV     R0,A
   \   0000BF   E5..         MOV     A,?V0 + 1
   \   0000C1   3400         ADDC    A,#0x0
   \   0000C3   F9           MOV     R1,A
   \   0000C4   E8           MOV     A,R0
   \   0000C5   FA           MOV     R2,A
   \   0000C6   E9           MOV     A,R1
   \   0000C7   FB           MOV     R3,A
   \   0000C8   8A82         MOV     DPL,R2
   \   0000CA   8B83         MOV     DPH,R3
   \   0000CC   E4           CLR     A
   \   0000CD   F0           MOVX    @DPTR,A
   2433                
   2434                // StartIndex field is only present if NumAssocDev field is non-zero.
   2435                if ( cnt > 0 )
   \   0000CE   E5..         MOV     A,?V0 + 2
   \   0000D0   6065         JZ      ??ZDO_ParseAddrRsp_2
   2436                {
   2437                  uint16 *pList = &(rsp->devList[0]);
   \   0000D2   E5..         MOV     A,?V0 + 0
   \   0000D4   240D         ADD     A,#0xd
   \   0000D6   08           INC     R0
   \   0000D7   08           INC     R0
   \   0000D8   E5..         MOV     A,?V0 + 1
   \   0000DA   3400         ADDC    A,#0x0
   \   0000DC   F9           MOV     R1,A
   2438                  byte n = cnt;
   \   0000DD   AC..         MOV     R4,?V0 + 2
   2439                  
   2440                  rsp->numAssocDevs = *msg++;
   \   0000DF   8E82         MOV     DPL,R6
   \   0000E1   8F83         MOV     DPH,R7
   \   0000E3   E0           MOVX    A,@DPTR
   \   0000E4   8A82         MOV     DPL,R2
   \   0000E6   8B83         MOV     DPH,R3
   \   0000E8   F0           MOVX    @DPTR,A
   \   0000E9   8E82         MOV     DPL,R6
   \   0000EB   8F83         MOV     DPH,R7
   \   0000ED   A3           INC     DPTR
   \   0000EE   0E           INC     R6
   \   0000EF   AF83         MOV     R7,DPH
   2441                  rsp->startIndex = *msg++;
   \   0000F1   E0           MOVX    A,@DPTR
   \   0000F2   C0E0         PUSH    A
   \   0000F4   E5..         MOV     A,?V0 + 0
   \   0000F6   240C         ADD     A,#0xc
   \   0000F8   F582         MOV     DPL,A
   \   0000FA   E5..         MOV     A,?V0 + 1
   \   0000FC   3400         ADDC    A,#0x0
   \   0000FE   F583         MOV     DPH,A
   \   000100   D0E0         POP     A
   \   000102   F0           MOVX    @DPTR,A
   \   000103   8E82         MOV     DPL,R6
   \   000105   8F83         MOV     DPH,R7
   \   000107   A3           INC     DPTR
   \   000108   0E           INC     R6
   \   000109   AF83         MOV     R7,DPH
   \   00010B   8027         SJMP    ??ZDO_ParseAddrRsp_3
   2442                  
   2443                  while ( n != 0 )
   2444                  {
   2445                    *pList++ = BUILD_UINT16( msg[0], msg[1] );
   \                     ??ZDO_ParseAddrRsp_4:
   \   00010D   8E82         MOV     DPL,R6
   \   00010F   8F83         MOV     DPH,R7
   \   000111   E0           MOVX    A,@DPTR
   \   000112   F5..         MOV     ?V0 + 2,A
   \   000114   A3           INC     DPTR
   \   000115   E0           MOVX    A,@DPTR
   \   000116   FB           MOV     R3,A
   \   000117   E5..         MOV     A,?V0 + 2
   \   000119   8882         MOV     DPL,R0
   \   00011B   8983         MOV     DPH,R1
   \   00011D   F0           MOVX    @DPTR,A
   \   00011E   A3           INC     DPTR
   \   00011F   EB           MOV     A,R3
   \   000120   F0           MOVX    @DPTR,A
   \   000121   E8           MOV     A,R0
   \   000122   2402         ADD     A,#0x2
   \   000124   08           INC     R0
   \   000125   08           INC     R0
   \   000126   E9           MOV     A,R1
   \   000127   3400         ADDC    A,#0x0
   \   000129   F9           MOV     R1,A
   2446                    msg += sizeof( uint16 );
   \   00012A   EE           MOV     A,R6
   \   00012B   2402         ADD     A,#0x2
   \   00012D   0E           INC     R6
   \   00012E   0E           INC     R6
   \   00012F   EF           MOV     A,R7
   \   000130   3400         ADDC    A,#0x0
   \   000132   FF           MOV     R7,A
   2447                    n--;
   \   000133   1C           DEC     R4
   2448                  }
   \                     ??ZDO_ParseAddrRsp_3:
   \   000134   EC           MOV     A,R4
   \   000135   70D6         JNZ     ??ZDO_ParseAddrRsp_4
   2449                }
   2450              }
   2451            }
   2452            return ( rsp );
   \                     ??ZDO_ParseAddrRsp_2:
   \   000137   AA..         MOV     R2,?V0 + 0
   \   000139   AB..         MOV     R3,?V0 + 1
   \   00013B   7F06         MOV     R7,#0x6
   \   00013D   02....       LJMP    ?BANKED_LEAVE_XDATA
   2453          }
   2454          
   2455          /*********************************************************************
   2456           * @fn          ZDO_ParseNodeDescRsp
   2457           *
   2458           * @brief       This function parses the Node_Desc_rsp message.
   2459           *
   2460           * @param       inMsg - incoming message
   2461           * @param       pNDRsp - place to parse the message into
   2462           *
   2463           * @return      none
   2464           */

   \                                 In  segment BANKED_CODE, align 1, keep-with-next
   2465          void ZDO_ParseNodeDescRsp( zdoIncomingMsg_t *inMsg, ZDO_NodeDescRsp_t *pNDRsp )
   \                     ZDO_ParseNodeDescRsp:
   2466          {
   \   000000   74F7         MOV     A,#-0x9
   \   000002   12....       LCALL   ?BANKED_ENTER_XDATA
   \   000005                ; Saved register size: 9
   \   000005                ; Auto size: 0
   2467            uint8 *msg;
   2468            
   2469            msg = inMsg->asdu;
   \   000005   EA           MOV     A,R2
   \   000006   2413         ADD     A,#0x13
   \   000008   F582         MOV     DPL,A
   \   00000A   EB           MOV     A,R3
   \   00000B   3400         ADDC    A,#0x0
   \   00000D   F583         MOV     DPH,A
   \   00000F   E0           MOVX    A,@DPTR
   \   000010   F8           MOV     R0,A
   \   000011   A3           INC     DPTR
   \   000012   E0           MOVX    A,@DPTR
   \   000013   F9           MOV     R1,A
   2470            
   2471            pNDRsp->status = *msg++;
   \   000014   8882         MOV     DPL,R0
   \   000016   8983         MOV     DPH,R1
   \   000018   E0           MOVX    A,@DPTR
   \   000019   8C82         MOV     DPL,R4
   \   00001B   8D83         MOV     DPH,R5
   \   00001D   F0           MOVX    @DPTR,A
   \   00001E   8882         MOV     DPL,R0
   \   000020   8983         MOV     DPH,R1
   \   000022   A3           INC     DPTR
   \   000023   A882         MOV     R0,DPL
   \   000025   A983         MOV     R1,DPH
   2472            pNDRsp->nwkAddr = BUILD_UINT16( msg[0], msg[1] );
   \   000027   E0           MOVX    A,@DPTR
   \   000028   FE           MOV     R6,A
   \   000029   A3           INC     DPTR
   \   00002A   E0           MOVX    A,@DPTR
   \   00002B   FB           MOV     R3,A
   \   00002C   EE           MOV     A,R6
   \   00002D   8C82         MOV     DPL,R4
   \   00002F   8D83         MOV     DPH,R5
   \   000031   A3           INC     DPTR
   \   000032   F0           MOVX    @DPTR,A
   \   000033   A3           INC     DPTR
   \   000034   EB           MOV     A,R3
   \   000035   F0           MOVX    @DPTR,A
   2473          
   2474            if ( pNDRsp->status == ZDP_SUCCESS )
   \   000036   8C82         MOV     DPL,R4
   \   000038   8D83         MOV     DPH,R5
   \   00003A   E0           MOVX    A,@DPTR
   \   00003B   6003         JZ      $+5
   \   00003D   02....       LJMP    ??ZDO_ParseNodeDescRsp_0 & 0xFFFF
   2475            {
   2476              msg += 2;
   \   000040   E8           MOV     A,R0
   \   000041   2402         ADD     A,#0x2
   \   000043   08           INC     R0
   \   000044   08           INC     R0
   \   000045   E9           MOV     A,R1
   \   000046   3400         ADDC    A,#0x0
   \   000048   F9           MOV     R1,A
   2477              pNDRsp->nodeDesc.LogicalType = *msg & 0x07;
   \   000049   EC           MOV     A,R4
   \   00004A   2403         ADD     A,#0x3
   \   00004C   FA           MOV     R2,A
   \   00004D   ED           MOV     A,R5
   \   00004E   3400         ADDC    A,#0x0
   \   000050   FB           MOV     R3,A
   \   000051   8882         MOV     DPL,R0
   \   000053   8983         MOV     DPH,R1
   \   000055   E0           MOVX    A,@DPTR
   \   000056   5407         ANL     A,#0x7
   \   000058   FE           MOV     R6,A
   \   000059   8A82         MOV     DPL,R2
   \   00005B   8B83         MOV     DPH,R3
   \   00005D   E0           MOVX    A,@DPTR
   \   00005E   54F8         ANL     A,#0xf8
   \   000060   4E           ORL     A,R6
   \   000061   F0           MOVX    @DPTR,A
   2478          
   2479              pNDRsp->nodeDesc.ComplexDescAvail = ( *msg & 0x08 ) >> 3;
   \   000062   C082         PUSH    DPL
   \   000064   C083         PUSH    DPH
   \   000066   8882         MOV     DPL,R0
   \   000068   8983         MOV     DPH,R1
   \   00006A   E0           MOVX    A,@DPTR
   \   00006B   A2E3         MOV     C,0xE0 /* A   */.3
   \   00006D   D083         POP     DPH
   \   00006F   D082         POP     DPL
   \   000071   E0           MOVX    A,@DPTR
   \   000072   92E3         MOV     0xE0 /* A   */.3,C
   \   000074   F0           MOVX    @DPTR,A
   2480              pNDRsp->nodeDesc.UserDescAvail = ( *msg & 0x10 ) >> 4;
   \   000075   8A82         MOV     DPL,R2
   \   000077   8B83         MOV     DPH,R3
   \   000079   C082         PUSH    DPL
   \   00007B   C083         PUSH    DPH
   \   00007D   8882         MOV     DPL,R0
   \   00007F   8983         MOV     DPH,R1
   \   000081   E0           MOVX    A,@DPTR
   \   000082   A2E4         MOV     C,0xE0 /* A   */.4
   \   000084   D083         POP     DPH
   \   000086   D082         POP     DPL
   \   000088   E0           MOVX    A,@DPTR
   \   000089   92E4         MOV     0xE0 /* A   */.4,C
   \   00008B   F0           MOVX    @DPTR,A
   2481              
   2482              msg++;  // Reserved bits.
   \   00008C   8882         MOV     DPL,R0
   \   00008E   8983         MOV     DPH,R1
   \   000090   A3           INC     DPTR
   \   000091   08           INC     R0
   \   000092   A983         MOV     R1,DPH
   2483              pNDRsp->nodeDesc.FrequencyBand = (*msg >> 3) & 0x1f;
   \   000094   EC           MOV     A,R4
   \   000095   2404         ADD     A,#0x4
   \   000097   0A           INC     R2
   \   000098   ED           MOV     A,R5
   \   000099   3400         ADDC    A,#0x0
   \   00009B   FB           MOV     R3,A
   \   00009C   8A82         MOV     DPL,R2
   \   00009E   8B83         MOV     DPH,R3
   \   0000A0   E0           MOVX    A,@DPTR
   \   0000A1   5407         ANL     A,#0x7
   \   0000A3   FE           MOV     R6,A
   \   0000A4   8882         MOV     DPL,R0
   \   0000A6   8983         MOV     DPH,R1
   \   0000A8   E0           MOVX    A,@DPTR
   \   0000A9   54F8         ANL     A,#0xf8
   \   0000AB   4E           ORL     A,R6
   \   0000AC   8A82         MOV     DPL,R2
   \   0000AE   8B83         MOV     DPH,R3
   \   0000B0   F0           MOVX    @DPTR,A
   2484              pNDRsp->nodeDesc.APSFlags = *msg++ & 0x07;
   \   0000B1   8882         MOV     DPL,R0
   \   0000B3   8983         MOV     DPH,R1
   \   0000B5   E0           MOVX    A,@DPTR
   \   0000B6   5407         ANL     A,#0x7
   \   0000B8   FE           MOV     R6,A
   \   0000B9   A3           INC     DPTR
   \   0000BA   08           INC     R0
   \   0000BB   A983         MOV     R1,DPH
   \   0000BD   8A82         MOV     DPL,R2
   \   0000BF   8B83         MOV     DPH,R3
   \   0000C1   E0           MOVX    A,@DPTR
   \   0000C2   54F8         ANL     A,#0xf8
   \   0000C4   4E           ORL     A,R6
   \   0000C5   F0           MOVX    @DPTR,A
   2485              pNDRsp->nodeDesc.CapabilityFlags = *msg++;
   \   0000C6   8882         MOV     DPL,R0
   \   0000C8   8983         MOV     DPH,R1
   \   0000CA   E0           MOVX    A,@DPTR
   \   0000CB   8C82         MOV     DPL,R4
   \   0000CD   8D83         MOV     DPH,R5
   \   0000CF   A3           INC     DPTR
   \   0000D0   A3           INC     DPTR
   \   0000D1   A3           INC     DPTR
   \   0000D2   A3           INC     DPTR
   \   0000D3   A3           INC     DPTR
   \   0000D4   F0           MOVX    @DPTR,A
   \   0000D5   8882         MOV     DPL,R0
   \   0000D7   8983         MOV     DPH,R1
   \   0000D9   A3           INC     DPTR
   \   0000DA   08           INC     R0
   \   0000DB   A983         MOV     R1,DPH
   2486              pNDRsp->nodeDesc.ManufacturerCode[0] = *msg++;
   \   0000DD   E0           MOVX    A,@DPTR
   \   0000DE   8C82         MOV     DPL,R4
   \   0000E0   8D83         MOV     DPH,R5
   \   0000E2   A3           INC     DPTR
   \   0000E3   A3           INC     DPTR
   \   0000E4   A3           INC     DPTR
   \   0000E5   A3           INC     DPTR
   \   0000E6   A3           INC     DPTR
   \   0000E7   A3           INC     DPTR
   \   0000E8   F0           MOVX    @DPTR,A
   \   0000E9   8882         MOV     DPL,R0
   \   0000EB   8983         MOV     DPH,R1
   \   0000ED   A3           INC     DPTR
   \   0000EE   08           INC     R0
   \   0000EF   A983         MOV     R1,DPH
   2487              pNDRsp->nodeDesc.ManufacturerCode[1] = *msg++;
   \   0000F1   E0           MOVX    A,@DPTR
   \   0000F2   8C82         MOV     DPL,R4
   \   0000F4   8D83         MOV     DPH,R5
   \   0000F6   A3           INC     DPTR
   \   0000F7   A3           INC     DPTR
   \   0000F8   A3           INC     DPTR
   \   0000F9   A3           INC     DPTR
   \   0000FA   A3           INC     DPTR
   \   0000FB   A3           INC     DPTR
   \   0000FC   A3           INC     DPTR
   \   0000FD   F0           MOVX    @DPTR,A
   \   0000FE   8882         MOV     DPL,R0
   \   000100   8983         MOV     DPH,R1
   \   000102   A3           INC     DPTR
   \   000103   08           INC     R0
   \   000104   A983         MOV     R1,DPH
   2488              pNDRsp->nodeDesc.MaxBufferSize = *msg++;
   \   000106   E0           MOVX    A,@DPTR
   \   000107   8C82         MOV     DPL,R4
   \   000109   8D83         MOV     DPH,R5
   \   00010B   A3           INC     DPTR
   \   00010C   A3           INC     DPTR
   \   00010D   A3           INC     DPTR
   \   00010E   A3           INC     DPTR
   \   00010F   A3           INC     DPTR
   \   000110   A3           INC     DPTR
   \   000111   A3           INC     DPTR
   \   000112   A3           INC     DPTR
   \   000113   F0           MOVX    @DPTR,A
   \   000114   8882         MOV     DPL,R0
   \   000116   8983         MOV     DPH,R1
   \   000118   A3           INC     DPTR
   \   000119   08           INC     R0
   \   00011A   A983         MOV     R1,DPH
   2489              pNDRsp->nodeDesc.MaxInTransferSize[0] = *msg++;
   \   00011C   E0           MOVX    A,@DPTR
   \   00011D   8C82         MOV     DPL,R4
   \   00011F   8D83         MOV     DPH,R5
   \   000121   A3           INC     DPTR
   \   000122   A3           INC     DPTR
   \   000123   A3           INC     DPTR
   \   000124   A3           INC     DPTR
   \   000125   A3           INC     DPTR
   \   000126   A3           INC     DPTR
   \   000127   A3           INC     DPTR
   \   000128   A3           INC     DPTR
   \   000129   A3           INC     DPTR
   \   00012A   F0           MOVX    @DPTR,A
   \   00012B   8882         MOV     DPL,R0
   \   00012D   8983         MOV     DPH,R1
   \   00012F   A3           INC     DPTR
   \   000130   08           INC     R0
   \   000131   A983         MOV     R1,DPH
   2490              pNDRsp->nodeDesc.MaxInTransferSize[1] = *msg++;
   \   000133   E0           MOVX    A,@DPTR
   \   000134   8C82         MOV     DPL,R4
   \   000136   8D83         MOV     DPH,R5
   \   000138   A3           INC     DPTR
   \   000139   A3           INC     DPTR
   \   00013A   A3           INC     DPTR
   \   00013B   A3           INC     DPTR
   \   00013C   A3           INC     DPTR
   \   00013D   A3           INC     DPTR
   \   00013E   A3           INC     DPTR
   \   00013F   A3           INC     DPTR
   \   000140   A3           INC     DPTR
   \   000141   A3           INC     DPTR
   \   000142   F0           MOVX    @DPTR,A
   \   000143   8882         MOV     DPL,R0
   \   000145   8983         MOV     DPH,R1
   \   000147   A3           INC     DPTR
   \   000148   08           INC     R0
   \   000149   A983         MOV     R1,DPH
   2491              pNDRsp->nodeDesc.ServerMask = BUILD_UINT16( msg[0], msg[1] );
   \   00014B   E0           MOVX    A,@DPTR
   \   00014C   FE           MOV     R6,A
   \   00014D   A3           INC     DPTR
   \   00014E   E0           MOVX    A,@DPTR
   \   00014F   FB           MOV     R3,A
   \   000150   EE           MOV     A,R6
   \   000151   FA           MOV     R2,A
   \   000152   EC           MOV     A,R4
   \   000153   240B         ADD     A,#0xb
   \   000155   F582         MOV     DPL,A
   \   000157   ED           MOV     A,R5
   \   000158   3400         ADDC    A,#0x0
   \   00015A   F583         MOV     DPH,A
   \   00015C   EA           MOV     A,R2
   \   00015D   F0           MOVX    @DPTR,A
   \   00015E   A3           INC     DPTR
   \   00015F   EB           MOV     A,R3
   \   000160   F0           MOVX    @DPTR,A
   2492              msg += 2;
   \   000161   E8           MOV     A,R0
   \   000162   2402         ADD     A,#0x2
   \   000164   08           INC     R0
   \   000165   08           INC     R0
   \   000166   E9           MOV     A,R1
   \   000167   3400         ADDC    A,#0x0
   \   000169   F9           MOV     R1,A
   2493              pNDRsp->nodeDesc.MaxOutTransferSize[0] = *msg++;
   \   00016A   8882         MOV     DPL,R0
   \   00016C   8983         MOV     DPH,R1
   \   00016E   E0           MOVX    A,@DPTR
   \   00016F   C0E0         PUSH    A
   \   000171   EC           MOV     A,R4
   \   000172   240D         ADD     A,#0xd
   \   000174   F582         MOV     DPL,A
   \   000176   ED           MOV     A,R5
   \   000177   3400         ADDC    A,#0x0
   \   000179   F583         MOV     DPH,A
   \   00017B   D0E0         POP     A
   \   00017D   F0           MOVX    @DPTR,A
   \   00017E   8882         MOV     DPL,R0
   \   000180   8983         MOV     DPH,R1
   \   000182   A3           INC     DPTR
   \   000183   08           INC     R0
   \   000184   A983         MOV     R1,DPH
   2494              pNDRsp->nodeDesc.MaxOutTransferSize[1] = *msg++;
   \   000186   E0           MOVX    A,@DPTR
   \   000187   C0E0         PUSH    A
   \   000189   EC           MOV     A,R4
   \   00018A   240E         ADD     A,#0xe
   \   00018C   F582         MOV     DPL,A
   \   00018E   ED           MOV     A,R5
   \   00018F   3400         ADDC    A,#0x0
   \   000191   F583         MOV     DPH,A
   \   000193   D0E0         POP     A
   \   000195   F0           MOVX    @DPTR,A
   \   000196   8882         MOV     DPL,R0
   \   000198   8983         MOV     DPH,R1
   \   00019A   A3           INC     DPTR
   2495              pNDRsp->nodeDesc.DescriptorCapability = *msg;
   \   00019B   E0           MOVX    A,@DPTR
   \   00019C   C0E0         PUSH    A
   \   00019E   EC           MOV     A,R4
   \   00019F   240F         ADD     A,#0xf
   \   0001A1   F582         MOV     DPL,A
   \   0001A3   ED           MOV     A,R5
   \   0001A4   3400         ADDC    A,#0x0
   \   0001A6   F583         MOV     DPH,A
   \   0001A8   D0E0         POP     A
   \   0001AA   F0           MOVX    @DPTR,A
   2496            }
   2497          }
   \                     ??ZDO_ParseNodeDescRsp_0:
   \   0001AB   7F01         MOV     R7,#0x1
   \   0001AD   02....       LJMP    ?BANKED_LEAVE_XDATA
   2498          
   2499          /*********************************************************************
   2500           * @fn          ZDO_ParesPowerDescRsp
   2501           *
   2502           * @brief       This function parses the Power_Desc_rsp message.
   2503           *
   2504           * @param       inMsg  - incoming message
   2505           * @param       pNPRsp - place to parse the message into
   2506           *
   2507           * @return      none
   2508           */

   \                                 In  segment BANKED_CODE, align 1, keep-with-next
   2509          void ZDO_ParsePowerDescRsp( zdoIncomingMsg_t *inMsg, ZDO_PowerRsp_t *pNPRsp )
   \                     ZDO_ParsePowerDescRsp:
   2510          {
   \   000000   74F7         MOV     A,#-0x9
   \   000002   12....       LCALL   ?BANKED_ENTER_XDATA
   \   000005                ; Saved register size: 9
   \   000005                ; Auto size: 0
   2511            uint8 *msg;
   2512            
   2513            msg = inMsg->asdu;
   \   000005   EA           MOV     A,R2
   \   000006   2413         ADD     A,#0x13
   \   000008   F582         MOV     DPL,A
   \   00000A   EB           MOV     A,R3
   \   00000B   3400         ADDC    A,#0x0
   \   00000D   F583         MOV     DPH,A
   \   00000F   E0           MOVX    A,@DPTR
   \   000010   F8           MOV     R0,A
   \   000011   A3           INC     DPTR
   \   000012   E0           MOVX    A,@DPTR
   \   000013   F9           MOV     R1,A
   2514            pNPRsp->status = *msg++;
   \   000014   8882         MOV     DPL,R0
   \   000016   8983         MOV     DPH,R1
   \   000018   E0           MOVX    A,@DPTR
   \   000019   8C82         MOV     DPL,R4
   \   00001B   8D83         MOV     DPH,R5
   \   00001D   F0           MOVX    @DPTR,A
   \   00001E   8882         MOV     DPL,R0
   \   000020   8983         MOV     DPH,R1
   \   000022   A3           INC     DPTR
   \   000023   A882         MOV     R0,DPL
   \   000025   A983         MOV     R1,DPH
   2515            pNPRsp->nwkAddr = BUILD_UINT16( msg[0], msg[1] );
   \   000027   E0           MOVX    A,@DPTR
   \   000028   FE           MOV     R6,A
   \   000029   A3           INC     DPTR
   \   00002A   E0           MOVX    A,@DPTR
   \   00002B   FB           MOV     R3,A
   \   00002C   EE           MOV     A,R6
   \   00002D   8C82         MOV     DPL,R4
   \   00002F   8D83         MOV     DPH,R5
   \   000031   A3           INC     DPTR
   \   000032   F0           MOVX    @DPTR,A
   \   000033   A3           INC     DPTR
   \   000034   EB           MOV     A,R3
   \   000035   F0           MOVX    @DPTR,A
   2516          
   2517            if ( pNPRsp->status == ZDP_SUCCESS )
   \   000036   8C82         MOV     DPL,R4
   \   000038   8D83         MOV     DPH,R5
   \   00003A   E0           MOVX    A,@DPTR
   \   00003B   6003         JZ      $+5
   \   00003D   02....       LJMP    ??ZDO_ParsePowerDescRsp_0 & 0xFFFF
   2518            {
   2519              msg += 2;
   \   000040   E8           MOV     A,R0
   \   000041   2402         ADD     A,#0x2
   \   000043   08           INC     R0
   \   000044   08           INC     R0
   \   000045   E9           MOV     A,R1
   \   000046   3400         ADDC    A,#0x0
   \   000048   F9           MOV     R1,A
   2520              pNPRsp->pwrDesc.AvailablePowerSources = *msg >> 4;
   \   000049   EC           MOV     A,R4
   \   00004A   2403         ADD     A,#0x3
   \   00004C   FA           MOV     R2,A
   \   00004D   ED           MOV     A,R5
   \   00004E   3400         ADDC    A,#0x0
   \   000050   FB           MOV     R3,A
   \   000051   8A82         MOV     DPL,R2
   \   000053   8B83         MOV     DPH,R3
   \   000055   E0           MOVX    A,@DPTR
   \   000056   540F         ANL     A,#0xf
   \   000058   FC           MOV     R4,A
   \   000059   A3           INC     DPTR
   \   00005A   E0           MOVX    A,@DPTR
   \   00005B   FD           MOV     R5,A
   \   00005C   8882         MOV     DPL,R0
   \   00005E   8983         MOV     DPH,R1
   \   000060   E0           MOVX    A,@DPTR
   \   000061   54F0         ANL     A,#0xf0
   \   000063   FE           MOV     R6,A
   \   000064   EC           MOV     A,R4
   \   000065   4E           ORL     A,R6
   \   000066   8A82         MOV     DPL,R2
   \   000068   8B83         MOV     DPH,R3
   \   00006A   F0           MOVX    @DPTR,A
   \   00006B   A3           INC     DPTR
   \   00006C   ED           MOV     A,R5
   \   00006D   F0           MOVX    @DPTR,A
   2521              pNPRsp->pwrDesc.PowerMode = *msg++ & 0x0F;
   \   00006E   8882         MOV     DPL,R0
   \   000070   8983         MOV     DPH,R1
   \   000072   E0           MOVX    A,@DPTR
   \   000073   540F         ANL     A,#0xf
   \   000075   FC           MOV     R4,A
   \   000076   A3           INC     DPTR
   \   000077   08           INC     R0
   \   000078   A983         MOV     R1,DPH
   \   00007A   8A82         MOV     DPL,R2
   \   00007C   8B83         MOV     DPH,R3
   \   00007E   E0           MOVX    A,@DPTR
   \   00007F   54F0         ANL     A,#0xf0
   \   000081   FE           MOV     R6,A
   \   000082   A3           INC     DPTR
   \   000083   E0           MOVX    A,@DPTR
   \   000084   FF           MOV     R7,A
   \   000085   EE           MOV     A,R6
   \   000086   4C           ORL     A,R4
   \   000087   FC           MOV     R4,A
   \   000088   EF           MOV     A,R7
   \   000089   FD           MOV     R5,A
   \   00008A   8A82         MOV     DPL,R2
   \   00008C   8B83         MOV     DPH,R3
   \   00008E   EC           MOV     A,R4
   \   00008F   F0           MOVX    @DPTR,A
   \   000090   A3           INC     DPTR
   \   000091   ED           MOV     A,R5
   \   000092   F0           MOVX    @DPTR,A
   2522              pNPRsp->pwrDesc.CurrentPowerSourceLevel = *msg >> 4;
   \   000093   8882         MOV     DPL,R0
   \   000095   8983         MOV     DPH,R1
   \   000097   E0           MOVX    A,@DPTR
   \   000098   54F0         ANL     A,#0xf0
   \   00009A   FF           MOV     R7,A
   \   00009B   8A82         MOV     DPL,R2
   \   00009D   8B83         MOV     DPH,R3
   \   00009F   E0           MOVX    A,@DPTR
   \   0000A0   FC           MOV     R4,A
   \   0000A1   A3           INC     DPTR
   \   0000A2   E0           MOVX    A,@DPTR
   \   0000A3   540F         ANL     A,#0xf
   \   0000A5   FD           MOV     R5,A
   \   0000A6   EF           MOV     A,R7
   \   0000A7   4D           ORL     A,R5
   \   0000A8   FD           MOV     R5,A
   \   0000A9   8A82         MOV     DPL,R2
   \   0000AB   8B83         MOV     DPH,R3
   \   0000AD   EC           MOV     A,R4
   \   0000AE   F0           MOVX    @DPTR,A
   \   0000AF   A3           INC     DPTR
   \   0000B0   ED           MOV     A,R5
   \   0000B1   F0           MOVX    @DPTR,A
   2523              pNPRsp->pwrDesc.CurrentPowerSource = *msg++ & 0x0F;
   \   0000B2   8A82         MOV     DPL,R2
   \   0000B4   8B83         MOV     DPH,R3
   \   0000B6   E0           MOVX    A,@DPTR
   \   0000B7   FC           MOV     R4,A
   \   0000B8   A3           INC     DPTR
   \   0000B9   E0           MOVX    A,@DPTR
   \   0000BA   54F0         ANL     A,#0xf0
   \   0000BC   FD           MOV     R5,A
   \   0000BD   8882         MOV     DPL,R0
   \   0000BF   8983         MOV     DPH,R1
   \   0000C1   E0           MOVX    A,@DPTR
   \   0000C2   540F         ANL     A,#0xf
   \   0000C4   F9           MOV     R1,A
   \   0000C5   EC           MOV     A,R4
   \   0000C6   F8           MOV     R0,A
   \   0000C7   ED           MOV     A,R5
   \   0000C8   49           ORL     A,R1
   \   0000C9   F9           MOV     R1,A
   \   0000CA   8A82         MOV     DPL,R2
   \   0000CC   8B83         MOV     DPH,R3
   \   0000CE   E8           MOV     A,R0
   \   0000CF   F0           MOVX    @DPTR,A
   \   0000D0   A3           INC     DPTR
   \   0000D1   E9           MOV     A,R1
   \   0000D2   F0           MOVX    @DPTR,A
   2524            }
   2525          }
   \                     ??ZDO_ParsePowerDescRsp_0:
   \   0000D3   7F01         MOV     R7,#0x1
   \   0000D5   02....       LJMP    ?BANKED_LEAVE_XDATA
   2526          
   2527          /*********************************************************************
   2528           * @fn          ZDO_ParseSimpleDescRsp
   2529           *
   2530           * @brief       This function parse the Simple_Desc_rsp message.
   2531           *
   2532           *   NOTE: The pAppInClusterList and pAppOutClusterList fields
   2533           *         in the SimpleDescriptionFormat_t structure are allocated
   2534           *         and the calling function needs to free [osal_msg_free()]
   2535           *         these buffers.
   2536           *
   2537           * @param       inMsg  - incoming message
   2538           * @param       pSimpleDescRsp - place to parse the message into
   2539           *
   2540           * @return      none
   2541           */

   \                                 In  segment BANKED_CODE, align 1, keep-with-next
   2542          void ZDO_ParseSimpleDescRsp( zdoIncomingMsg_t *inMsg, ZDO_SimpleDescRsp_t *pSimpleDescRsp )
   \                     ZDO_ParseSimpleDescRsp:
   2543          {
   \   000000   74F7         MOV     A,#-0x9
   \   000002   12....       LCALL   ?BANKED_ENTER_XDATA
   \   000005                ; Saved register size: 9
   \   000005                ; Auto size: 0
   2544            uint8 *msg;
   2545          
   2546            msg = inMsg->asdu;
   \   000005   EA           MOV     A,R2
   \   000006   2413         ADD     A,#0x13
   \   000008   F582         MOV     DPL,A
   \   00000A   EB           MOV     A,R3
   \   00000B   3400         ADDC    A,#0x0
   \   00000D   F583         MOV     DPH,A
   \   00000F   E0           MOVX    A,@DPTR
   \   000010   F8           MOV     R0,A
   \   000011   A3           INC     DPTR
   \   000012   E0           MOVX    A,@DPTR
   \   000013   F9           MOV     R1,A
   2547            pSimpleDescRsp->status = *msg++;
   \   000014   8882         MOV     DPL,R0
   \   000016   8983         MOV     DPH,R1
   \   000018   E0           MOVX    A,@DPTR
   \   000019   8C82         MOV     DPL,R4
   \   00001B   8D83         MOV     DPH,R5
   \   00001D   F0           MOVX    @DPTR,A
   \   00001E   8882         MOV     DPL,R0
   \   000020   8983         MOV     DPH,R1
   \   000022   A3           INC     DPTR
   \   000023   A882         MOV     R0,DPL
   \   000025   A983         MOV     R1,DPH
   2548            pSimpleDescRsp->nwkAddr = BUILD_UINT16( msg[0], msg[1] );
   \   000027   E0           MOVX    A,@DPTR
   \   000028   FE           MOV     R6,A
   \   000029   A3           INC     DPTR
   \   00002A   E0           MOVX    A,@DPTR
   \   00002B   FB           MOV     R3,A
   \   00002C   EE           MOV     A,R6
   \   00002D   8C82         MOV     DPL,R4
   \   00002F   8D83         MOV     DPH,R5
   \   000031   A3           INC     DPTR
   \   000032   F0           MOVX    @DPTR,A
   \   000033   A3           INC     DPTR
   \   000034   EB           MOV     A,R3
   \   000035   F0           MOVX    @DPTR,A
   2549            msg += sizeof ( uint16 );
   2550            msg++; // Skip past the length field.
   2551            
   2552            if ( pSimpleDescRsp->status == ZDP_SUCCESS )
   \   000036   8C82         MOV     DPL,R4
   \   000038   8D83         MOV     DPH,R5
   \   00003A   E0           MOVX    A,@DPTR
   \   00003B   7015         JNZ     ??ZDO_ParseSimpleDescRsp_0
   2553            {
   2554              ZDO_ParseSimpleDescBuf( msg, &(pSimpleDescRsp->simpleDesc) );
   \   00003D                ; Setup parameters for call to function ZDO_ParseSimpleDescBuf
   \   00003D   EC           MOV     A,R4
   \   00003E   2403         ADD     A,#0x3
   \   000040   0C           INC     R4
   \   000041   0C           INC     R4
   \   000042   0C           INC     R4
   \   000043   ED           MOV     A,R5
   \   000044   3400         ADDC    A,#0x0
   \   000046   FD           MOV     R5,A
   \   000047   E8           MOV     A,R0
   \   000048   2403         ADD     A,#0x3
   \   00004A   FA           MOV     R2,A
   \   00004B   E9           MOV     A,R1
   \   00004C   3400         ADDC    A,#0x0
   \   00004E   FB           MOV     R3,A
   \   00004F   12....       LCALL   ??ZDO_ParseSimpleDescBuf?relay
   2555            }
   2556          }
   \                     ??ZDO_ParseSimpleDescRsp_0:
   \   000052   7F01         MOV     R7,#0x1
   \   000054   02....       LJMP    ?BANKED_LEAVE_XDATA
   2557          
   2558          /*********************************************************************
   2559           * @fn          ZDO_ParseEPListRsp
   2560           *
   2561           * @brief       This parse the Active_EP_rsp or Match_Desc_rsp message.
   2562           *
   2563           * @param       inMsg  - incoming message
   2564           *
   2565           * @return      none
   2566           */

   \                                 In  segment BANKED_CODE, align 1, keep-with-next
   2567          ZDO_ActiveEndpointRsp_t *ZDO_ParseEPListRsp( zdoIncomingMsg_t *inMsg )
   \                     ZDO_ParseEPListRsp:
   2568          {
   \   000000   74F0         MOV     A,#-0x10
   \   000002   12....       LCALL   ?BANKED_ENTER_XDATA
   \   000005                ; Saved register size: 16
   \   000005                ; Auto size: 0
   2569            ZDO_ActiveEndpointRsp_t *pRsp;
   2570            uint8 *msg;
   2571            uint8 Status;
   2572            uint8 cnt;
   2573            
   2574            msg = inMsg->asdu;
   \   000005   EA           MOV     A,R2
   \   000006   2413         ADD     A,#0x13
   \   000008   F582         MOV     DPL,A
   \   00000A   EB           MOV     A,R3
   \   00000B   3400         ADDC    A,#0x0
   \   00000D   F583         MOV     DPH,A
   \   00000F   E0           MOVX    A,@DPTR
   \   000010   F5..         MOV     ?V0 + 0,A
   \   000012   A3           INC     DPTR
   \   000013   E0           MOVX    A,@DPTR
   2575            Status = *msg++;
   \   000014   85..82       MOV     DPL,?V0 + 0
   \   000017   F583         MOV     DPH,A
   \   000019   E0           MOVX    A,@DPTR
   \   00001A   F5..         MOV     ?V0 + 7,A
   \   00001C   A3           INC     DPTR
   \   00001D   8582..       MOV     ?V0 + 0,DPL
   \   000020   8583..       MOV     ?V0 + 1,DPH
   2576            cnt = msg[2];
   \   000023   A3           INC     DPTR
   \   000024   A3           INC     DPTR
   \   000025   E0           MOVX    A,@DPTR
   2577            
   2578            pRsp = (ZDO_ActiveEndpointRsp_t *)osal_mem_alloc( sizeof(  ZDO_ActiveEndpointRsp_t ) + cnt );
   \   000026   F582         MOV     DPL,A
   \   000028   AE82         MOV     R6,DPL
   \   00002A                ; Setup parameters for call to function osal_mem_alloc
   \   00002A   2404         ADD     A,#0x4
   \   00002C   FA           MOV     R2,A
   \   00002D   E4           CLR     A
   \   00002E   3400         ADDC    A,#0x0
   \   000030   FB           MOV     R3,A
   \   000031   12....       LCALL   ??osal_mem_alloc?relay
   \   000034   8A..         MOV     ?V0 + 4,R2
   \   000036   8B..         MOV     ?V0 + 5,R3
   2579            if ( pRsp )
   \   000038   EA           MOV     A,R2
   \   000039   45..         ORL     A,?V0 + 5
   \   00003B   6057         JZ      ??ZDO_ParseEPListRsp_0
   2580            {
   2581              pRsp->status = Status;
   \   00003D   8A82         MOV     DPL,R2
   \   00003F   8B83         MOV     DPH,R3
   \   000041   E5..         MOV     A,?V0 + 7
   \   000043   F0           MOVX    @DPTR,A
   2582              pRsp->nwkAddr = BUILD_UINT16( msg[0], msg[1] );
   \   000044   85..82       MOV     DPL,?V0 + 0
   \   000047   85..83       MOV     DPH,?V0 + 1
   \   00004A   E0           MOVX    A,@DPTR
   \   00004B   FA           MOV     R2,A
   \   00004C   A3           INC     DPTR
   \   00004D   E0           MOVX    A,@DPTR
   \   00004E   F8           MOV     R0,A
   \   00004F   E4           CLR     A
   \   000050   C8           XCH     A,R0
   \   000051   F9           MOV     R1,A
   \   000052   EA           MOV     A,R2
   \   000053   85..82       MOV     DPL,?V0 + 4
   \   000056   8B83         MOV     DPH,R3
   \   000058   A3           INC     DPTR
   \   000059   F0           MOVX    @DPTR,A
   \   00005A   A3           INC     DPTR
   \   00005B   E9           MOV     A,R1
   \   00005C   F0           MOVX    @DPTR,A
   2583              msg += sizeof( uint16 );
   2584              pRsp->cnt = cnt;
   \   00005D   85..82       MOV     DPL,?V0 + 4
   \   000060   8B83         MOV     DPH,R3
   \   000062   A3           INC     DPTR
   \   000063   A3           INC     DPTR
   \   000064   A3           INC     DPTR
   \   000065   EE           MOV     A,R6
   \   000066   F0           MOVX    @DPTR,A
   2585              msg++; // pass cnt
   2586              osal_memcpy( pRsp->epList, msg, cnt );
   \   000067                ; Setup parameters for call to function osal_memcpy
   \   000067   85..82       MOV     DPL,?V0 + 0
   \   00006A   85..83       MOV     DPH,?V0 + 1
   \   00006D   A3           INC     DPTR
   \   00006E   A3           INC     DPTR
   \   00006F   A3           INC     DPTR
   \   000070   A982         MOV     R1,DPL
   \   000072   AA83         MOV     R2,DPH
   \   000074   89..         MOV     ?V0 + 0,R1
   \   000076   8A..         MOV     ?V0 + 1,R2
   \   000078   88..         MOV     ?V0 + 2,R0
   \   00007A   78..         MOV     R0,#?V0 + 0
   \   00007C   12....       LCALL   ?PUSH_XSTACK_I_THREE
   \   00007F   EE           MOV     A,R6
   \   000080   FC           MOV     R4,A
   \   000081   7D00         MOV     R5,#0x0
   \   000083   E5..         MOV     A,?V0 + 4
   \   000085   2404         ADD     A,#0x4
   \   000087   FA           MOV     R2,A
   \   000088   EB           MOV     A,R3
   \   000089   3400         ADDC    A,#0x0
   \   00008B   FB           MOV     R3,A
   \   00008C   12....       LCALL   ??osal_memcpy?relay
   \   00008F   7403         MOV     A,#0x3
   \   000091   12....       LCALL   ?DEALLOC_XSTACK8
   2587            }
   2588            
   2589            return ( pRsp );
   \                     ??ZDO_ParseEPListRsp_0:
   \   000094   AA..         MOV     R2,?V0 + 4
   \   000096   AB..         MOV     R3,?V0 + 5
   \   000098   7F08         MOV     R7,#0x8
   \   00009A   02....       LJMP    ?BANKED_LEAVE_XDATA
   2590          }
   2591          
   2592          /*********************************************************************
   2593           * @fn          ZDO_ParseServerDiscRsp
   2594           *
   2595           * @brief       Parse the Server_Discovery_rsp message.
   2596           *
   2597           * @param       inMsg - incoming message.
   2598           * @param       pRsp - place to put the parsed information.
   2599           *
   2600           * @return      none
   2601           */

   \                                 In  segment BANKED_CODE, align 1, keep-with-next
   2602          void ZDO_ParseServerDiscRsp( zdoIncomingMsg_t *inMsg, ZDO_ServerDiscRsp_t *pRsp )
   \                     ZDO_ParseServerDiscRsp:
   2603          {
   \   000000   74F7         MOV     A,#-0x9
   \   000002   12....       LCALL   ?BANKED_ENTER_XDATA
   \   000005                ; Saved register size: 9
   \   000005                ; Auto size: 0
   2604            pRsp->status = inMsg->asdu[0];
   \   000005   EA           MOV     A,R2
   \   000006   2413         ADD     A,#0x13
   \   000008   F8           MOV     R0,A
   \   000009   EB           MOV     A,R3
   \   00000A   3400         ADDC    A,#0x0
   \   00000C   F9           MOV     R1,A
   \   00000D   8882         MOV     DPL,R0
   \   00000F   8983         MOV     DPH,R1
   \   000011   E0           MOVX    A,@DPTR
   \   000012   FA           MOV     R2,A
   \   000013   A3           INC     DPTR
   \   000014   E0           MOVX    A,@DPTR
   \   000015   F583         MOV     DPH,A
   \   000017   8A82         MOV     DPL,R2
   \   000019   E0           MOVX    A,@DPTR
   \   00001A   8C82         MOV     DPL,R4
   \   00001C   8D83         MOV     DPH,R5
   \   00001E   F0           MOVX    @DPTR,A
   2605            pRsp->serverMask = BUILD_UINT16( inMsg->asdu[1], inMsg->asdu[2] );
   \   00001F   8882         MOV     DPL,R0
   \   000021   8983         MOV     DPH,R1
   \   000023   E0           MOVX    A,@DPTR
   \   000024   FA           MOV     R2,A
   \   000025   A3           INC     DPTR
   \   000026   E0           MOVX    A,@DPTR
   \   000027   F583         MOV     DPH,A
   \   000029   8A82         MOV     DPL,R2
   \   00002B   A3           INC     DPTR
   \   00002C   E0           MOVX    A,@DPTR
   \   00002D   FA           MOV     R2,A
   \   00002E   8882         MOV     DPL,R0
   \   000030   8983         MOV     DPH,R1
   \   000032   E0           MOVX    A,@DPTR
   \   000033   F8           MOV     R0,A
   \   000034   A3           INC     DPTR
   \   000035   E0           MOVX    A,@DPTR
   \   000036   F583         MOV     DPH,A
   \   000038   8882         MOV     DPL,R0
   \   00003A   A3           INC     DPTR
   \   00003B   A3           INC     DPTR
   \   00003C   E0           MOVX    A,@DPTR
   \   00003D   F9           MOV     R1,A
   \   00003E   EA           MOV     A,R2
   \   00003F   8C82         MOV     DPL,R4
   \   000041   8D83         MOV     DPH,R5
   \   000043   A3           INC     DPTR
   \   000044   F0           MOVX    @DPTR,A
   \   000045   A3           INC     DPTR
   \   000046   E9           MOV     A,R1
   \   000047   F0           MOVX    @DPTR,A
   2606          }
   \   000048   7F01         MOV     R7,#0x1
   \   00004A   02....       LJMP    ?BANKED_LEAVE_XDATA
   2607          
   2608          /*********************************************************************
   2609           * @fn          ZDO_ParseMgmtLqiRsp
   2610           *
   2611           * @brief       This function parses the incoming Management
   2612           *              LQI response
   2613           *
   2614           * @param       inMsg - incoming message
   2615           *
   2616           * @return      a pointer to parsed response structure (NULL if not allocated).  
   2617           *          This structure was allocated using osal_mem_alloc, so it must be freed
   2618           *          by the calling function [osal_mem_free()].
   2619           */

   \                                 In  segment BANKED_CODE, align 1, keep-with-next
   2620          ZDO_MgmtLqiRsp_t *ZDO_ParseMgmtLqiRsp( zdoIncomingMsg_t *inMsg )
   \                     ZDO_ParseMgmtLqiRsp:
   2621          {
   \   000000   74F0         MOV     A,#-0x10
   \   000002   12....       LCALL   ?BANKED_ENTER_XDATA
   \   000005                ; Saved register size: 16
   \   000005                ; Auto size: 0
   2622            ZDO_MgmtLqiRsp_t *pRsp;
   2623            uint8 status;
   2624            uint8 startIndex = 0;
   \   000005   75..00       MOV     ?V0 + 6,#0x0
   2625            uint8 neighborLqiCount = 0;
   \   000008   75..00       MOV     ?V0 + 5,#0x0
   2626            uint8 neighborLqiEntries = 0;
   \   00000B   75..00       MOV     ?V0 + 4,#0x0
   2627            uint8 *msg;
   2628            
   2629            msg = inMsg->asdu;
   \   00000E   EA           MOV     A,R2
   \   00000F   2413         ADD     A,#0x13
   \   000011   F582         MOV     DPL,A
   \   000013   EB           MOV     A,R3
   \   000014   3400         ADDC    A,#0x0
   \   000016   F583         MOV     DPH,A
   \   000018   E0           MOVX    A,@DPTR
   \   000019   FE           MOV     R6,A
   \   00001A   A3           INC     DPTR
   \   00001B   E0           MOVX    A,@DPTR
   \   00001C   FF           MOV     R7,A
   2630          
   2631            status = *msg++;
   \   00001D   8E82         MOV     DPL,R6
   \   00001F   8F83         MOV     DPH,R7
   \   000021   E0           MOVX    A,@DPTR
   \   000022   F5..         MOV     ?V0 + 7,A
   \   000024   A3           INC     DPTR
   \   000025   AE82         MOV     R6,DPL
   \   000027   AF83         MOV     R7,DPH
   2632            if ( status == ZSuccess )
   \   000029   7011         JNZ     ??ZDO_ParseMgmtLqiRsp_0
   2633            {
   2634              neighborLqiEntries = *msg++;
   \   00002B   E0           MOVX    A,@DPTR
   \   00002C   F5..         MOV     ?V0 + 4,A
   \   00002E   A3           INC     DPTR
   2635              startIndex = *msg++;
   \   00002F   E0           MOVX    A,@DPTR
   \   000030   F5..         MOV     ?V0 + 6,A
   \   000032   A3           INC     DPTR
   2636              neighborLqiCount = *msg++;
   \   000033   E0           MOVX    A,@DPTR
   \   000034   F5..         MOV     ?V0 + 5,A
   \   000036   A3           INC     DPTR
   \   000037   0E           INC     R6
   \   000038   0E           INC     R6
   \   000039   0E           INC     R6
   \   00003A   AF83         MOV     R7,DPH
   2637            }
   2638          
   2639            // Allocate a buffer big enough to handle the list.
   2640            pRsp = (ZDO_MgmtLqiRsp_t *)osal_mem_alloc( 
   2641                      sizeof( ZDO_MgmtLqiRsp_t ) + (neighborLqiCount * sizeof( neighborLqiItem_t )) );
   \                     ??ZDO_ParseMgmtLqiRsp_0:
   \   00003C                ; Setup parameters for call to function osal_mem_alloc
   \   00003C   E5..         MOV     A,?V0 + 5
   \   00003E   75F00E       MOV     B,#0xe
   \   000041   A4           MUL     AB
   \   000042   2404         ADD     A,#0x4
   \   000044   FA           MOV     R2,A
   \   000045   E5F0         MOV     A,B
   \   000047   3400         ADDC    A,#0x0
   \   000049   FB           MOV     R3,A
   \   00004A   12....       LCALL   ??osal_mem_alloc?relay
   \   00004D   8A..         MOV     ?V0 + 2,R2
   \   00004F   8B..         MOV     ?V0 + 3,R3
   2642            if ( pRsp )
   \   000051   EA           MOV     A,R2
   \   000052   45..         ORL     A,?V0 + 3
   \   000054   7003         JNZ     $+5
   \   000056   02....       LJMP    ??ZDO_ParseMgmtLqiRsp_1 & 0xFFFF
   2643            {
   2644              uint8 x;
   2645              neighborLqiItem_t *pList = pRsp->list;
   \   000059   EA           MOV     A,R2
   \   00005A   2404         ADD     A,#0x4
   \   00005C   F5..         MOV     ?V0 + 0,A
   \   00005E   EB           MOV     A,R3
   \   00005F   3400         ADDC    A,#0x0
   \   000061   F5..         MOV     ?V0 + 1,A
   2646              pRsp->status = status;
   \   000063   8A82         MOV     DPL,R2
   \   000065   8B83         MOV     DPH,R3
   \   000067   E5..         MOV     A,?V0 + 7
   \   000069   F0           MOVX    @DPTR,A
   2647              pRsp->neighborLqiEntries = neighborLqiEntries;
   \   00006A   A3           INC     DPTR
   \   00006B   E5..         MOV     A,?V0 + 4
   \   00006D   F0           MOVX    @DPTR,A
   2648              pRsp->startIndex = startIndex;
   \   00006E   8A82         MOV     DPL,R2
   \   000070   8B83         MOV     DPH,R3
   \   000072   A3           INC     DPTR
   \   000073   A3           INC     DPTR
   \   000074   E5..         MOV     A,?V0 + 6
   \   000076   F0           MOVX    @DPTR,A
   2649              pRsp->neighborLqiCount = neighborLqiCount;
   \   000077   8A82         MOV     DPL,R2
   \   000079   8B83         MOV     DPH,R3
   \   00007B   A3           INC     DPTR
   \   00007C   A3           INC     DPTR
   \   00007D   A3           INC     DPTR
   \   00007E   E5..         MOV     A,?V0 + 5
   \   000080   F0           MOVX    @DPTR,A
   2650          
   2651              for ( x = 0; x < neighborLqiCount; x++ )
   \   000081   75..00       MOV     ?V0 + 4,#0x0
   \   000084   8070         SJMP    ??ZDO_ParseMgmtLqiRsp_2
   2652              {
   2653                osal_cpyExtAddr(pList->extPANId, msg);   //Copy extended PAN ID
   \                     ??ZDO_ParseMgmtLqiRsp_3:
   \   000086                ; Setup parameters for call to function sAddrExtCpy
   \   000086   EE           MOV     A,R6
   \   000087   FC           MOV     R4,A
   \   000088   EF           MOV     A,R7
   \   000089   FD           MOV     R5,A
   \   00008A   E5..         MOV     A,?V0 + 0
   \   00008C   2404         ADD     A,#0x4
   \   00008E   FA           MOV     R2,A
   \   00008F   E5..         MOV     A,?V0 + 1
   \   000091   3400         ADDC    A,#0x0
   \   000093   FB           MOV     R3,A
   \   000094   12....       LCALL   ??sAddrExtCpy?relay
   2654                msg += Z_EXTADDR_LEN;
   2655              
   2656                msg += Z_EXTADDR_LEN;  // Throwing away IEEE.
   \   000097   EE           MOV     A,R6
   \   000098   2410         ADD     A,#0x10
   \   00009A   FE           MOV     R6,A
   \   00009B   EF           MOV     A,R7
   \   00009C   3400         ADDC    A,#0x0
   \   00009E   FF           MOV     R7,A
   2657                pList->nwkAddr = BUILD_UINT16( msg[0], msg[1] );
   \   00009F   8E82         MOV     DPL,R6
   \   0000A1   8F83         MOV     DPH,R7
   \   0000A3   E0           MOVX    A,@DPTR
   \   0000A4   FA           MOV     R2,A
   \   0000A5   A3           INC     DPTR
   \   0000A6   E0           MOVX    A,@DPTR
   \   0000A7   F9           MOV     R1,A
   \   0000A8   EA           MOV     A,R2
   \   0000A9   85..82       MOV     DPL,?V0 + 0
   \   0000AC   85..83       MOV     DPH,?V0 + 1
   \   0000AF   F0           MOVX    @DPTR,A
   \   0000B0   A3           INC     DPTR
   \   0000B1   E9           MOV     A,R1
   \   0000B2   F0           MOVX    @DPTR,A
   2658                msg += 2 + 1 + 1 + 1;      // Skip DeviceType, RxOnIdle, Rlationship, PermitJoining and Depth
   \   0000B3   EE           MOV     A,R6
   \   0000B4   2405         ADD     A,#0x5
   \   0000B6   FE           MOV     R6,A
   \   0000B7   EF           MOV     A,R7
   \   0000B8   3400         ADDC    A,#0x0
   \   0000BA   FF           MOV     R7,A
   2659                pList->rxLqi = *msg++;
   \   0000BB   8E82         MOV     DPL,R6
   \   0000BD   8F83         MOV     DPH,R7
   \   0000BF   E0           MOVX    A,@DPTR
   \   0000C0   C0E0         PUSH    A
   \   0000C2   E5..         MOV     A,?V0 + 0
   \   0000C4   240D         ADD     A,#0xd
   \   0000C6   F582         MOV     DPL,A
   \   0000C8   E5..         MOV     A,?V0 + 1
   \   0000CA   3400         ADDC    A,#0x0
   \   0000CC   F583         MOV     DPH,A
   \   0000CE   D0E0         POP     A
   \   0000D0   F0           MOVX    @DPTR,A
   \   0000D1   8E82         MOV     DPL,R6
   \   0000D3   8F83         MOV     DPH,R7
   \   0000D5   A3           INC     DPTR
   \   0000D6   AE82         MOV     R6,DPL
   \   0000D8   AF83         MOV     R7,DPH
   2660                pList->txQuality = 0;  // This is not specified OTA by ZigBee 1.1.
   \   0000DA   E5..         MOV     A,?V0 + 0
   \   0000DC   240C         ADD     A,#0xc
   \   0000DE   F582         MOV     DPL,A
   \   0000E0   E5..         MOV     A,?V0 + 1
   \   0000E2   3400         ADDC    A,#0x0
   \   0000E4   F583         MOV     DPH,A
   \   0000E6   E4           CLR     A
   \   0000E7   F0           MOVX    @DPTR,A
   2661                pList++;
   \   0000E8   E5..         MOV     A,?V0 + 0
   \   0000EA   240E         ADD     A,#0xe
   \   0000EC   F5..         MOV     ?V0 + 0,A
   \   0000EE   E5..         MOV     A,?V0 + 1
   \   0000F0   3400         ADDC    A,#0x0
   \   0000F2   F5..         MOV     ?V0 + 1,A
   2662              }
   \   0000F4   05..         INC     ?V0 + 4
   \                     ??ZDO_ParseMgmtLqiRsp_2:
   \   0000F6   E5..         MOV     A,?V0 + 4
   \   0000F8   C3           CLR     C
   \   0000F9   95..         SUBB    A,?V0 + 5
   \   0000FB   4089         JC      ??ZDO_ParseMgmtLqiRsp_3
   2663            }
   2664            
   2665            return ( pRsp );
   \                     ??ZDO_ParseMgmtLqiRsp_1:
   \   0000FD   AA..         MOV     R2,?V0 + 2
   \   0000FF   AB..         MOV     R3,?V0 + 3
   \   000101   7F08         MOV     R7,#0x8
   \   000103   02....       LJMP    ?BANKED_LEAVE_XDATA
   2666          }
   2667          
   2668          /*********************************************************************
   2669           * @fn          ZDO_ParseMgmNwkDiscRsp
   2670           *
   2671           * @brief       This function parses the incoming Management
   2672           *              Network Discover response.
   2673           *
   2674           * @param       inMsg - incoming message
   2675           *
   2676           * @return      pointer to parsed response.  This structure was 
   2677           *          allocated using osal_mem_alloc, so it must be freed
   2678           *          by the calling function [osal_mem_free()].
   2679           */

   \                                 In  segment BANKED_CODE, align 1, keep-with-next
   2680          ZDO_MgmNwkDiscRsp_t *ZDO_ParseMgmNwkDiscRsp( zdoIncomingMsg_t *inMsg )
   \                     ZDO_ParseMgmNwkDiscRsp:
   2681          {
   \   000000   74F0         MOV     A,#-0x10
   \   000002   12....       LCALL   ?BANKED_ENTER_XDATA
   \   000005                ; Saved register size: 16
   \   000005                ; Auto size: 0
   2682            ZDO_MgmNwkDiscRsp_t *pRsp;
   2683            uint8 status;
   2684            uint8 networkCount = 0;
   \   000005   75..00       MOV     ?V0 + 0,#0x0
   2685            uint8 startIndex = 0;
   \   000008   75..00       MOV     ?V0 + 1,#0x0
   2686            uint8 networkListCount = 0;
   \   00000B   75..00       MOV     ?V0 + 7,#0x0
   2687            uint8 *msg;
   2688            
   2689            msg = inMsg->asdu;
   \   00000E   EA           MOV     A,R2
   \   00000F   2413         ADD     A,#0x13
   \   000011   F582         MOV     DPL,A
   \   000013   EB           MOV     A,R3
   \   000014   3400         ADDC    A,#0x0
   \   000016   F583         MOV     DPH,A
   \   000018   E0           MOVX    A,@DPTR
   \   000019   FE           MOV     R6,A
   \   00001A   A3           INC     DPTR
   \   00001B   E0           MOVX    A,@DPTR
   \   00001C   FF           MOV     R7,A
   2690            status = *msg++;
   \   00001D   8E82         MOV     DPL,R6
   \   00001F   8F83         MOV     DPH,R7
   \   000021   E0           MOVX    A,@DPTR
   \   000022   F5..         MOV     ?V0 + 6,A
   \   000024   A3           INC     DPTR
   \   000025   AE82         MOV     R6,DPL
   \   000027   AF83         MOV     R7,DPH
   2691            
   2692            if ( status == ZSuccess )
   \   000029   7011         JNZ     ??ZDO_ParseMgmNwkDiscRsp_0
   2693            {
   2694              networkCount = *msg++;
   \   00002B   E0           MOVX    A,@DPTR
   \   00002C   F5..         MOV     ?V0 + 0,A
   \   00002E   A3           INC     DPTR
   2695              startIndex = *msg++;
   \   00002F   E0           MOVX    A,@DPTR
   \   000030   F5..         MOV     ?V0 + 1,A
   \   000032   A3           INC     DPTR
   2696              networkListCount = *msg++;
   \   000033   E0           MOVX    A,@DPTR
   \   000034   F5..         MOV     ?V0 + 7,A
   \   000036   A3           INC     DPTR
   \   000037   0E           INC     R6
   \   000038   0E           INC     R6
   \   000039   0E           INC     R6
   \   00003A   AF83         MOV     R7,DPH
   2697            }
   2698          
   2699            // Allocate a buffer big enough to handle the list.
   2700            pRsp = (ZDO_MgmNwkDiscRsp_t *)osal_mem_alloc( sizeof( ZDO_MgmNwkDiscRsp_t ) 
   2701                                            + (networkListCount * sizeof( mgmtNwkDiscItem_t )) );
   \                     ??ZDO_ParseMgmNwkDiscRsp_0:
   \   00003C                ; Setup parameters for call to function osal_mem_alloc
   \   00003C   85....       MOV     ?V0 + 2,?V0 + 7
   \   00003F   75..00       MOV     ?V0 + 3,#0x0
   \   000042   7404         MOV     A,#0x4
   \   000044   78..         MOV     R0,#?V0 + 2
   \   000046   12....       LCALL   ?S_SHL
   \   000049   E5..         MOV     A,?V0 + 2
   \   00004B   2404         ADD     A,#0x4
   \   00004D   FA           MOV     R2,A
   \   00004E   E5..         MOV     A,?V0 + 3
   \   000050   3400         ADDC    A,#0x0
   \   000052   FB           MOV     R3,A
   \   000053   12....       LCALL   ??osal_mem_alloc?relay
   \   000056   8A..         MOV     ?V0 + 2,R2
   \   000058   8B..         MOV     ?V0 + 3,R3
   2702            if ( pRsp )
   \   00005A   EA           MOV     A,R2
   \   00005B   45..         ORL     A,?V0 + 3
   \   00005D   7003         JNZ     $+5
   \   00005F   02....       LJMP    ??ZDO_ParseMgmNwkDiscRsp_1 & 0xFFFF
   2703            {
   2704              uint8 x;
   2705              mgmtNwkDiscItem_t *pList;
   2706              
   2707              pRsp->status = status;
   \   000062   8A82         MOV     DPL,R2
   \   000064   8B83         MOV     DPH,R3
   \   000066   E5..         MOV     A,?V0 + 6
   \   000068   F0           MOVX    @DPTR,A
   2708              pRsp->networkCount = networkCount;
   \   000069   A3           INC     DPTR
   \   00006A   E5..         MOV     A,?V0 + 0
   \   00006C   F0           MOVX    @DPTR,A
   2709              pRsp->startIndex = startIndex;
   \   00006D   8A82         MOV     DPL,R2
   \   00006F   8B83         MOV     DPH,R3
   \   000071   A3           INC     DPTR
   \   000072   A3           INC     DPTR
   \   000073   E5..         MOV     A,?V0 + 1
   \   000075   F0           MOVX    @DPTR,A
   2710              pRsp->networkListCount = networkListCount;
   \   000076   8A82         MOV     DPL,R2
   \   000078   8B83         MOV     DPH,R3
   \   00007A   A3           INC     DPTR
   \   00007B   A3           INC     DPTR
   \   00007C   A3           INC     DPTR
   \   00007D   E5..         MOV     A,?V0 + 7
   \   00007F   F0           MOVX    @DPTR,A
   2711              pList = pRsp->list;
   \   000080   EA           MOV     A,R2
   \   000081   2404         ADD     A,#0x4
   \   000083   F5..         MOV     ?V0 + 0,A
   \   000085   EB           MOV     A,R3
   \   000086   3400         ADDC    A,#0x0
   \   000088   F5..         MOV     ?V0 + 1,A
   2712              
   2713              for ( x = 0; x < networkListCount; x++ )
   \   00008A   75..00       MOV     ?V0 + 4,#0x0
   \   00008D   02....       LJMP    ??ZDO_ParseMgmNwkDiscRsp_2 & 0xFFFF
   2714              {
   2715                osal_cpyExtAddr(pList->extendedPANID, msg);   //Copy extended PAN ID
   \                     ??ZDO_ParseMgmNwkDiscRsp_3:
   \   000090                ; Setup parameters for call to function sAddrExtCpy
   \   000090   EE           MOV     A,R6
   \   000091   FC           MOV     R4,A
   \   000092   EF           MOV     A,R7
   \   000093   FD           MOV     R5,A
   \   000094   AA..         MOV     R2,?V0 + 0
   \   000096   AB..         MOV     R3,?V0 + 1
   \   000098   12....       LCALL   ??sAddrExtCpy?relay
   2716                pList->PANId = BUILD_UINT16( msg[0], msg[1] );
   \   00009B   8E82         MOV     DPL,R6
   \   00009D   8F83         MOV     DPH,R7
   \   00009F   E0           MOVX    A,@DPTR
   \   0000A0   FA           MOV     R2,A
   \   0000A1   A3           INC     DPTR
   \   0000A2   E0           MOVX    A,@DPTR
   \   0000A3   F9           MOV     R1,A
   \   0000A4   EA           MOV     A,R2
   \   0000A5   85..82       MOV     DPL,?V0 + 0
   \   0000A8   85..83       MOV     DPH,?V0 + 1
   \   0000AB   A3           INC     DPTR
   \   0000AC   A3           INC     DPTR
   \   0000AD   A3           INC     DPTR
   \   0000AE   A3           INC     DPTR
   \   0000AF   A3           INC     DPTR
   \   0000B0   A3           INC     DPTR
   \   0000B1   A3           INC     DPTR
   \   0000B2   A3           INC     DPTR
   \   0000B3   F0           MOVX    @DPTR,A
   \   0000B4   A3           INC     DPTR
   \   0000B5   E9           MOV     A,R1
   \   0000B6   F0           MOVX    @DPTR,A
   2717                msg += Z_EXTADDR_LEN;
   \   0000B7   EE           MOV     A,R6
   \   0000B8   2408         ADD     A,#0x8
   \   0000BA   FE           MOV     R6,A
   \   0000BB   EF           MOV     A,R7
   \   0000BC   3400         ADDC    A,#0x0
   \   0000BE   FF           MOV     R7,A
   2718          
   2719                pList->logicalChannel = *msg++;
   \   0000BF   8E82         MOV     DPL,R6
   \   0000C1   8F83         MOV     DPH,R7
   \   0000C3   E0           MOVX    A,@DPTR
   \   0000C4   85..82       MOV     DPL,?V0 + 0
   \   0000C7   85..83       MOV     DPH,?V0 + 1
   \   0000CA   A3           INC     DPTR
   \   0000CB   A3           INC     DPTR
   \   0000CC   A3           INC     DPTR
   \   0000CD   A3           INC     DPTR
   \   0000CE   A3           INC     DPTR
   \   0000CF   A3           INC     DPTR
   \   0000D0   A3           INC     DPTR
   \   0000D1   A3           INC     DPTR
   \   0000D2   A3           INC     DPTR
   \   0000D3   A3           INC     DPTR
   \   0000D4   F0           MOVX    @DPTR,A
   \   0000D5   8E82         MOV     DPL,R6
   \   0000D7   8F83         MOV     DPH,R7
   \   0000D9   A3           INC     DPTR
   \   0000DA   AE82         MOV     R6,DPL
   \   0000DC   AF83         MOV     R7,DPH
   2720                pList->stackProfile = (*msg) & 0x0F;
   \   0000DE   E0           MOVX    A,@DPTR
   \   0000DF   540F         ANL     A,#0xf
   \   0000E1   C0E0         PUSH    A
   \   0000E3   E5..         MOV     A,?V0 + 0
   \   0000E5   240B         ADD     A,#0xb
   \   0000E7   F582         MOV     DPL,A
   \   0000E9   E5..         MOV     A,?V0 + 1
   \   0000EB   3400         ADDC    A,#0x0
   \   0000ED   F583         MOV     DPH,A
   \   0000EF   D0E0         POP     A
   \   0000F1   F0           MOVX    @DPTR,A
   2721                pList->version = (*msg++ >> 4) & 0x0F;
   \   0000F2   8E82         MOV     DPL,R6
   \   0000F4   8F83         MOV     DPH,R7
   \   0000F6   E0           MOVX    A,@DPTR
   \   0000F7   C4           SWAP    A
   \   0000F8   540F         ANL     A,#0xf
   \   0000FA   C0E0         PUSH    A
   \   0000FC   E5..         MOV     A,?V0 + 0
   \   0000FE   240C         ADD     A,#0xc
   \   000100   F582         MOV     DPL,A
   \   000102   E5..         MOV     A,?V0 + 1
   \   000104   3400         ADDC    A,#0x0
   \   000106   F583         MOV     DPH,A
   \   000108   D0E0         POP     A
   \   00010A   F0           MOVX    @DPTR,A
   \   00010B   8E82         MOV     DPL,R6
   \   00010D   8F83         MOV     DPH,R7
   \   00010F   A3           INC     DPTR
   \   000110   0E           INC     R6
   \   000111   AF83         MOV     R7,DPH
   2722                pList->beaconOrder = (*msg) & 0x0F;
   \   000113   E0           MOVX    A,@DPTR
   \   000114   540F         ANL     A,#0xf
   \   000116   C0E0         PUSH    A
   \   000118   E5..         MOV     A,?V0 + 0
   \   00011A   240D         ADD     A,#0xd
   \   00011C   F582         MOV     DPL,A
   \   00011E   E5..         MOV     A,?V0 + 1
   \   000120   3400         ADDC    A,#0x0
   \   000122   F583         MOV     DPH,A
   \   000124   D0E0         POP     A
   \   000126   F0           MOVX    @DPTR,A
   2723                pList->superFrameOrder = (*msg++ >> 4) & 0x0F;
   \   000127   8E82         MOV     DPL,R6
   \   000129   8F83         MOV     DPH,R7
   \   00012B   E0           MOVX    A,@DPTR
   \   00012C   C4           SWAP    A
   \   00012D   540F         ANL     A,#0xf
   \   00012F   C0E0         PUSH    A
   \   000131   E5..         MOV     A,?V0 + 0
   \   000133   240E         ADD     A,#0xe
   \   000135   F582         MOV     DPL,A
   \   000137   E5..         MOV     A,?V0 + 1
   \   000139   3400         ADDC    A,#0x0
   \   00013B   F583         MOV     DPH,A
   \   00013D   D0E0         POP     A
   \   00013F   F0           MOVX    @DPTR,A
   \   000140   8E82         MOV     DPL,R6
   \   000142   8F83         MOV     DPH,R7
   \   000144   A3           INC     DPTR
   \   000145   0E           INC     R6
   \   000146   AF83         MOV     R7,DPH
   2724                pList->permitJoining = *msg++;
   \   000148   E0           MOVX    A,@DPTR
   \   000149   C0E0         PUSH    A
   \   00014B   E5..         MOV     A,?V0 + 0
   \   00014D   240F         ADD     A,#0xf
   \   00014F   F582         MOV     DPL,A
   \   000151   E5..         MOV     A,?V0 + 1
   \   000153   3400         ADDC    A,#0x0
   \   000155   F583         MOV     DPH,A
   \   000157   D0E0         POP     A
   \   000159   F0           MOVX    @DPTR,A
   \   00015A   8E82         MOV     DPL,R6
   \   00015C   8F83         MOV     DPH,R7
   \   00015E   A3           INC     DPTR
   \   00015F   0E           INC     R6
   \   000160   AF83         MOV     R7,DPH
   2725                pList++;
   \   000162   E5..         MOV     A,?V0 + 0
   \   000164   2410         ADD     A,#0x10
   \   000166   F5..         MOV     ?V0 + 0,A
   \   000168   E5..         MOV     A,?V0 + 1
   \   00016A   3400         ADDC    A,#0x0
   \   00016C   F5..         MOV     ?V0 + 1,A
   2726              }
   \   00016E   05..         INC     ?V0 + 4
   \                     ??ZDO_ParseMgmNwkDiscRsp_2:
   \   000170   E5..         MOV     A,?V0 + 4
   \   000172   C3           CLR     C
   \   000173   95..         SUBB    A,?V0 + 7
   \   000175   5003         JNC     $+5
   \   000177   02....       LJMP    ??ZDO_ParseMgmNwkDiscRsp_3 & 0xFFFF
   2727            }
   2728            
   2729            return ( pRsp );
   \                     ??ZDO_ParseMgmNwkDiscRsp_1:
   \   00017A   AA..         MOV     R2,?V0 + 2
   \   00017C   AB..         MOV     R3,?V0 + 3
   \   00017E   7F08         MOV     R7,#0x8
   \   000180   02....       LJMP    ?BANKED_LEAVE_XDATA
   2730          }
   2731          
   2732          /*********************************************************************
   2733           * @fn          ZDO_ParseMgmtRtgRsp
   2734           *
   2735           * @brief       This function parses the incoming Management
   2736           *              Routing response.
   2737           *
   2738           * @param       inMsg - incoming message
   2739           *
   2740           * @return      a pointer to parsed response structure (NULL if not allocated).  
   2741           *          This structure was allocated using osal_mem_alloc, so it must be freed
   2742           *          by the calling function [osal_mem_free()].
   2743           */

   \                                 In  segment BANKED_CODE, align 1, keep-with-next
   2744          ZDO_MgmtRtgRsp_t *ZDO_ParseMgmtRtgRsp( zdoIncomingMsg_t *inMsg )
   \                     ZDO_ParseMgmtRtgRsp:
   2745          {
   \   000000   74F2         MOV     A,#-0xe
   \   000002   12....       LCALL   ?BANKED_ENTER_XDATA
   \   000005                ; Saved register size: 14
   \   000005                ; Auto size: 0
   2746            ZDO_MgmtRtgRsp_t *pRsp;
   2747            uint8 status;
   2748            uint8 rtgCount = 0;
   \   000005   75..00       MOV     ?V0 + 4,#0x0
   2749            uint8 startIndex = 0;
   \   000008   75..00       MOV     ?V0 + 1,#0x0
   2750            uint8 rtgListCount = 0;
   \   00000B   75..00       MOV     ?V0 + 0,#0x0
   2751            uint8 *msg;
   2752            
   2753            msg = inMsg->asdu;
   \   00000E   EA           MOV     A,R2
   \   00000F   2413         ADD     A,#0x13
   \   000011   F582         MOV     DPL,A
   \   000013   EB           MOV     A,R3
   \   000014   3400         ADDC    A,#0x0
   \   000016   F583         MOV     DPH,A
   \   000018   E0           MOVX    A,@DPTR
   \   000019   FE           MOV     R6,A
   \   00001A   A3           INC     DPTR
   \   00001B   E0           MOVX    A,@DPTR
   \   00001C   FF           MOV     R7,A
   2754          
   2755            status = *msg++;
   \   00001D   8E82         MOV     DPL,R6
   \   00001F   8F83         MOV     DPH,R7
   \   000021   E0           MOVX    A,@DPTR
   \   000022   F5..         MOV     ?V0 + 5,A
   \   000024   A3           INC     DPTR
   \   000025   AE82         MOV     R6,DPL
   \   000027   AF83         MOV     R7,DPH
   2756            if ( status == ZSuccess )
   \   000029   7011         JNZ     ??ZDO_ParseMgmtRtgRsp_0
   2757            {
   2758              rtgCount = *msg++;
   \   00002B   E0           MOVX    A,@DPTR
   \   00002C   F5..         MOV     ?V0 + 4,A
   \   00002E   A3           INC     DPTR
   2759              startIndex = *msg++;
   \   00002F   E0           MOVX    A,@DPTR
   \   000030   F5..         MOV     ?V0 + 1,A
   \   000032   A3           INC     DPTR
   2760              rtgListCount = *msg++;
   \   000033   E0           MOVX    A,@DPTR
   \   000034   F5..         MOV     ?V0 + 0,A
   \   000036   A3           INC     DPTR
   \   000037   0E           INC     R6
   \   000038   0E           INC     R6
   \   000039   0E           INC     R6
   \   00003A   AF83         MOV     R7,DPH
   2761            }
   2762             
   2763            // Allocate a buffer big enough to handle the list
   2764            pRsp = (ZDO_MgmtRtgRsp_t *)osal_mem_alloc( 
   2765                    sizeof( ZDO_MgmtRtgRsp_t ) + (rtgListCount * sizeof( rtgItem_t )) );
   \                     ??ZDO_ParseMgmtRtgRsp_0:
   \   00003C                ; Setup parameters for call to function osal_mem_alloc
   \   00003C   E5..         MOV     A,?V0 + 0
   \   00003E   75F006       MOV     B,#0x6
   \   000041   A4           MUL     AB
   \   000042   2404         ADD     A,#0x4
   \   000044   FA           MOV     R2,A
   \   000045   E5F0         MOV     A,B
   \   000047   3400         ADDC    A,#0x0
   \   000049   FB           MOV     R3,A
   \   00004A   12....       LCALL   ??osal_mem_alloc?relay
   2766            if ( pRsp )
   \   00004D   EA           MOV     A,R2
   \   00004E   4B           ORL     A,R3
   \   00004F   7003         JNZ     $+5
   \   000051   02....       LJMP    ??ZDO_ParseMgmtRtgRsp_1 & 0xFFFF
   2767            {
   2768              uint8 x;
   2769              rtgItem_t *pList = pRsp->list;
   \   000054   EA           MOV     A,R2
   \   000055   2404         ADD     A,#0x4
   \   000057   F8           MOV     R0,A
   \   000058   EB           MOV     A,R3
   \   000059   3400         ADDC    A,#0x0
   \   00005B   F9           MOV     R1,A
   2770              pRsp->status = status;
   \   00005C   8A82         MOV     DPL,R2
   \   00005E   8B83         MOV     DPH,R3
   \   000060   E5..         MOV     A,?V0 + 5
   \   000062   F0           MOVX    @DPTR,A
   2771              pRsp->rtgCount = rtgCount;
   \   000063   A3           INC     DPTR
   \   000064   E5..         MOV     A,?V0 + 4
   \   000066   F0           MOVX    @DPTR,A
   2772              pRsp->startIndex = startIndex;
   \   000067   8A82         MOV     DPL,R2
   \   000069   8B83         MOV     DPH,R3
   \   00006B   A3           INC     DPTR
   \   00006C   A3           INC     DPTR
   \   00006D   E5..         MOV     A,?V0 + 1
   \   00006F   F0           MOVX    @DPTR,A
   2773              pRsp->rtgListCount = rtgListCount;
   \   000070   8A82         MOV     DPL,R2
   \   000072   8B83         MOV     DPH,R3
   \   000074   A3           INC     DPTR
   \   000075   A3           INC     DPTR
   \   000076   A3           INC     DPTR
   \   000077   E5..         MOV     A,?V0 + 0
   \   000079   F0           MOVX    @DPTR,A
   2774              
   2775              for ( x = 0; x < rtgListCount; x++ )
   \   00007A   7C00         MOV     R4,#0x0
   \   00007C   805D         SJMP    ??ZDO_ParseMgmtRtgRsp_2
   2776              {
   2777                pList->dstAddress = BUILD_UINT16( msg[0], msg[1] );
   \                     ??ZDO_ParseMgmtRtgRsp_3:
   \   00007E   8E82         MOV     DPL,R6
   \   000080   8F83         MOV     DPH,R7
   \   000082   E0           MOVX    A,@DPTR
   \   000083   F5..         MOV     ?V0 + 4,A
   \   000085   A3           INC     DPTR
   \   000086   E0           MOVX    A,@DPTR
   \   000087   F5..         MOV     ?V0 + 3,A
   \   000089   E5..         MOV     A,?V0 + 4
   \   00008B   8882         MOV     DPL,R0
   \   00008D   8983         MOV     DPH,R1
   \   00008F   F0           MOVX    @DPTR,A
   \   000090   A3           INC     DPTR
   \   000091   E5..         MOV     A,?V0 + 3
   \   000093   F0           MOVX    @DPTR,A
   2778                msg += 2;
   \   000094   EE           MOV     A,R6
   \   000095   2402         ADD     A,#0x2
   \   000097   0E           INC     R6
   \   000098   0E           INC     R6
   \   000099   EF           MOV     A,R7
   \   00009A   3400         ADDC    A,#0x0
   \   00009C   FF           MOV     R7,A
   2779                pList->status = *msg++;
   \   00009D   8E82         MOV     DPL,R6
   \   00009F   8F83         MOV     DPH,R7
   \   0000A1   E0           MOVX    A,@DPTR
   \   0000A2   8882         MOV     DPL,R0
   \   0000A4   8983         MOV     DPH,R1
   \   0000A6   A3           INC     DPTR
   \   0000A7   A3           INC     DPTR
   \   0000A8   A3           INC     DPTR
   \   0000A9   A3           INC     DPTR
   \   0000AA   A3           INC     DPTR
   \   0000AB   F0           MOVX    @DPTR,A
   \   0000AC   8E82         MOV     DPL,R6
   \   0000AE   8F83         MOV     DPH,R7
   \   0000B0   A3           INC     DPTR
   \   0000B1   AE82         MOV     R6,DPL
   \   0000B3   AF83         MOV     R7,DPH
   2780                pList->nextHopAddress = BUILD_UINT16( msg[0], msg[1] );
   \   0000B5   E0           MOVX    A,@DPTR
   \   0000B6   F5..         MOV     ?V0 + 4,A
   \   0000B8   A3           INC     DPTR
   \   0000B9   E0           MOVX    A,@DPTR
   \   0000BA   F5..         MOV     ?V0 + 3,A
   \   0000BC   E5..         MOV     A,?V0 + 4
   \   0000BE   8882         MOV     DPL,R0
   \   0000C0   8983         MOV     DPH,R1
   \   0000C2   A3           INC     DPTR
   \   0000C3   A3           INC     DPTR
   \   0000C4   F0           MOVX    @DPTR,A
   \   0000C5   A3           INC     DPTR
   \   0000C6   E5..         MOV     A,?V0 + 3
   \   0000C8   F0           MOVX    @DPTR,A
   2781                msg += 2;
   \   0000C9   EE           MOV     A,R6
   \   0000CA   2402         ADD     A,#0x2
   \   0000CC   0E           INC     R6
   \   0000CD   0E           INC     R6
   \   0000CE   EF           MOV     A,R7
   \   0000CF   3400         ADDC    A,#0x0
   \   0000D1   FF           MOV     R7,A
   2782                pList++;
   \   0000D2   E8           MOV     A,R0
   \   0000D3   2406         ADD     A,#0x6
   \   0000D5   F8           MOV     R0,A
   \   0000D6   E9           MOV     A,R1
   \   0000D7   3400         ADDC    A,#0x0
   \   0000D9   F9           MOV     R1,A
   2783              }
   \   0000DA   0C           INC     R4
   \                     ??ZDO_ParseMgmtRtgRsp_2:
   \   0000DB   EC           MOV     A,R4
   \   0000DC   C3           CLR     C
   \   0000DD   95..         SUBB    A,?V0 + 0
   \   0000DF   409D         JC      ??ZDO_ParseMgmtRtgRsp_3
   2784            }
   2785            
   2786            return ( pRsp );
   \                     ??ZDO_ParseMgmtRtgRsp_1:
   \   0000E1   7F06         MOV     R7,#0x6
   \   0000E3   02....       LJMP    ?BANKED_LEAVE_XDATA
   2787          }
   2788          
   2789          /*********************************************************************
   2790           * @fn          ZDO_ParseMgmtBindRsp
   2791           *
   2792           * @brief       This function parses the incoming Management
   2793           *              Binding response.
   2794           *
   2795           * @param       inMsg - pointer to message to parse
   2796           *
   2797           * @return      a pointer to parsed response structure (NULL if not allocated).  
   2798           *          This structure was allocated using osal_mem_alloc, so it must be freed
   2799           *          by the calling function [osal_mem_free()].
   2800           */

   \                                 In  segment BANKED_CODE, align 1, keep-with-next
   2801          ZDO_MgmtBindRsp_t *ZDO_ParseMgmtBindRsp( zdoIncomingMsg_t *inMsg )
   \                     ZDO_ParseMgmtBindRsp:
   2802          {
   \   000000   74F0         MOV     A,#-0x10
   \   000002   12....       LCALL   ?BANKED_ENTER_XDATA
   \   000005                ; Saved register size: 16
   \   000005                ; Auto size: 0
   2803            ZDO_MgmtBindRsp_t *pRsp;
   2804            uint8 status;
   2805            uint8 bindingCount = 0;
   \   000005   75..00       MOV     ?V0 + 4,#0x0
   2806            uint8 startIndex = 0;
   \   000008   75..00       MOV     ?V0 + 5,#0x0
   2807            uint8 bindingListCount = 0;
   \   00000B   75..00       MOV     ?V0 + 6,#0x0
   2808            uint8 *msg;
   2809            
   2810            msg = inMsg->asdu;
   \   00000E   EA           MOV     A,R2
   \   00000F   2413         ADD     A,#0x13
   \   000011   F582         MOV     DPL,A
   \   000013   EB           MOV     A,R3
   \   000014   3400         ADDC    A,#0x0
   \   000016   F583         MOV     DPH,A
   \   000018   E0           MOVX    A,@DPTR
   \   000019   FE           MOV     R6,A
   \   00001A   A3           INC     DPTR
   \   00001B   E0           MOVX    A,@DPTR
   \   00001C   FF           MOV     R7,A
   2811          
   2812            status = *msg++;
   \   00001D   8E82         MOV     DPL,R6
   \   00001F   8F83         MOV     DPH,R7
   \   000021   E0           MOVX    A,@DPTR
   \   000022   F5..         MOV     ?V0 + 7,A
   \   000024   A3           INC     DPTR
   \   000025   AE82         MOV     R6,DPL
   \   000027   AF83         MOV     R7,DPH
   2813            if ( status == ZSuccess )
   \   000029   7011         JNZ     ??ZDO_ParseMgmtBindRsp_0
   2814            {
   2815              bindingCount = *msg++;
   \   00002B   E0           MOVX    A,@DPTR
   \   00002C   F5..         MOV     ?V0 + 4,A
   \   00002E   A3           INC     DPTR
   2816              startIndex = *msg++;
   \   00002F   E0           MOVX    A,@DPTR
   \   000030   F5..         MOV     ?V0 + 5,A
   \   000032   A3           INC     DPTR
   2817              bindingListCount = *msg++;
   \   000033   E0           MOVX    A,@DPTR
   \   000034   F5..         MOV     ?V0 + 6,A
   \   000036   A3           INC     DPTR
   \   000037   0E           INC     R6
   \   000038   0E           INC     R6
   \   000039   0E           INC     R6
   \   00003A   AF83         MOV     R7,DPH
   2818            }
   2819          
   2820            // Allocate a buffer big enough to handle the list
   2821            pRsp = (ZDO_MgmtBindRsp_t *)osal_mem_alloc( 
   2822                    (sizeof ( ZDO_MgmtBindRsp_t ) + (bindingListCount * sizeof( apsBindingItem_t ))) );
   \                     ??ZDO_ParseMgmtBindRsp_0:
   \   00003C                ; Setup parameters for call to function osal_mem_alloc
   \   00003C   E5..         MOV     A,?V0 + 6
   \   00003E   75F015       MOV     B,#0x15
   \   000041   A4           MUL     AB
   \   000042   2404         ADD     A,#0x4
   \   000044   FA           MOV     R2,A
   \   000045   E5F0         MOV     A,B
   \   000047   3400         ADDC    A,#0x0
   \   000049   FB           MOV     R3,A
   \   00004A   12....       LCALL   ??osal_mem_alloc?relay
   \   00004D   8A..         MOV     ?V0 + 2,R2
   \   00004F   8B..         MOV     ?V0 + 3,R3
   2823            if ( pRsp )
   \   000051   EA           MOV     A,R2
   \   000052   45..         ORL     A,?V0 + 3
   \   000054   7003         JNZ     $+5
   \   000056   02....       LJMP    ??ZDO_ParseMgmtBindRsp_1 & 0xFFFF
   2824            {
   2825              uint8 x;
   2826              apsBindingItem_t *pList = pRsp->list;
   \   000059   EA           MOV     A,R2
   \   00005A   2404         ADD     A,#0x4
   \   00005C   F5..         MOV     ?V0 + 0,A
   \   00005E   EB           MOV     A,R3
   \   00005F   3400         ADDC    A,#0x0
   \   000061   F5..         MOV     ?V0 + 1,A
   2827              pRsp->status = status;
   \   000063   8A82         MOV     DPL,R2
   \   000065   8B83         MOV     DPH,R3
   \   000067   E5..         MOV     A,?V0 + 7
   \   000069   F0           MOVX    @DPTR,A
   2828              pRsp->bindingCount = bindingCount;
   \   00006A   A3           INC     DPTR
   \   00006B   E5..         MOV     A,?V0 + 4
   \   00006D   F0           MOVX    @DPTR,A
   2829              pRsp->startIndex = startIndex;
   \   00006E   8A82         MOV     DPL,R2
   \   000070   8B83         MOV     DPH,R3
   \   000072   A3           INC     DPTR
   \   000073   A3           INC     DPTR
   \   000074   E5..         MOV     A,?V0 + 5
   \   000076   F0           MOVX    @DPTR,A
   2830              pRsp->bindingListCount = bindingListCount;
   \   000077   8A82         MOV     DPL,R2
   \   000079   8B83         MOV     DPH,R3
   \   00007B   A3           INC     DPTR
   \   00007C   A3           INC     DPTR
   \   00007D   A3           INC     DPTR
   \   00007E   E5..         MOV     A,?V0 + 6
   \   000080   F0           MOVX    @DPTR,A
   2831              
   2832              for ( x = 0; x < bindingListCount; x++ )
   \   000081   75..00       MOV     ?V0 + 4,#0x0
   \   000084   8029         SJMP    ??ZDO_ParseMgmtBindRsp_2
   2833              {
   2834                osal_cpyExtAddr( pList->srcAddr, msg );
   2835                msg += Z_EXTADDR_LEN;
   2836                pList->srcEP = *msg++;
   2837          
   2838                // Get the Cluster ID
   2839          
   2840                pList->clusterID = BUILD_UINT16( msg[0], msg[1] );
   2841                msg += 2;
   2842                pList->dstAddr.addrMode = *msg++;
   2843                if ( pList->dstAddr.addrMode == Addr64Bit )
   2844                {
   2845                  osal_cpyExtAddr( pList->dstAddr.addr.extAddr, msg );
   2846                  msg += Z_EXTADDR_LEN;
   2847                  pList->dstEP = *msg++;
   2848                }
   2849                else
   2850                {
   2851                  pList->dstAddr.addr.shortAddr = BUILD_UINT16( msg[0], msg[1] );
   \                     ??ZDO_ParseMgmtBindRsp_3:
   \   000086   8E82         MOV     DPL,R6
   \   000088   8F83         MOV     DPH,R7
   \   00008A   E0           MOVX    A,@DPTR
   \   00008B   FC           MOV     R4,A
   \   00008C   A3           INC     DPTR
   \   00008D   E0           MOVX    A,@DPTR
   \   00008E   F9           MOV     R1,A
   \   00008F   EC           MOV     A,R4
   \   000090   8A82         MOV     DPL,R2
   \   000092   8B83         MOV     DPH,R3
   \   000094   F0           MOVX    @DPTR,A
   \   000095   A3           INC     DPTR
   \   000096   E9           MOV     A,R1
   \   000097   F0           MOVX    @DPTR,A
   2852                  msg += 2;
   \   000098   EE           MOV     A,R6
   \   000099   2402         ADD     A,#0x2
   \   00009B   0E           INC     R6
   \   00009C   0E           INC     R6
   \   00009D   EF           MOV     A,R7
   \   00009E   3400         ADDC    A,#0x0
   \   0000A0   FF           MOV     R7,A
   2853                }
   2854                   
   2855                pList++;
   \                     ??ZDO_ParseMgmtBindRsp_4:
   \   0000A1   E5..         MOV     A,?V0 + 0
   \   0000A3   2415         ADD     A,#0x15
   \   0000A5   F5..         MOV     ?V0 + 0,A
   \   0000A7   E5..         MOV     A,?V0 + 1
   \   0000A9   3400         ADDC    A,#0x0
   \   0000AB   F5..         MOV     ?V0 + 1,A
   \   0000AD   05..         INC     ?V0 + 4
   \                     ??ZDO_ParseMgmtBindRsp_2:
   \   0000AF   E5..         MOV     A,?V0 + 4
   \   0000B1   C3           CLR     C
   \   0000B2   95..         SUBB    A,?V0 + 6
   \   0000B4   4003         JC      $+5
   \   0000B6   02....       LJMP    ??ZDO_ParseMgmtBindRsp_1 & 0xFFFF
   \   0000B9                ; Setup parameters for call to function sAddrExtCpy
   \   0000B9   EE           MOV     A,R6
   \   0000BA   FC           MOV     R4,A
   \   0000BB   EF           MOV     A,R7
   \   0000BC   FD           MOV     R5,A
   \   0000BD   AA..         MOV     R2,?V0 + 0
   \   0000BF   AB..         MOV     R3,?V0 + 1
   \   0000C1   12....       LCALL   ??sAddrExtCpy?relay
   \   0000C4   EE           MOV     A,R6
   \   0000C5   2408         ADD     A,#0x8
   \   0000C7   FE           MOV     R6,A
   \   0000C8   EF           MOV     A,R7
   \   0000C9   3400         ADDC    A,#0x0
   \   0000CB   FF           MOV     R7,A
   \   0000CC   8E82         MOV     DPL,R6
   \   0000CE   8F83         MOV     DPH,R7
   \   0000D0   E0           MOVX    A,@DPTR
   \   0000D1   85..82       MOV     DPL,?V0 + 0
   \   0000D4   85..83       MOV     DPH,?V0 + 1
   \   0000D7   A3           INC     DPTR
   \   0000D8   A3           INC     DPTR
   \   0000D9   A3           INC     DPTR
   \   0000DA   A3           INC     DPTR
   \   0000DB   A3           INC     DPTR
   \   0000DC   A3           INC     DPTR
   \   0000DD   A3           INC     DPTR
   \   0000DE   A3           INC     DPTR
   \   0000DF   F0           MOVX    @DPTR,A
   \   0000E0   8E82         MOV     DPL,R6
   \   0000E2   8F83         MOV     DPH,R7
   \   0000E4   A3           INC     DPTR
   \   0000E5   AE82         MOV     R6,DPL
   \   0000E7   AF83         MOV     R7,DPH
   \   0000E9   E0           MOVX    A,@DPTR
   \   0000EA   FA           MOV     R2,A
   \   0000EB   A3           INC     DPTR
   \   0000EC   E0           MOVX    A,@DPTR
   \   0000ED   F9           MOV     R1,A
   \   0000EE   EA           MOV     A,R2
   \   0000EF   85..82       MOV     DPL,?V0 + 0
   \   0000F2   85..83       MOV     DPH,?V0 + 1
   \   0000F5   A3           INC     DPTR
   \   0000F6   A3           INC     DPTR
   \   0000F7   A3           INC     DPTR
   \   0000F8   A3           INC     DPTR
   \   0000F9   A3           INC     DPTR
   \   0000FA   A3           INC     DPTR
   \   0000FB   A3           INC     DPTR
   \   0000FC   A3           INC     DPTR
   \   0000FD   A3           INC     DPTR
   \   0000FE   F0           MOVX    @DPTR,A
   \   0000FF   A3           INC     DPTR
   \   000100   E9           MOV     A,R1
   \   000101   F0           MOVX    @DPTR,A
   \   000102   EE           MOV     A,R6
   \   000103   2402         ADD     A,#0x2
   \   000105   0E           INC     R6
   \   000106   0E           INC     R6
   \   000107   EF           MOV     A,R7
   \   000108   3400         ADDC    A,#0x0
   \   00010A   FF           MOV     R7,A
   \   00010B   E5..         MOV     A,?V0 + 0
   \   00010D   2413         ADD     A,#0x13
   \   00010F   F8           MOV     R0,A
   \   000110   E5..         MOV     A,?V0 + 1
   \   000112   3400         ADDC    A,#0x0
   \   000114   F9           MOV     R1,A
   \   000115   8E82         MOV     DPL,R6
   \   000117   8F83         MOV     DPH,R7
   \   000119   E0           MOVX    A,@DPTR
   \   00011A   8882         MOV     DPL,R0
   \   00011C   8983         MOV     DPH,R1
   \   00011E   F0           MOVX    @DPTR,A
   \   00011F   8E82         MOV     DPL,R6
   \   000121   8F83         MOV     DPH,R7
   \   000123   A3           INC     DPTR
   \   000124   0E           INC     R6
   \   000125   AF83         MOV     R7,DPH
   \   000127   E5..         MOV     A,?V0 + 0
   \   000129   240B         ADD     A,#0xb
   \   00012B   FA           MOV     R2,A
   \   00012C   E5..         MOV     A,?V0 + 1
   \   00012E   3400         ADDC    A,#0x0
   \   000130   FB           MOV     R3,A
   \   000131   8882         MOV     DPL,R0
   \   000133   8983         MOV     DPH,R1
   \   000135   E0           MOVX    A,@DPTR
   \   000136   6403         XRL     A,#0x3
   \   000138   6003         JZ      $+5
   \   00013A   02....       LJMP    ??ZDO_ParseMgmtBindRsp_3 & 0xFFFF
   \   00013D                ; Setup parameters for call to function sAddrExtCpy
   \   00013D   EE           MOV     A,R6
   \   00013E   FC           MOV     R4,A
   \   00013F   EF           MOV     A,R7
   \   000140   FD           MOV     R5,A
   \   000141   12....       LCALL   ??sAddrExtCpy?relay
   \   000144   EE           MOV     A,R6
   \   000145   2408         ADD     A,#0x8
   \   000147   FE           MOV     R6,A
   \   000148   EF           MOV     A,R7
   \   000149   3400         ADDC    A,#0x0
   \   00014B   FF           MOV     R7,A
   \   00014C   8E82         MOV     DPL,R6
   \   00014E   8F83         MOV     DPH,R7
   \   000150   E0           MOVX    A,@DPTR
   \   000151   C0E0         PUSH    A
   \   000153   E5..         MOV     A,?V0 + 0
   \   000155   2414         ADD     A,#0x14
   \   000157   F582         MOV     DPL,A
   \   000159   E5..         MOV     A,?V0 + 1
   \   00015B   3400         ADDC    A,#0x0
   \   00015D   F583         MOV     DPH,A
   \   00015F   D0E0         POP     A
   \   000161   F0           MOVX    @DPTR,A
   \   000162   8E82         MOV     DPL,R6
   \   000164   8F83         MOV     DPH,R7
   \   000166   A3           INC     DPTR
   \   000167   0E           INC     R6
   \   000168   AF83         MOV     R7,DPH
   \   00016A   02....       LJMP    ??ZDO_ParseMgmtBindRsp_4 & 0xFFFF
   2856              }
   2857            }
   2858            
   2859            return ( pRsp );
   \                     ??ZDO_ParseMgmtBindRsp_1:
   \   00016D   AA..         MOV     R2,?V0 + 2
   \   00016F   AB..         MOV     R3,?V0 + 3
   \   000171   7F08         MOV     R7,#0x8
   \   000173   02....       LJMP    ?BANKED_LEAVE_XDATA
   2860          }
   2861          
   2862          /*********************************************************************
   2863           * @fn          ZDO_ParseUserDescRsp
   2864           *
   2865           * @brief       This function parses the incoming User
   2866           *              Descriptor Response.
   2867           *
   2868           * @param       inMsg - incoming response message
   2869           *
   2870           * @return      a pointer to parsed response structure (NULL if not allocated).  
   2871           *          This structure was allocated using osal_mem_alloc, so it must be freed
   2872           *          by the calling function [osal_mem_free()].
   2873           */

   \                                 In  segment BANKED_CODE, align 1, keep-with-next
   2874          ZDO_UserDescRsp_t *ZDO_ParseUserDescRsp( zdoIncomingMsg_t *inMsg )
   \                     ZDO_ParseUserDescRsp:
   2875          {
   \   000000   74F0         MOV     A,#-0x10
   \   000002   12....       LCALL   ?BANKED_ENTER_XDATA
   \   000005                ; Saved register size: 16
   \   000005                ; Auto size: 0
   2876            ZDO_UserDescRsp_t *pRsp;
   2877            uint8 *msg;
   2878            uint8 descLen = 0;
   \   000005   75..00       MOV     ?V0 + 2,#0x0
   2879            
   2880            msg = inMsg->asdu;
   \   000008   EA           MOV     A,R2
   \   000009   2413         ADD     A,#0x13
   \   00000B   F582         MOV     DPL,A
   \   00000D   EB           MOV     A,R3
   \   00000E   3400         ADDC    A,#0x0
   \   000010   F583         MOV     DPH,A
   \   000012   E0           MOVX    A,@DPTR
   \   000013   F5..         MOV     ?V0 + 0,A
   \   000015   A3           INC     DPTR
   \   000016   E0           MOVX    A,@DPTR
   \   000017   F5..         MOV     ?V0 + 1,A
   2881            
   2882            if ( msg[0] == ZSuccess )
   \   000019   85..82       MOV     DPL,?V0 + 0
   \   00001C   F583         MOV     DPH,A
   \   00001E   E0           MOVX    A,@DPTR
   \   00001F   7006         JNZ     ??ZDO_ParseUserDescRsp_0
   2883              descLen = msg[3];
   \   000021   A3           INC     DPTR
   \   000022   A3           INC     DPTR
   \   000023   A3           INC     DPTR
   \   000024   E0           MOVX    A,@DPTR
   \   000025   F5..         MOV     ?V0 + 2,A
   2884            
   2885            pRsp = (ZDO_UserDescRsp_t *)osal_mem_alloc( sizeof ( ZDO_UserDescRsp_t ) + descLen );
   \                     ??ZDO_ParseUserDescRsp_0:
   \   000027   85..82       MOV     DPL,?V0 + 2
   \   00002A   AE82         MOV     R6,DPL
   \   00002C                ; Setup parameters for call to function osal_mem_alloc
   \   00002C   EE           MOV     A,R6
   \   00002D   2404         ADD     A,#0x4
   \   00002F   FA           MOV     R2,A
   \   000030   E4           CLR     A
   \   000031   3400         ADDC    A,#0x0
   \   000033   FB           MOV     R3,A
   \   000034   12....       LCALL   ??osal_mem_alloc?relay
   \   000037   8A..         MOV     ?V0 + 6,R2
   \   000039   8B..         MOV     ?V0 + 7,R3
   2886            if ( pRsp )
   \   00003B   EA           MOV     A,R2
   \   00003C   45..         ORL     A,?V0 + 7
   \   00003E   6061         JZ      ??ZDO_ParseUserDescRsp_1
   2887            {
   2888              pRsp->status = msg[0];
   \   000040   85..82       MOV     DPL,?V0 + 0
   \   000043   85..83       MOV     DPH,?V0 + 1
   \   000046   E0           MOVX    A,@DPTR
   \   000047   8A82         MOV     DPL,R2
   \   000049   8B83         MOV     DPH,R3
   \   00004B   F0           MOVX    @DPTR,A
   2889              pRsp->nwkAddr = BUILD_UINT16( msg[1], msg[2] );
   \   00004C   85..82       MOV     DPL,?V0 + 0
   \   00004F   85..83       MOV     DPH,?V0 + 1
   \   000052   A3           INC     DPTR
   \   000053   E0           MOVX    A,@DPTR
   \   000054   FA           MOV     R2,A
   \   000055   85..82       MOV     DPL,?V0 + 0
   \   000058   85..83       MOV     DPH,?V0 + 1
   \   00005B   A3           INC     DPTR
   \   00005C   A3           INC     DPTR
   \   00005D   E0           MOVX    A,@DPTR
   \   00005E   F8           MOV     R0,A
   \   00005F   E4           CLR     A
   \   000060   C8           XCH     A,R0
   \   000061   F9           MOV     R1,A
   \   000062   EA           MOV     A,R2
   \   000063   85..82       MOV     DPL,?V0 + 6
   \   000066   8B83         MOV     DPH,R3
   \   000068   A3           INC     DPTR
   \   000069   F0           MOVX    @DPTR,A
   \   00006A   A3           INC     DPTR
   \   00006B   E9           MOV     A,R1
   \   00006C   F0           MOVX    @DPTR,A
   2890              pRsp->length = descLen;
   \   00006D   85..82       MOV     DPL,?V0 + 6
   \   000070   8B83         MOV     DPH,R3
   \   000072   A3           INC     DPTR
   \   000073   A3           INC     DPTR
   \   000074   A3           INC     DPTR
   \   000075   EE           MOV     A,R6
   \   000076   F0           MOVX    @DPTR,A
   2891              if ( descLen )
   \   000077   6028         JZ      ??ZDO_ParseUserDescRsp_1
   2892                osal_memcpy( pRsp->desc, &msg[4], descLen );
   \   000079                ; Setup parameters for call to function osal_memcpy
   \   000079   E5..         MOV     A,?V0 + 0
   \   00007B   2404         ADD     A,#0x4
   \   00007D   F5..         MOV     ?V0 + 0,A
   \   00007F   E5..         MOV     A,?V0 + 1
   \   000081   3400         ADDC    A,#0x0
   \   000083   F5..         MOV     ?V0 + 1,A
   \   000085   88..         MOV     ?V0 + 2,R0
   \   000087   78..         MOV     R0,#?V0 + 0
   \   000089   12....       LCALL   ?PUSH_XSTACK_I_THREE
   \   00008C   EE           MOV     A,R6
   \   00008D   FC           MOV     R4,A
   \   00008E   7D00         MOV     R5,#0x0
   \   000090   E5..         MOV     A,?V0 + 6
   \   000092   2404         ADD     A,#0x4
   \   000094   FA           MOV     R2,A
   \   000095   EB           MOV     A,R3
   \   000096   3400         ADDC    A,#0x0
   \   000098   FB           MOV     R3,A
   \   000099   12....       LCALL   ??osal_memcpy?relay
   \   00009C   7403         MOV     A,#0x3
   \   00009E   12....       LCALL   ?DEALLOC_XSTACK8
   2893            }
   2894            
   2895            return ( pRsp );
   \                     ??ZDO_ParseUserDescRsp_1:
   \   0000A1   AA..         MOV     R2,?V0 + 6
   \   0000A3   AB..         MOV     R3,?V0 + 7
   \   0000A5   7F08         MOV     R7,#0x8
   \   0000A7   02....       LJMP    ?BANKED_LEAVE_XDATA
   2896          }
   2897          
   2898          /*********************************************************************
   2899           * @fn          ZDO_ParseSimpleDescBuf
   2900           *
   2901           * @brief       Parse a byte sequence representation of a Simple Descriptor.
   2902           *
   2903           * @param       buf  - pointer to a byte array representing a Simple Desc.
   2904           * @param       desc - SimpleDescriptionFormat_t *
   2905           *
   2906           *              This routine allocates storage for the cluster IDs because
   2907           *              they are 16-bit and need to be aligned to be properly processed.
   2908           *              This routine returns non-zero if an allocation fails.
   2909           *
   2910           *              NOTE: This means that the caller or user of the input structure
   2911           *                    is responsible for freeing the memory
   2912           *
   2913           * @return      0: success
   2914           *              1: failure due to malloc failure.
   2915           */

   \                                 In  segment BANKED_CODE, align 1, keep-with-next
   2916          uint8 ZDO_ParseSimpleDescBuf( uint8 *buf, SimpleDescriptionFormat_t *desc )
   \                     ZDO_ParseSimpleDescBuf:
   2917          {
   \   000000   74F3         MOV     A,#-0xd
   \   000002   12....       LCALL   ?BANKED_ENTER_XDATA
   \   000005                ; Saved register size: 13
   \   000005                ; Auto size: 0
   \   000005   EA           MOV     A,R2
   \   000006   FE           MOV     R6,A
   \   000007   EB           MOV     A,R3
   \   000008   FF           MOV     R7,A
   \   000009   8C..         MOV     ?V0 + 0,R4
   \   00000B   8D..         MOV     ?V0 + 1,R5
   2918            uint8 num, i;
   2919          
   2920            desc->EndPoint = *buf++;
   \   00000D   8E82         MOV     DPL,R6
   \   00000F   8F83         MOV     DPH,R7
   \   000011   E0           MOVX    A,@DPTR
   \   000012   8C82         MOV     DPL,R4
   \   000014   8D83         MOV     DPH,R5
   \   000016   F0           MOVX    @DPTR,A
   \   000017   8E82         MOV     DPL,R6
   \   000019   8F83         MOV     DPH,R7
   \   00001B   A3           INC     DPTR
   \   00001C   AE82         MOV     R6,DPL
   \   00001E   AF83         MOV     R7,DPH
   2921            desc->AppProfId = BUILD_UINT16( buf[0], buf[1] );
   \   000020   E0           MOVX    A,@DPTR
   \   000021   FA           MOV     R2,A
   \   000022   A3           INC     DPTR
   \   000023   E0           MOVX    A,@DPTR
   \   000024   F9           MOV     R1,A
   \   000025   EA           MOV     A,R2
   \   000026   8C82         MOV     DPL,R4
   \   000028   8D83         MOV     DPH,R5
   \   00002A   A3           INC     DPTR
   \   00002B   F0           MOVX    @DPTR,A
   \   00002C   A3           INC     DPTR
   \   00002D   E9           MOV     A,R1
   \   00002E   F0           MOVX    @DPTR,A
   2922            buf += 2;
   \   00002F   EE           MOV     A,R6
   \   000030   2402         ADD     A,#0x2
   \   000032   0E           INC     R6
   \   000033   0E           INC     R6
   \   000034   EF           MOV     A,R7
   \   000035   3400         ADDC    A,#0x0
   \   000037   FF           MOV     R7,A
   2923            desc->AppDeviceId = BUILD_UINT16( buf[0], buf[1] );
   \   000038   8E82         MOV     DPL,R6
   \   00003A   8F83         MOV     DPH,R7
   \   00003C   E0           MOVX    A,@DPTR
   \   00003D   FA           MOV     R2,A
   \   00003E   A3           INC     DPTR
   \   00003F   E0           MOVX    A,@DPTR
   \   000040   F9           MOV     R1,A
   \   000041   EA           MOV     A,R2
   \   000042   8C82         MOV     DPL,R4
   \   000044   8D83         MOV     DPH,R5
   \   000046   A3           INC     DPTR
   \   000047   A3           INC     DPTR
   \   000048   A3           INC     DPTR
   \   000049   F0           MOVX    @DPTR,A
   \   00004A   A3           INC     DPTR
   \   00004B   E9           MOV     A,R1
   \   00004C   F0           MOVX    @DPTR,A
   2924            buf += 2;
   \   00004D   EE           MOV     A,R6
   \   00004E   2402         ADD     A,#0x2
   \   000050   0E           INC     R6
   \   000051   0E           INC     R6
   \   000052   EF           MOV     A,R7
   \   000053   3400         ADDC    A,#0x0
   \   000055   FF           MOV     R7,A
   2925            desc->AppDevVer = *buf >> 4;
   \   000056   EC           MOV     A,R4
   \   000057   2405         ADD     A,#0x5
   \   000059   F8           MOV     R0,A
   \   00005A   ED           MOV     A,R5
   \   00005B   3400         ADDC    A,#0x0
   \   00005D   F9           MOV     R1,A
   \   00005E   8E82         MOV     DPL,R6
   \   000060   8F83         MOV     DPH,R7
   \   000062   E0           MOVX    A,@DPTR
   \   000063   C4           SWAP    A
   \   000064   540F         ANL     A,#0xf
   \   000066   FA           MOV     R2,A
   \   000067   8882         MOV     DPL,R0
   \   000069   8983         MOV     DPH,R1
   \   00006B   E0           MOVX    A,@DPTR
   \   00006C   54F0         ANL     A,#0xf0
   \   00006E   4A           ORL     A,R2
   \   00006F   F0           MOVX    @DPTR,A
   2926          
   2927            desc->Reserved = 0;
   \   000070   E0           MOVX    A,@DPTR
   \   000071   540F         ANL     A,#0xf
   \   000073   F0           MOVX    @DPTR,A
   2928            buf++;
   \   000074   8E82         MOV     DPL,R6
   \   000076   8F83         MOV     DPH,R7
   \   000078   A3           INC     DPTR
   2929          
   2930            // move in input cluster list (if any). allocate aligned memory.
   2931            num = desc->AppNumInClusters = *buf++;
   \   000079   E0           MOVX    A,@DPTR
   \   00007A   F8           MOV     R0,A
   \   00007B   A3           INC     DPTR
   \   00007C   0E           INC     R6
   \   00007D   0E           INC     R6
   \   00007E   AF83         MOV     R7,DPH
   \   000080   8C82         MOV     DPL,R4
   \   000082   8D83         MOV     DPH,R5
   \   000084   A3           INC     DPTR
   \   000085   A3           INC     DPTR
   \   000086   A3           INC     DPTR
   \   000087   A3           INC     DPTR
   \   000088   A3           INC     DPTR
   \   000089   A3           INC     DPTR
   \   00008A   F0           MOVX    @DPTR,A
   \   00008B   88..         MOV     ?V0 + 4,R0
   2932            if ( num )  
   \   00008D   6071         JZ      ??ZDO_ParseSimpleDescBuf_0
   2933            {
   2934              if (!(desc->pAppInClusterList = (uint16 *)osal_mem_alloc(num*sizeof(uint16))))  
   \   00008F   EC           MOV     A,R4
   \   000090   2407         ADD     A,#0x7
   \   000092   F5..         MOV     ?V0 + 2,A
   \   000094   ED           MOV     A,R5
   \   000095   3400         ADDC    A,#0x0
   \   000097   F5..         MOV     ?V0 + 3,A
   \   000099                ; Setup parameters for call to function osal_mem_alloc
   \   000099   E8           MOV     A,R0
   \   00009A   C3           CLR     C
   \   00009B   33           RLC     A
   \   00009C   FA           MOV     R2,A
   \   00009D   E4           CLR     A
   \   00009E   33           RLC     A
   \   00009F   FB           MOV     R3,A
   \   0000A0   12....       LCALL   ??osal_mem_alloc?relay
   \   0000A3   85..82       MOV     DPL,?V0 + 2
   \   0000A6   85..83       MOV     DPH,?V0 + 3
   \   0000A9   EA           MOV     A,R2
   \   0000AA   F0           MOVX    @DPTR,A
   \   0000AB   A3           INC     DPTR
   \   0000AC   EB           MOV     A,R3
   \   0000AD   F0           MOVX    @DPTR,A
   \   0000AE   85..82       MOV     DPL,?V0 + 2
   \   0000B1   85..83       MOV     DPH,?V0 + 3
   \   0000B4   E0           MOVX    A,@DPTR
   \   0000B5   F8           MOV     R0,A
   \   0000B6   A3           INC     DPTR
   \   0000B7   E0           MOVX    A,@DPTR
   \   0000B8   F9           MOV     R1,A
   \   0000B9   E8           MOV     A,R0
   \   0000BA   49           ORL     A,R1
   \   0000BB   7005         JNZ     ??ZDO_ParseSimpleDescBuf_1
   2935              {
   2936                // malloc failed. we're done.
   2937                return 1;
   \                     ??ZDO_ParseSimpleDescBuf_2:
   \   0000BD   7901         MOV     R1,#0x1
   \   0000BF   02....       LJMP    ??ZDO_ParseSimpleDescBuf_3 & 0xFFFF
   2938              }
   2939              for (i=0; i<num; ++i)  
   \                     ??ZDO_ParseSimpleDescBuf_1:
   \   0000C2   7A00         MOV     R2,#0x0
   \   0000C4   8034         SJMP    ??ZDO_ParseSimpleDescBuf_4
   2940              {
   2941                desc->pAppInClusterList[i] = BUILD_UINT16( buf[0], buf[1] );
   \                     ??ZDO_ParseSimpleDescBuf_5:
   \   0000C6   8E82         MOV     DPL,R6
   \   0000C8   8F83         MOV     DPH,R7
   \   0000CA   E0           MOVX    A,@DPTR
   \   0000CB   FC           MOV     R4,A
   \   0000CC   A3           INC     DPTR
   \   0000CD   E0           MOVX    A,@DPTR
   \   0000CE   F9           MOV     R1,A
   \   0000CF   EC           MOV     A,R4
   \   0000D0   2400         ADD     A,#0x0
   \   0000D2   E4           CLR     A
   \   0000D3   39           ADDC    A,R1
   \   0000D4   FD           MOV     R5,A
   \   0000D5   EA           MOV     A,R2
   \   0000D6   33           RLC     A
   \   0000D7   F8           MOV     R0,A
   \   0000D8   E4           CLR     A
   \   0000D9   33           RLC     A
   \   0000DA   F9           MOV     R1,A
   \   0000DB   85..82       MOV     DPL,?V0 + 2
   \   0000DE   85..83       MOV     DPH,?V0 + 3
   \   0000E1   E0           MOVX    A,@DPTR
   \   0000E2   28           ADD     A,R0
   \   0000E3   FB           MOV     R3,A
   \   0000E4   A3           INC     DPTR
   \   0000E5   E0           MOVX    A,@DPTR
   \   0000E6   39           ADDC    A,R1
   \   0000E7   8B82         MOV     DPL,R3
   \   0000E9   F583         MOV     DPH,A
   \   0000EB   EC           MOV     A,R4
   \   0000EC   F0           MOVX    @DPTR,A
   \   0000ED   A3           INC     DPTR
   \   0000EE   ED           MOV     A,R5
   \   0000EF   F0           MOVX    @DPTR,A
   2942                buf += 2;
   \   0000F0   EE           MOV     A,R6
   \   0000F1   2402         ADD     A,#0x2
   \   0000F3   0E           INC     R6
   \   0000F4   0E           INC     R6
   \   0000F5   EF           MOV     A,R7
   \   0000F6   3400         ADDC    A,#0x0
   \   0000F8   FF           MOV     R7,A
   2943              }
   \   0000F9   0A           INC     R2
   \                     ??ZDO_ParseSimpleDescBuf_4:
   \   0000FA   EA           MOV     A,R2
   \   0000FB   C3           CLR     C
   \   0000FC   95..         SUBB    A,?V0 + 4
   \   0000FE   40C6         JC      ??ZDO_ParseSimpleDescBuf_5
   2944            }
   2945          
   2946            // move in output cluster list (if any). allocate aligned memory.
   2947            num = desc->AppNumOutClusters = *buf++;
   \                     ??ZDO_ParseSimpleDescBuf_0:
   \   000100   8E82         MOV     DPL,R6
   \   000102   8F83         MOV     DPH,R7
   \   000104   E0           MOVX    A,@DPTR
   \   000105   F8           MOV     R0,A
   \   000106   A3           INC     DPTR
   \   000107   AE82         MOV     R6,DPL
   \   000109   AF83         MOV     R7,DPH
   \   00010B   85..82       MOV     DPL,?V0 + 0
   \   00010E   85..83       MOV     DPH,?V0 + 1
   \   000111   A3           INC     DPTR
   \   000112   A3           INC     DPTR
   \   000113   A3           INC     DPTR
   \   000114   A3           INC     DPTR
   \   000115   A3           INC     DPTR
   \   000116   A3           INC     DPTR
   \   000117   A3           INC     DPTR
   \   000118   A3           INC     DPTR
   \   000119   A3           INC     DPTR
   \   00011A   F0           MOVX    @DPTR,A
   \   00011B   88..         MOV     ?V0 + 4,R0
   2948            if (num)  
   \   00011D   7003         JNZ     $+5
   \   00011F   02....       LJMP    ??ZDO_ParseSimpleDescBuf_6 & 0xFFFF
   2949            {
   2950              if (!(desc->pAppOutClusterList = (uint16 *)osal_mem_alloc(num*sizeof(uint16))))  
   \   000122   E5..         MOV     A,?V0 + 0
   \   000124   240A         ADD     A,#0xa
   \   000126   F5..         MOV     ?V0 + 2,A
   \   000128   E5..         MOV     A,?V0 + 1
   \   00012A   3400         ADDC    A,#0x0
   \   00012C   F5..         MOV     ?V0 + 3,A
   \   00012E                ; Setup parameters for call to function osal_mem_alloc
   \   00012E   E8           MOV     A,R0
   \   00012F   C3           CLR     C
   \   000130   33           RLC     A
   \   000131   FA           MOV     R2,A
   \   000132   E4           CLR     A
   \   000133   33           RLC     A
   \   000134   FB           MOV     R3,A
   \   000135   12....       LCALL   ??osal_mem_alloc?relay
   \   000138   85..82       MOV     DPL,?V0 + 2
   \   00013B   85..83       MOV     DPH,?V0 + 3
   \   00013E   EA           MOV     A,R2
   \   00013F   F0           MOVX    @DPTR,A
   \   000140   A3           INC     DPTR
   \   000141   EB           MOV     A,R3
   \   000142   F0           MOVX    @DPTR,A
   \   000143   85..82       MOV     DPL,?V0 + 2
   \   000146   85..83       MOV     DPH,?V0 + 3
   \   000149   E0           MOVX    A,@DPTR
   \   00014A   F8           MOV     R0,A
   \   00014B   A3           INC     DPTR
   \   00014C   E0           MOVX    A,@DPTR
   \   00014D   F9           MOV     R1,A
   \   00014E   E8           MOV     A,R0
   \   00014F   49           ORL     A,R1
   \   000150   702E         JNZ     ??ZDO_ParseSimpleDescBuf_7
   2951              {
   2952                // malloc failed. free input cluster list memory if there is any
   2953                if ( desc->pAppInClusterList != NULL )  
   \   000152   E5..         MOV     A,?V0 + 0
   \   000154   2407         ADD     A,#0x7
   \   000156   F5..         MOV     ?V0 + 2,A
   \   000158   E5..         MOV     A,?V0 + 1
   \   00015A   3400         ADDC    A,#0x0
   \   00015C   F5..         MOV     ?V0 + 3,A
   \   00015E   85..82       MOV     DPL,?V0 + 2
   \   000161   F583         MOV     DPH,A
   \   000163   E0           MOVX    A,@DPTR
   \   000164   F8           MOV     R0,A
   \   000165   A3           INC     DPTR
   \   000166   E0           MOVX    A,@DPTR
   \   000167   F9           MOV     R1,A
   \   000168   E8           MOV     A,R0
   \   000169   49           ORL     A,R1
   \   00016A   7003         JNZ     $+5
   \   00016C   02....       LJMP    ??ZDO_ParseSimpleDescBuf_2 & 0xFFFF
   2954                {
   2955                  osal_mem_free(desc->pAppInClusterList);
   \   00016F                ; Setup parameters for call to function osal_mem_free
   \   00016F   85..82       MOV     DPL,?V0 + 2
   \   000172   85..83       MOV     DPH,?V0 + 3
   \   000175   E0           MOVX    A,@DPTR
   \   000176   FA           MOV     R2,A
   \   000177   A3           INC     DPTR
   \   000178   E0           MOVX    A,@DPTR
   \   000179   FB           MOV     R3,A
   \   00017A   12....       LCALL   ??osal_mem_free?relay
   \   00017D   02....       LJMP    ??ZDO_ParseSimpleDescBuf_2 & 0xFFFF
   2956                }
   2957                return 1;
   2958              }
   2959              for (i=0; i<num; ++i)  
   \                     ??ZDO_ParseSimpleDescBuf_7:
   \   000180   7A00         MOV     R2,#0x0
   \   000182   8034         SJMP    ??ZDO_ParseSimpleDescBuf_8
   2960              {
   2961                desc->pAppOutClusterList[i] = BUILD_UINT16( buf[0], buf[1] );
   \                     ??ZDO_ParseSimpleDescBuf_9:
   \   000184   8E82         MOV     DPL,R6
   \   000186   8F83         MOV     DPH,R7
   \   000188   E0           MOVX    A,@DPTR
   \   000189   FC           MOV     R4,A
   \   00018A   A3           INC     DPTR
   \   00018B   E0           MOVX    A,@DPTR
   \   00018C   F9           MOV     R1,A
   \   00018D   EC           MOV     A,R4
   \   00018E   2400         ADD     A,#0x0
   \   000190   E4           CLR     A
   \   000191   39           ADDC    A,R1
   \   000192   FD           MOV     R5,A
   \   000193   EA           MOV     A,R2
   \   000194   33           RLC     A
   \   000195   F8           MOV     R0,A
   \   000196   E4           CLR     A
   \   000197   33           RLC     A
   \   000198   F9           MOV     R1,A
   \   000199   85..82       MOV     DPL,?V0 + 2
   \   00019C   85..83       MOV     DPH,?V0 + 3
   \   00019F   E0           MOVX    A,@DPTR
   \   0001A0   28           ADD     A,R0
   \   0001A1   FB           MOV     R3,A
   \   0001A2   A3           INC     DPTR
   \   0001A3   E0           MOVX    A,@DPTR
   \   0001A4   39           ADDC    A,R1
   \   0001A5   8B82         MOV     DPL,R3
   \   0001A7   F583         MOV     DPH,A
   \   0001A9   EC           MOV     A,R4
   \   0001AA   F0           MOVX    @DPTR,A
   \   0001AB   A3           INC     DPTR
   \   0001AC   ED           MOV     A,R5
   \   0001AD   F0           MOVX    @DPTR,A
   2962                buf += 2;
   \   0001AE   EE           MOV     A,R6
   \   0001AF   2402         ADD     A,#0x2
   \   0001B1   0E           INC     R6
   \   0001B2   0E           INC     R6
   \   0001B3   EF           MOV     A,R7
   \   0001B4   3400         ADDC    A,#0x0
   \   0001B6   FF           MOV     R7,A
   2963              }
   \   0001B7   0A           INC     R2
   \                     ??ZDO_ParseSimpleDescBuf_8:
   \   0001B8   EA           MOV     A,R2
   \   0001B9   C3           CLR     C
   \   0001BA   95..         SUBB    A,?V0 + 4
   \   0001BC   40C6         JC      ??ZDO_ParseSimpleDescBuf_9
   2964            }
   2965            return 0;
   \                     ??ZDO_ParseSimpleDescBuf_6:
   \   0001BE   7900         MOV     R1,#0x0
   \                     ??ZDO_ParseSimpleDescBuf_3:
   \   0001C0   7F05         MOV     R7,#0x5
   \   0001C2   02....       LJMP    ?BANKED_LEAVE_XDATA
   2966          }
   2967          
   2968          /*********************************************************************
   2969           * @fn          ZDO_ParseDeviceAnnce
   2970           *
   2971           * @brief       Parse a Device Announce message.
   2972           *
   2973           * @param       inMsg - Incoming message
   2974           * @param       pAnnce - place to put the parsed information
   2975           *
   2976           * @return      none
   2977           */

   \                                 In  segment BANKED_CODE, align 1, keep-with-next
   2978          void ZDO_ParseDeviceAnnce( zdoIncomingMsg_t *inMsg, ZDO_DeviceAnnce_t *pAnnce )
   \                     ZDO_ParseDeviceAnnce:
   2979          {
   \   000000   74F6         MOV     A,#-0xa
   \   000002   12....       LCALL   ?BANKED_ENTER_XDATA
   \   000005                ; Saved register size: 10
   \   000005                ; Auto size: 0
   \   000005   8C..         MOV     ?V0 + 0,R4
   \   000007   8D..         MOV     ?V0 + 1,R5
   2980            uint8 *msg;
   2981          
   2982            // Parse incoming message
   2983            msg = inMsg->asdu;
   \   000009   EA           MOV     A,R2
   \   00000A   2413         ADD     A,#0x13
   \   00000C   F582         MOV     DPL,A
   \   00000E   EB           MOV     A,R3
   \   00000F   3400         ADDC    A,#0x0
   \   000011   F583         MOV     DPH,A
   \   000013   E0           MOVX    A,@DPTR
   \   000014   FE           MOV     R6,A
   \   000015   A3           INC     DPTR
   \   000016   E0           MOVX    A,@DPTR
   \   000017   FF           MOV     R7,A
   2984            pAnnce->nwkAddr = BUILD_UINT16( msg[0], msg[1] );
   \   000018   8E82         MOV     DPL,R6
   \   00001A   8F83         MOV     DPH,R7
   \   00001C   E0           MOVX    A,@DPTR
   \   00001D   FA           MOV     R2,A
   \   00001E   A3           INC     DPTR
   \   00001F   E0           MOVX    A,@DPTR
   \   000020   F9           MOV     R1,A
   \   000021   EA           MOV     A,R2
   \   000022   8C82         MOV     DPL,R4
   \   000024   8D83         MOV     DPH,R5
   \   000026   F0           MOVX    @DPTR,A
   \   000027   A3           INC     DPTR
   \   000028   E9           MOV     A,R1
   \   000029   F0           MOVX    @DPTR,A
   2985            msg += 2;
   \   00002A   EE           MOV     A,R6
   \   00002B   2402         ADD     A,#0x2
   \   00002D   0E           INC     R6
   \   00002E   0E           INC     R6
   \   00002F   EF           MOV     A,R7
   \   000030   3400         ADDC    A,#0x0
   \   000032   FF           MOV     R7,A
   2986            osal_cpyExtAddr( pAnnce->extAddr, msg );
   \   000033                ; Setup parameters for call to function sAddrExtCpy
   \   000033   EE           MOV     A,R6
   \   000034   FC           MOV     R4,A
   \   000035   EF           MOV     A,R7
   \   000036   FD           MOV     R5,A
   \   000037   E5..         MOV     A,?V0 + 0
   \   000039   2402         ADD     A,#0x2
   \   00003B   FA           MOV     R2,A
   \   00003C   E5..         MOV     A,?V0 + 1
   \   00003E   3400         ADDC    A,#0x0
   \   000040   FB           MOV     R3,A
   \   000041   12....       LCALL   ??sAddrExtCpy?relay
   2987            msg += Z_EXTADDR_LEN;
   2988            pAnnce->capabilities = *msg;
   \   000044   8E82         MOV     DPL,R6
   \   000046   8F83         MOV     DPH,R7
   \   000048   A3           INC     DPTR
   \   000049   A3           INC     DPTR
   \   00004A   A3           INC     DPTR
   \   00004B   A3           INC     DPTR
   \   00004C   A3           INC     DPTR
   \   00004D   A3           INC     DPTR
   \   00004E   A3           INC     DPTR
   \   00004F   A3           INC     DPTR
   \   000050   E0           MOVX    A,@DPTR
   \   000051   85..82       MOV     DPL,?V0 + 0
   \   000054   85..83       MOV     DPH,?V0 + 1
   \   000057   A3           INC     DPTR
   \   000058   A3           INC     DPTR
   \   000059   A3           INC     DPTR
   \   00005A   A3           INC     DPTR
   \   00005B   A3           INC     DPTR
   \   00005C   A3           INC     DPTR
   \   00005D   A3           INC     DPTR
   \   00005E   A3           INC     DPTR
   \   00005F   A3           INC     DPTR
   \   000060   A3           INC     DPTR
   \   000061   F0           MOVX    @DPTR,A
   2989          }
   \   000062   7F02         MOV     R7,#0x2
   \   000064   02....       LJMP    ?BANKED_LEAVE_XDATA
   2990          
   2991          /*********************************************************************
   2992           * @fn          ZDO_ParseMgmtNwkUpdateNotify
   2993           *
   2994           * @brief       This function handles parsing of the incoming Management
   2995           *              Network Update notify.
   2996           *
   2997           * @param       inMsg - incoming message (request)
   2998           *
   2999           * @return      a pointer to parsed response structure (NULL if not allocated).  
   3000           *          This structure was allocated using osal_mem_alloc, so it must be freed
   3001           *          by the calling function [osal_mem_free()].
   3002           */

   \                                 In  segment BANKED_CODE, align 1, keep-with-next
   3003          ZDO_MgmtNwkUpdateNotify_t *ZDO_ParseMgmtNwkUpdateNotify( zdoIncomingMsg_t *inMsg )
   \                     ZDO_ParseMgmtNwkUpdateNotify:
   3004          {
   \   000000   74F2         MOV     A,#-0xe
   \   000002   12....       LCALL   ?BANKED_ENTER_XDATA
   \   000005                ; Saved register size: 14
   \   000005                ; Auto size: 6
   \   000005   74FA         MOV     A,#-0x6
   \   000007   12....       LCALL   ?ALLOC_XSTACK8
   3005            uint8 status;
   3006            uint32 scannedChannels = 0;
   \   00000A   90....       MOV     DPTR,#__Constant_0
   \   00000D   78..         MOV     R0,#?V0 + 0
   \   00000F   12....       LCALL   ?L_MOV_X
   3007            uint16 totalTransmissions = 0;
   \   000012   75..00       MOV     ?V0 + 4,#0x0
   \   000015   75..00       MOV     ?V0 + 5,#0x0
   3008            uint16 transmissionFailures = 0;
   \   000018   7E00         MOV     R6,#0x0
   \   00001A   7F00         MOV     R7,#0x0
   3009            uint8 listCount = 0;
   \   00001C   7402         MOV     A,#0x2
   \   00001E   12....       LCALL   ?XSTACK_DISP0_8
   \   000021   E4           CLR     A
   \   000022   F0           MOVX    @DPTR,A
   3010            uint8 *msg = inMsg->asdu;
   \   000023   EA           MOV     A,R2
   \   000024   2413         ADD     A,#0x13
   \   000026   F582         MOV     DPL,A
   \   000028   EB           MOV     A,R3
   \   000029   3400         ADDC    A,#0x0
   \   00002B   F583         MOV     DPH,A
   \   00002D   E0           MOVX    A,@DPTR
   \   00002E   F8           MOV     R0,A
   \   00002F   A3           INC     DPTR
   \   000030   E0           MOVX    A,@DPTR
   \   000031   F9           MOV     R1,A
   \   000032   85..82       MOV     DPL,?XSP + 0
   \   000035   85..83       MOV     DPH,?XSP + 1
   \   000038   E8           MOV     A,R0
   \   000039   F0           MOVX    @DPTR,A
   \   00003A   A3           INC     DPTR
   \   00003B   E9           MOV     A,R1
   \   00003C   F0           MOVX    @DPTR,A
   3011            ZDO_MgmtNwkUpdateNotify_t *pRsp;
   3012          
   3013            status = *msg++;
   \   00003D   85..82       MOV     DPL,?XSP + 0
   \   000040   85..83       MOV     DPH,?XSP + 1
   \   000043   E0           MOVX    A,@DPTR
   \   000044   F8           MOV     R0,A
   \   000045   A3           INC     DPTR
   \   000046   E0           MOVX    A,@DPTR
   \   000047   F583         MOV     DPH,A
   \   000049   8882         MOV     DPL,R0
   \   00004B   E0           MOVX    A,@DPTR
   \   00004C   C0E0         PUSH    A
   \   00004E   7405         MOV     A,#0x5
   \   000050   12....       LCALL   ?XSTACK_DISP0_8
   \   000053   D0E0         POP     A
   \   000055   F0           MOVX    @DPTR,A
   \   000056   85..82       MOV     DPL,?XSP + 0
   \   000059   85..83       MOV     DPH,?XSP + 1
   \   00005C   E0           MOVX    A,@DPTR
   \   00005D   2401         ADD     A,#0x1
   \   00005F   F8           MOV     R0,A
   \   000060   A3           INC     DPTR
   \   000061   E0           MOVX    A,@DPTR
   \   000062   3400         ADDC    A,#0x0
   \   000064   F9           MOV     R1,A
   \   000065   85..82       MOV     DPL,?XSP + 0
   \   000068   85..83       MOV     DPH,?XSP + 1
   \   00006B   E8           MOV     A,R0
   \   00006C   F0           MOVX    @DPTR,A
   \   00006D   A3           INC     DPTR
   \   00006E   E9           MOV     A,R1
   \   00006F   F0           MOVX    @DPTR,A
   3014            if ( status == ZSuccess )
   \   000070   7405         MOV     A,#0x5
   \   000072   12....       LCALL   ?XSTACK_DISP0_8
   \   000075   E0           MOVX    A,@DPTR
   \   000076   6003         JZ      $+5
   \   000078   02....       LJMP    ??ZDO_ParseMgmtNwkUpdateNotify_0 & 0xFFFF
   3015            {
   3016              scannedChannels = osal_build_uint32( msg, 4 );
   \   00007B                ; Setup parameters for call to function osal_build_uint32
   \   00007B   7904         MOV     R1,#0x4
   \   00007D   85..82       MOV     DPL,?XSP + 0
   \   000080   85..83       MOV     DPH,?XSP + 1
   \   000083   E0           MOVX    A,@DPTR
   \   000084   FA           MOV     R2,A
   \   000085   A3           INC     DPTR
   \   000086   E0           MOVX    A,@DPTR
   \   000087   FB           MOV     R3,A
   \   000088   12....       LCALL   ??osal_build_uint32?relay
   \   00008B   8A..         MOV     ?V0 + 0,R2
   \   00008D   8B..         MOV     ?V0 + 1,R3
   \   00008F   8C..         MOV     ?V0 + 2,R4
   \   000091   8D..         MOV     ?V0 + 3,R5
   3017              msg += 4;
   \   000093   85..82       MOV     DPL,?XSP + 0
   \   000096   85..83       MOV     DPH,?XSP + 1
   \   000099   E0           MOVX    A,@DPTR
   \   00009A   2404         ADD     A,#0x4
   \   00009C   F8           MOV     R0,A
   \   00009D   A3           INC     DPTR
   \   00009E   E0           MOVX    A,@DPTR
   \   00009F   3400         ADDC    A,#0x0
   \   0000A1   F9           MOV     R1,A
   \   0000A2   85..82       MOV     DPL,?XSP + 0
   \   0000A5   85..83       MOV     DPH,?XSP + 1
   \   0000A8   E8           MOV     A,R0
   \   0000A9   F0           MOVX    @DPTR,A
   \   0000AA   A3           INC     DPTR
   \   0000AB   E9           MOV     A,R1
   \   0000AC   F0           MOVX    @DPTR,A
   3018              totalTransmissions = BUILD_UINT16( msg[0], msg[1] );
   \   0000AD   85..82       MOV     DPL,?XSP + 0
   \   0000B0   85..83       MOV     DPH,?XSP + 1
   \   0000B3   E0           MOVX    A,@DPTR
   \   0000B4   F8           MOV     R0,A
   \   0000B5   A3           INC     DPTR
   \   0000B6   E0           MOVX    A,@DPTR
   \   0000B7   F583         MOV     DPH,A
   \   0000B9   8882         MOV     DPL,R0
   \   0000BB   E0           MOVX    A,@DPTR
   \   0000BC   FA           MOV     R2,A
   \   0000BD   85..82       MOV     DPL,?XSP + 0
   \   0000C0   85..83       MOV     DPH,?XSP + 1
   \   0000C3   E0           MOVX    A,@DPTR
   \   0000C4   F8           MOV     R0,A
   \   0000C5   A3           INC     DPTR
   \   0000C6   E0           MOVX    A,@DPTR
   \   0000C7   F583         MOV     DPH,A
   \   0000C9   8882         MOV     DPL,R0
   \   0000CB   A3           INC     DPTR
   \   0000CC   E0           MOVX    A,@DPTR
   \   0000CD   F9           MOV     R1,A
   \   0000CE   EA           MOV     A,R2
   \   0000CF   2400         ADD     A,#0x0
   \   0000D1   F5..         MOV     ?V0 + 4,A
   \   0000D3   E4           CLR     A
   \   0000D4   39           ADDC    A,R1
   \   0000D5   F5..         MOV     ?V0 + 5,A
   3019              msg += 2;
   \   0000D7   85..82       MOV     DPL,?XSP + 0
   \   0000DA   85..83       MOV     DPH,?XSP + 1
   \   0000DD   E0           MOVX    A,@DPTR
   \   0000DE   2402         ADD     A,#0x2
   \   0000E0   F8           MOV     R0,A
   \   0000E1   A3           INC     DPTR
   \   0000E2   E0           MOVX    A,@DPTR
   \   0000E3   3400         ADDC    A,#0x0
   \   0000E5   F9           MOV     R1,A
   \   0000E6   85..82       MOV     DPL,?XSP + 0
   \   0000E9   85..83       MOV     DPH,?XSP + 1
   \   0000EC   E8           MOV     A,R0
   \   0000ED   F0           MOVX    @DPTR,A
   \   0000EE   A3           INC     DPTR
   \   0000EF   E9           MOV     A,R1
   \   0000F0   F0           MOVX    @DPTR,A
   3020              transmissionFailures = BUILD_UINT16( msg[0], msg[1] );
   \   0000F1   85..82       MOV     DPL,?XSP + 0
   \   0000F4   85..83       MOV     DPH,?XSP + 1
   \   0000F7   E0           MOVX    A,@DPTR
   \   0000F8   F8           MOV     R0,A
   \   0000F9   A3           INC     DPTR
   \   0000FA   E0           MOVX    A,@DPTR
   \   0000FB   F583         MOV     DPH,A
   \   0000FD   8882         MOV     DPL,R0
   \   0000FF   E0           MOVX    A,@DPTR
   \   000100   FA           MOV     R2,A
   \   000101   85..82       MOV     DPL,?XSP + 0
   \   000104   85..83       MOV     DPH,?XSP + 1
   \   000107   E0           MOVX    A,@DPTR
   \   000108   F8           MOV     R0,A
   \   000109   A3           INC     DPTR
   \   00010A   E0           MOVX    A,@DPTR
   \   00010B   F583         MOV     DPH,A
   \   00010D   8882         MOV     DPL,R0
   \   00010F   A3           INC     DPTR
   \   000110   E0           MOVX    A,@DPTR
   \   000111   F9           MOV     R1,A
   \   000112   EA           MOV     A,R2
   \   000113   2400         ADD     A,#0x0
   \   000115   FE           MOV     R6,A
   \   000116   E4           CLR     A
   \   000117   39           ADDC    A,R1
   \   000118   FF           MOV     R7,A
   3021              msg += 2;
   \   000119   85..82       MOV     DPL,?XSP + 0
   \   00011C   85..83       MOV     DPH,?XSP + 1
   \   00011F   E0           MOVX    A,@DPTR
   \   000120   2402         ADD     A,#0x2
   \   000122   F8           MOV     R0,A
   \   000123   A3           INC     DPTR
   \   000124   E0           MOVX    A,@DPTR
   \   000125   3400         ADDC    A,#0x0
   \   000127   F9           MOV     R1,A
   \   000128   85..82       MOV     DPL,?XSP + 0
   \   00012B   85..83       MOV     DPH,?XSP + 1
   \   00012E   E8           MOV     A,R0
   \   00012F   F0           MOVX    @DPTR,A
   \   000130   A3           INC     DPTR
   \   000131   E9           MOV     A,R1
   \   000132   F0           MOVX    @DPTR,A
   3022              listCount = *msg++;
   \   000133   85..82       MOV     DPL,?XSP + 0
   \   000136   85..83       MOV     DPH,?XSP + 1
   \   000139   E0           MOVX    A,@DPTR
   \   00013A   F8           MOV     R0,A
   \   00013B   A3           INC     DPTR
   \   00013C   E0           MOVX    A,@DPTR
   \   00013D   F583         MOV     DPH,A
   \   00013F   8882         MOV     DPL,R0
   \   000141   E0           MOVX    A,@DPTR
   \   000142   C0E0         PUSH    A
   \   000144   7402         MOV     A,#0x2
   \   000146   12....       LCALL   ?XSTACK_DISP0_8
   \   000149   D0E0         POP     A
   \   00014B   F0           MOVX    @DPTR,A
   \   00014C   85..82       MOV     DPL,?XSP + 0
   \   00014F   85..83       MOV     DPH,?XSP + 1
   \   000152   E0           MOVX    A,@DPTR
   \   000153   2401         ADD     A,#0x1
   \   000155   F8           MOV     R0,A
   \   000156   A3           INC     DPTR
   \   000157   E0           MOVX    A,@DPTR
   \   000158   3400         ADDC    A,#0x0
   \   00015A   F9           MOV     R1,A
   \   00015B   85..82       MOV     DPL,?XSP + 0
   \   00015E   85..83       MOV     DPH,?XSP + 1
   \   000161   E8           MOV     A,R0
   \   000162   F0           MOVX    @DPTR,A
   \   000163   A3           INC     DPTR
   \   000164   E9           MOV     A,R1
   \   000165   F0           MOVX    @DPTR,A
   \                     ??ZDO_ParseMgmtNwkUpdateNotify_0:
   \   000166                ; Setup parameters for call to function osal_mem_alloc
   \   000166   7402         MOV     A,#0x2
   \   000168   12....       LCALL   ?XSTACK_DISP0_8
   \   00016B   E0           MOVX    A,@DPTR
   \   00016C   240A         ADD     A,#0xa
   \   00016E   FA           MOV     R2,A
   \   00016F   E4           CLR     A
   \   000170   3400         ADDC    A,#0x0
   \   000172   FB           MOV     R3,A
   3023            }
   3024            
   3025            pRsp = (ZDO_MgmtNwkUpdateNotify_t *)osal_mem_alloc( sizeof ( ZDO_MgmtNwkUpdateNotify_t ) + listCount );
   \   000173   12....       LCALL   ??osal_mem_alloc?relay
   \   000176   7403         MOV     A,#0x3
   \   000178   12....       LCALL   ?XSTACK_DISP0_8
   \   00017B   EA           MOV     A,R2
   \   00017C   F0           MOVX    @DPTR,A
   \   00017D   A3           INC     DPTR
   \   00017E   EB           MOV     A,R3
   \   00017F   F0           MOVX    @DPTR,A
   3026          
   3027            if ( pRsp )
   \   000180   7403         MOV     A,#0x3
   \   000182   12....       LCALL   ?XSTACK_DISP0_8
   \   000185   E0           MOVX    A,@DPTR
   \   000186   F8           MOV     R0,A
   \   000187   A3           INC     DPTR
   \   000188   E0           MOVX    A,@DPTR
   \   000189   F9           MOV     R1,A
   \   00018A   E8           MOV     A,R0
   \   00018B   49           ORL     A,R1
   \   00018C   7003         JNZ     $+5
   \   00018E   02....       LJMP    ??ZDO_ParseMgmtNwkUpdateNotify_1 & 0xFFFF
   3028            {
   3029              pRsp->status = status;
   \   000191   7405         MOV     A,#0x5
   \   000193   12....       LCALL   ?XSTACK_DISP0_8
   \   000196   E0           MOVX    A,@DPTR
   \   000197   C0E0         PUSH    A
   \   000199   7403         MOV     A,#0x3
   \   00019B   12....       LCALL   ?XSTACK_DISP0_8
   \   00019E   E0           MOVX    A,@DPTR
   \   00019F   F8           MOV     R0,A
   \   0001A0   A3           INC     DPTR
   \   0001A1   E0           MOVX    A,@DPTR
   \   0001A2   F583         MOV     DPH,A
   \   0001A4   8882         MOV     DPL,R0
   \   0001A6   D0E0         POP     A
   \   0001A8   F0           MOVX    @DPTR,A
   3030              pRsp->scannedChannels = scannedChannels;
   \   0001A9   7403         MOV     A,#0x3
   \   0001AB   12....       LCALL   ?XSTACK_DISP0_8
   \   0001AE   E0           MOVX    A,@DPTR
   \   0001AF   F8           MOV     R0,A
   \   0001B0   A3           INC     DPTR
   \   0001B1   E0           MOVX    A,@DPTR
   \   0001B2   F583         MOV     DPH,A
   \   0001B4   8882         MOV     DPL,R0
   \   0001B6   A3           INC     DPTR
   \   0001B7   78..         MOV     R0,#?V0 + 0
   \   0001B9   12....       LCALL   ?L_MOV_TO_X
   3031              pRsp->totalTransmissions = totalTransmissions;
   \   0001BC   7403         MOV     A,#0x3
   \   0001BE   12....       LCALL   ?XSTACK_DISP0_8
   \   0001C1   E0           MOVX    A,@DPTR
   \   0001C2   F8           MOV     R0,A
   \   0001C3   A3           INC     DPTR
   \   0001C4   E0           MOVX    A,@DPTR
   \   0001C5   F583         MOV     DPH,A
   \   0001C7   8882         MOV     DPL,R0
   \   0001C9   A3           INC     DPTR
   \   0001CA   A3           INC     DPTR
   \   0001CB   A3           INC     DPTR
   \   0001CC   A3           INC     DPTR
   \   0001CD   A3           INC     DPTR
   \   0001CE   E5..         MOV     A,?V0 + 4
   \   0001D0   F0           MOVX    @DPTR,A
   \   0001D1   A3           INC     DPTR
   \   0001D2   E5..         MOV     A,?V0 + 5
   \   0001D4   F0           MOVX    @DPTR,A
   3032              pRsp->transmissionFailures = transmissionFailures;
   \   0001D5   7403         MOV     A,#0x3
   \   0001D7   12....       LCALL   ?XSTACK_DISP0_8
   \   0001DA   E0           MOVX    A,@DPTR
   \   0001DB   F8           MOV     R0,A
   \   0001DC   A3           INC     DPTR
   \   0001DD   E0           MOVX    A,@DPTR
   \   0001DE   F583         MOV     DPH,A
   \   0001E0   8882         MOV     DPL,R0
   \   0001E2   A3           INC     DPTR
   \   0001E3   A3           INC     DPTR
   \   0001E4   A3           INC     DPTR
   \   0001E5   A3           INC     DPTR
   \   0001E6   A3           INC     DPTR
   \   0001E7   A3           INC     DPTR
   \   0001E8   A3           INC     DPTR
   \   0001E9   EE           MOV     A,R6
   \   0001EA   F0           MOVX    @DPTR,A
   \   0001EB   A3           INC     DPTR
   \   0001EC   EF           MOV     A,R7
   \   0001ED   F0           MOVX    @DPTR,A
   3033              pRsp->listCount = listCount;
   \   0001EE   7402         MOV     A,#0x2
   \   0001F0   12....       LCALL   ?XSTACK_DISP0_8
   \   0001F3   E0           MOVX    A,@DPTR
   \   0001F4   C0E0         PUSH    A
   \   0001F6   7403         MOV     A,#0x3
   \   0001F8   12....       LCALL   ?XSTACK_DISP0_8
   \   0001FB   E0           MOVX    A,@DPTR
   \   0001FC   F8           MOV     R0,A
   \   0001FD   A3           INC     DPTR
   \   0001FE   E0           MOVX    A,@DPTR
   \   0001FF   F583         MOV     DPH,A
   \   000201   8882         MOV     DPL,R0
   \   000203   A3           INC     DPTR
   \   000204   A3           INC     DPTR
   \   000205   A3           INC     DPTR
   \   000206   A3           INC     DPTR
   \   000207   A3           INC     DPTR
   \   000208   A3           INC     DPTR
   \   000209   A3           INC     DPTR
   \   00020A   A3           INC     DPTR
   \   00020B   A3           INC     DPTR
   \   00020C   D0E0         POP     A
   \   00020E   F0           MOVX    @DPTR,A
   3034              
   3035              // Allocate a buffer big enough to handle the list.
   3036              if ( listCount > 0 )
   \   00020F   7402         MOV     A,#0x2
   \   000211   12....       LCALL   ?XSTACK_DISP0_8
   \   000214   E0           MOVX    A,@DPTR
   \   000215   6034         JZ      ??ZDO_ParseMgmtNwkUpdateNotify_1
   3037                osal_memcpy( pRsp->energyValues, msg, listCount );
   \   000217                ; Setup parameters for call to function osal_memcpy
   \   000217   85..82       MOV     DPL,?XSP + 0
   \   00021A   85..83       MOV     DPH,?XSP + 1
   \   00021D   E0           MOVX    A,@DPTR
   \   00021E   F5..         MOV     ?V0 + 0,A
   \   000220   A3           INC     DPTR
   \   000221   E0           MOVX    A,@DPTR
   \   000222   F5..         MOV     ?V0 + 1,A
   \   000224   75..00       MOV     ?V0 + 2,#0x0
   \   000227   78..         MOV     R0,#?V0 + 0
   \   000229   12....       LCALL   ?PUSH_XSTACK_I_THREE
   \   00022C   7405         MOV     A,#0x5
   \   00022E   12....       LCALL   ?XSTACK_DISP0_8
   \   000231   E0           MOVX    A,@DPTR
   \   000232   FC           MOV     R4,A
   \   000233   7D00         MOV     R5,#0x0
   \   000235   7406         MOV     A,#0x6
   \   000237   12....       LCALL   ?XSTACK_DISP0_8
   \   00023A   E0           MOVX    A,@DPTR
   \   00023B   240A         ADD     A,#0xa
   \   00023D   FA           MOV     R2,A
   \   00023E   A3           INC     DPTR
   \   00023F   E0           MOVX    A,@DPTR
   \   000240   3400         ADDC    A,#0x0
   \   000242   FB           MOV     R3,A
   \   000243   12....       LCALL   ??osal_memcpy?relay
   \   000246   7403         MOV     A,#0x3
   \   000248   12....       LCALL   ?DEALLOC_XSTACK8
   3038            }
   3039            
   3040            return ( pRsp );
   \                     ??ZDO_ParseMgmtNwkUpdateNotify_1:
   \   00024B   7403         MOV     A,#0x3
   \   00024D   12....       LCALL   ?XSTACK_DISP0_8
   \   000250   E0           MOVX    A,@DPTR
   \   000251   FA           MOV     R2,A
   \   000252   A3           INC     DPTR
   \   000253   E0           MOVX    A,@DPTR
   \   000254   FB           MOV     R3,A
   \   000255   7406         MOV     A,#0x6
   \   000257   12....       LCALL   ?DEALLOC_XSTACK8
   \   00025A   7F06         MOV     R7,#0x6
   \   00025C   02....       LJMP    ?BANKED_LEAVE_XDATA
   3041          }
   3042          
   3043          /*********************************************************************
   3044           * @fn          ZDO_ParseMgmtNwkUpdateReq
   3045           *
   3046           * @brief       This function handles parsing the incoming Management
   3047           *              Network Update request and starts the request (if needed).
   3048           *
   3049           * @param       inMsg - incoming message (request)
   3050           * @param       pReq - pointer to place to parse message to
   3051           *
   3052           * @return      none
   3053           */

   \                                 In  segment BANKED_CODE, align 1, keep-with-next
   3054          void ZDO_ParseMgmtNwkUpdateReq( zdoIncomingMsg_t *inMsg, ZDO_MgmtNwkUpdateReq_t *pReq )
   \                     ZDO_ParseMgmtNwkUpdateReq:
   3055          {
   \   000000   74F6         MOV     A,#-0xa
   \   000002   12....       LCALL   ?BANKED_ENTER_XDATA
   \   000005                ; Saved register size: 10
   \   000005                ; Auto size: 0
   \   000005   8C..         MOV     ?V0 + 0,R4
   \   000007   8D..         MOV     ?V0 + 1,R5
   3056            uint8 *msg = inMsg->asdu;
   \   000009   EA           MOV     A,R2
   \   00000A   2413         ADD     A,#0x13
   \   00000C   F582         MOV     DPL,A
   \   00000E   EB           MOV     A,R3
   \   00000F   3400         ADDC    A,#0x0
   \   000011   F583         MOV     DPH,A
   \   000013   E0           MOVX    A,@DPTR
   \   000014   FE           MOV     R6,A
   \   000015   A3           INC     DPTR
   \   000016   E0           MOVX    A,@DPTR
   \   000017   FF           MOV     R7,A
   3057            
   3058            pReq->channelMask = osal_build_uint32( msg, 4 );
   \   000018                ; Setup parameters for call to function osal_build_uint32
   \   000018   7904         MOV     R1,#0x4
   \   00001A   EE           MOV     A,R6
   \   00001B   FA           MOV     R2,A
   \   00001C   EF           MOV     A,R7
   \   00001D   FB           MOV     R3,A
   \   00001E   12....       LCALL   ??osal_build_uint32?relay
   \   000021   85..82       MOV     DPL,?V0 + 0
   \   000024   85..83       MOV     DPH,?V0 + 1
   \   000027   12....       LCALL   ?XSTORE_R2345
   3059            msg += 4;
   \   00002A   EE           MOV     A,R6
   \   00002B   2404         ADD     A,#0x4
   \   00002D   FE           MOV     R6,A
   \   00002E   EF           MOV     A,R7
   \   00002F   3400         ADDC    A,#0x0
   \   000031   FF           MOV     R7,A
   3060            pReq->scanDuration = *msg++;
   \   000032   E5..         MOV     A,?V0 + 0
   \   000034   2404         ADD     A,#0x4
   \   000036   F8           MOV     R0,A
   \   000037   E5..         MOV     A,?V0 + 1
   \   000039   3400         ADDC    A,#0x0
   \   00003B   F9           MOV     R1,A
   \   00003C   8E82         MOV     DPL,R6
   \   00003E   8F83         MOV     DPH,R7
   \   000040   E0           MOVX    A,@DPTR
   \   000041   8882         MOV     DPL,R0
   \   000043   8983         MOV     DPH,R1
   \   000045   F0           MOVX    @DPTR,A
   \   000046   8E82         MOV     DPL,R6
   \   000048   8F83         MOV     DPH,R7
   \   00004A   A3           INC     DPTR
   \   00004B   AE82         MOV     R6,DPL
   \   00004D   AF83         MOV     R7,DPH
   3061            
   3062            if ( pReq->scanDuration <= 0x05 )
   \   00004F   8882         MOV     DPL,R0
   \   000051   8983         MOV     DPH,R1
   \   000053   E0           MOVX    A,@DPTR
   \   000054   C3           CLR     C
   \   000055   9406         SUBB    A,#0x6
   \   000057   5012         JNC     ??ZDO_ParseMgmtNwkUpdateReq_0
   3063            {
   3064              // Request is to scan over channelMask
   3065              pReq->scanCount = *msg;
   \   000059   8E82         MOV     DPL,R6
   \   00005B   8F83         MOV     DPH,R7
   \   00005D   E0           MOVX    A,@DPTR
   \   00005E   85..82       MOV     DPL,?V0 + 0
   \   000061   85..83       MOV     DPH,?V0 + 1
   \   000064   A3           INC     DPTR
   \   000065   A3           INC     DPTR
   \   000066   A3           INC     DPTR
   \   000067   A3           INC     DPTR
   \   000068   A3           INC     DPTR
   \   000069   8045         SJMP    ??ZDO_ParseMgmtNwkUpdateReq_1
   3066            }
   3067            else if ( ( pReq->scanDuration == 0xFE ) || ( pReq->scanDuration == 0xFF ) )
   \                     ??ZDO_ParseMgmtNwkUpdateReq_0:
   \   00006B   E0           MOVX    A,@DPTR
   \   00006C   64FE         XRL     A,#0xfe
   \   00006E   6004         JZ      ??ZDO_ParseMgmtNwkUpdateReq_2
   \   000070   E0           MOVX    A,@DPTR
   \   000071   F4           CPL     A
   \   000072   703D         JNZ     ??ZDO_ParseMgmtNwkUpdateReq_3
   3068            {
   3069              // Request is to change Channel (0xFE) or apsChannelMask and NwkManagerAddr (0xFF)
   3070              pReq->nwkUpdateId = *msg++;
   \                     ??ZDO_ParseMgmtNwkUpdateReq_2:
   \   000074   8E82         MOV     DPL,R6
   \   000076   8F83         MOV     DPH,R7
   \   000078   E0           MOVX    A,@DPTR
   \   000079   85..82       MOV     DPL,?V0 + 0
   \   00007C   85..83       MOV     DPH,?V0 + 1
   \   00007F   A3           INC     DPTR
   \   000080   A3           INC     DPTR
   \   000081   A3           INC     DPTR
   \   000082   A3           INC     DPTR
   \   000083   A3           INC     DPTR
   \   000084   A3           INC     DPTR
   \   000085   F0           MOVX    @DPTR,A
   \   000086   8E82         MOV     DPL,R6
   \   000088   8F83         MOV     DPH,R7
   \   00008A   A3           INC     DPTR
   \   00008B   0E           INC     R6
   \   00008C   AF83         MOV     R7,DPH
   3071              
   3072              if ( pReq->scanDuration == 0xFF )
   \   00008E   8882         MOV     DPL,R0
   \   000090   8983         MOV     DPH,R1
   \   000092   E0           MOVX    A,@DPTR
   \   000093   F4           CPL     A
   \   000094   701B         JNZ     ??ZDO_ParseMgmtNwkUpdateReq_3
   3073              {
   3074                pReq->nwkManagerAddr = BUILD_UINT16( msg[0], msg[1] );
   \   000096   8E82         MOV     DPL,R6
   \   000098   8F83         MOV     DPH,R7
   \   00009A   E0           MOVX    A,@DPTR
   \   00009B   FA           MOV     R2,A
   \   00009C   A3           INC     DPTR
   \   00009D   E0           MOVX    A,@DPTR
   \   00009E   F9           MOV     R1,A
   \   00009F   EA           MOV     A,R2
   \   0000A0   85..82       MOV     DPL,?V0 + 0
   \   0000A3   85..83       MOV     DPH,?V0 + 1
   \   0000A6   A3           INC     DPTR
   \   0000A7   A3           INC     DPTR
   \   0000A8   A3           INC     DPTR
   \   0000A9   A3           INC     DPTR
   \   0000AA   A3           INC     DPTR
   \   0000AB   A3           INC     DPTR
   \   0000AC   A3           INC     DPTR
   \   0000AD   F0           MOVX    @DPTR,A
   \   0000AE   A3           INC     DPTR
   \   0000AF   E9           MOV     A,R1
   \                     ??ZDO_ParseMgmtNwkUpdateReq_1:
   \   0000B0   F0           MOVX    @DPTR,A
   3075              }
   3076            }
   3077          }
   \                     ??ZDO_ParseMgmtNwkUpdateReq_3:
   \   0000B1   7F02         MOV     R7,#0x2
   \   0000B3   02....       LJMP    ?BANKED_LEAVE_XDATA

   \                                 In  segment BANK_RELAYS, align 1
   \                     ??ZDO_Init?relay:
   \   000000   12....       LCALL   ?BDISPATCH
   \   000003   ......       DC24    ZDO_Init

   \                                 In  segment BANK_RELAYS, align 1
   \                     ??ZDODeviceSetup?relay:
   \   000000   12....       LCALL   ?BDISPATCH
   \   000003   ......       DC24    ZDODeviceSetup

   \                                 In  segment BANK_RELAYS, align 1
   \                     ??ZDO_StartDevice?relay:
   \   000000   12....       LCALL   ?BDISPATCH
   \   000003   ......       DC24    ZDO_StartDevice

   \                                 In  segment BANK_RELAYS, align 1
   \                     ??ZDO_UpdateNwkStatus?relay:
   \   000000   12....       LCALL   ?BDISPATCH
   \   000003   ......       DC24    ZDO_UpdateNwkStatus

   \                                 In  segment BANK_RELAYS, align 1
   \                     ??ZDO_RemoveEndDeviceBind?relay:
   \   000000   12....       LCALL   ?BDISPATCH
   \   000003   ......       DC24    ZDO_RemoveEndDeviceBind

   \                                 In  segment BANK_RELAYS, align 1
   \                     ??ZDO_SendEDBindRsp?relay:
   \   000000   12....       LCALL   ?BDISPATCH
   \   000003   ......       DC24    ZDO_SendEDBindRsp

   \                                 In  segment BANK_RELAYS, align 1
   \                     ??ZDO_CompareClusterLists?relay:
   \   000000   12....       LCALL   ?BDISPATCH
   \   000003   ......       DC24    ZDO_CompareClusterLists

   \                                 In  segment BANK_RELAYS, align 1
   \                     ??ZDO_AnyClusterMatches?relay:
   \   000000   12....       LCALL   ?BDISPATCH
   \   000003   ......       DC24    ZDO_AnyClusterMatches

   \                                 In  segment BANK_RELAYS, align 1
   \                     ??ZDO_ProcessNodeDescReq?relay:
   \   000000   12....       LCALL   ?BDISPATCH
   \   000003   ......       DC24    ZDO_ProcessNodeDescReq

   \                                 In  segment BANK_RELAYS, align 1
   \                     ??ZDO_ProcessPowerDescReq?relay:
   \   000000   12....       LCALL   ?BDISPATCH
   \   000003   ......       DC24    ZDO_ProcessPowerDescReq

   \                                 In  segment BANK_RELAYS, align 1
   \                     ??ZDO_ProcessSimpleDescReq?relay:
   \   000000   12....       LCALL   ?BDISPATCH
   \   000003   ......       DC24    ZDO_ProcessSimpleDescReq

   \                                 In  segment BANK_RELAYS, align 1
   \                     ??ZDO_ProcessActiveEPReq?relay:
   \   000000   12....       LCALL   ?BDISPATCH
   \   000003   ......       DC24    ZDO_ProcessActiveEPReq

   \                                 In  segment BANK_RELAYS, align 1
   \                     ??ZDO_ConvertOTAClusters?relay:
   \   000000   12....       LCALL   ?BDISPATCH
   \   000003   ......       DC24    ZDO_ConvertOTAClusters

   \                                 In  segment BANK_RELAYS, align 1
   \                     ??ZDO_ProcessMatchDescReq?relay:
   \   000000   12....       LCALL   ?BDISPATCH
   \   000003   ......       DC24    ZDO_ProcessMatchDescReq

   \                                 In  segment BANK_RELAYS, align 1
   \                     ??ZDO_ProcessBindUnbindReq?relay:
   \   000000   12....       LCALL   ?BDISPATCH
   \   000003   ......       DC24    ZDO_ProcessBindUnbindReq

   \                                 In  segment BANK_RELAYS, align 1
   \                     ??ZDO_UpdateAddrManager?relay:
   \   000000   12....       LCALL   ?BDISPATCH
   \   000003   ......       DC24    ZDO_UpdateAddrManager

   \                                 In  segment BANK_RELAYS, align 1
   \                     ??ZDO_ProcessServerDiscReq?relay:
   \   000000   12....       LCALL   ?BDISPATCH
   \   000003   ......       DC24    ZDO_ProcessServerDiscReq

   \                                 In  segment BANK_RELAYS, align 1
   \                     ??ZDO_EndDeviceTimeoutCB?relay:
   \   000000   12....       LCALL   ?BDISPATCH
   \   000003   ......       DC24    ZDO_EndDeviceTimeoutCB

   \                                 In  segment BANK_RELAYS, align 1
   \                     ??ZDO_ProcessMgmtLqiReq?relay:
   \   000000   12....       LCALL   ?BDISPATCH
   \   000003   ......       DC24    ZDO_ProcessMgmtLqiReq

   \                                 In  segment BANK_RELAYS, align 1
   \                     ??ZDO_ProcessMgmtNwkDiscReq?relay:
   \   000000   12....       LCALL   ?BDISPATCH
   \   000003   ......       DC24    ZDO_ProcessMgmtNwkDiscReq

   \                                 In  segment BANK_RELAYS, align 1
   \                     ??ZDO_ProcessMgmtRtgReq?relay:
   \   000000   12....       LCALL   ?BDISPATCH
   \   000003   ......       DC24    ZDO_ProcessMgmtRtgReq

   \                                 In  segment BANK_RELAYS, align 1
   \                     ??ZDO_ProcessMgmtBindReq?relay:
   \   000000   12....       LCALL   ?BDISPATCH
   \   000003   ......       DC24    ZDO_ProcessMgmtBindReq

   \                                 In  segment BANK_RELAYS, align 1
   \                     ??ZDO_ProcessMgmtDirectJoinReq?relay:
   \   000000   12....       LCALL   ?BDISPATCH
   \   000003   ......       DC24    ZDO_ProcessMgmtDirectJoinReq

   \                                 In  segment BANK_RELAYS, align 1
   \                     ??ZDO_ProcessMgmtLeaveReq?relay:
   \   000000   12....       LCALL   ?BDISPATCH
   \   000003   ......       DC24    ZDO_ProcessMgmtLeaveReq

   \                                 In  segment BANK_RELAYS, align 1
   \                     ??ZDO_ProcessMgmtPermitJoinReq?relay:
   \   000000   12....       LCALL   ?BDISPATCH
   \   000003   ......       DC24    ZDO_ProcessMgmtPermitJoinReq

   \                                 In  segment BANK_RELAYS, align 1
   \                     ??NLME_PermitJoiningTimeout?relay:
   \   000000   12....       LCALL   ?BDISPATCH
   \   000003   ......       DC24    NLME_PermitJoiningTimeout

   \                                 In  segment BANK_RELAYS, align 1
   \                     ??ZDO_ProcessUserDescReq?relay:
   \   000000   12....       LCALL   ?BDISPATCH
   \   000003   ......       DC24    ZDO_ProcessUserDescReq

   \                                 In  segment BANK_RELAYS, align 1
   \                     ??ZDO_ProcessUserDescSet?relay:
   \   000000   12....       LCALL   ?BDISPATCH
   \   000003   ......       DC24    ZDO_ProcessUserDescSet

   \                                 In  segment BANK_RELAYS, align 1
   \                     ??ZDO_ProcessDeviceAnnce?relay:
   \   000000   12....       LCALL   ?BDISPATCH
   \   000003   ......       DC24    ZDO_ProcessDeviceAnnce

   \                                 In  segment BANK_RELAYS, align 1
   \                     ??ZDO_BuildSimpleDescBuf?relay:
   \   000000   12....       LCALL   ?BDISPATCH
   \   000003   ......       DC24    ZDO_BuildSimpleDescBuf

   \                                 In  segment BANK_RELAYS, align 1
   \                     ??ZDO_MatchEndDeviceBind?relay:
   \   000000   12....       LCALL   ?BDISPATCH
   \   000003   ......       DC24    ZDO_MatchEndDeviceBind

   \                                 In  segment BANK_RELAYS, align 1
   \                     ??ZDO_RemoveMatchMemory?relay:
   \   000000   12....       LCALL   ?BDISPATCH
   \   000003   ......       DC24    ZDO_RemoveMatchMemory

   \                                 In  segment BANK_RELAYS, align 1
   \                     ??ZDO_CopyMatchInfo?relay:
   \   000000   12....       LCALL   ?BDISPATCH
   \   000003   ......       DC24    ZDO_CopyMatchInfo

   \                                 In  segment BANK_RELAYS, align 1
   \                     ??ZDMatchSendState?relay:
   \   000000   12....       LCALL   ?BDISPATCH
   \   000003   ......       DC24    ZDMatchSendState

   \                                 In  segment BANK_RELAYS, align 1
   \                     ??ZDO_EndDeviceBindMatchTimeoutCB?relay:
   \   000000   12....       LCALL   ?BDISPATCH
   \   000003   ......       DC24    ZDO_EndDeviceBindMatchTimeoutCB

   \                                 In  segment BANK_RELAYS, align 1
   \                     ??ZDO_ParseEndDeviceBindReq?relay:
   \   000000   12....       LCALL   ?BDISPATCH
   \   000003   ......       DC24    ZDO_ParseEndDeviceBindReq

   \                                 In  segment BANK_RELAYS, align 1
   \                     ??ZDO_ParseBindUnbindReq?relay:
   \   000000   12....       LCALL   ?BDISPATCH
   \   000003   ......       DC24    ZDO_ParseBindUnbindReq

   \                                 In  segment BANK_RELAYS, align 1
   \                     ??ZDO_ParseAddrRsp?relay:
   \   000000   12....       LCALL   ?BDISPATCH
   \   000003   ......       DC24    ZDO_ParseAddrRsp

   \                                 In  segment BANK_RELAYS, align 1
   \                     ??ZDO_ParseNodeDescRsp?relay:
   \   000000   12....       LCALL   ?BDISPATCH
   \   000003   ......       DC24    ZDO_ParseNodeDescRsp

   \                                 In  segment BANK_RELAYS, align 1
   \                     ??ZDO_ParsePowerDescRsp?relay:
   \   000000   12....       LCALL   ?BDISPATCH
   \   000003   ......       DC24    ZDO_ParsePowerDescRsp

   \                                 In  segment BANK_RELAYS, align 1
   \                     ??ZDO_ParseSimpleDescRsp?relay:
   \   000000   12....       LCALL   ?BDISPATCH
   \   000003   ......       DC24    ZDO_ParseSimpleDescRsp

   \                                 In  segment BANK_RELAYS, align 1
   \                     ??ZDO_ParseEPListRsp?relay:
   \   000000   12....       LCALL   ?BDISPATCH
   \   000003   ......       DC24    ZDO_ParseEPListRsp

   \                                 In  segment BANK_RELAYS, align 1
   \                     ??ZDO_ParseServerDiscRsp?relay:
   \   000000   12....       LCALL   ?BDISPATCH
   \   000003   ......       DC24    ZDO_ParseServerDiscRsp

   \                                 In  segment BANK_RELAYS, align 1
   \                     ??ZDO_ParseMgmtLqiRsp?relay:
   \   000000   12....       LCALL   ?BDISPATCH
   \   000003   ......       DC24    ZDO_ParseMgmtLqiRsp

   \                                 In  segment BANK_RELAYS, align 1
   \                     ??ZDO_ParseMgmNwkDiscRsp?relay:
   \   000000   12....       LCALL   ?BDISPATCH
   \   000003   ......       DC24    ZDO_ParseMgmNwkDiscRsp

   \                                 In  segment BANK_RELAYS, align 1
   \                     ??ZDO_ParseMgmtRtgRsp?relay:
   \   000000   12....       LCALL   ?BDISPATCH
   \   000003   ......       DC24    ZDO_ParseMgmtRtgRsp

   \                                 In  segment BANK_RELAYS, align 1
   \                     ??ZDO_ParseMgmtBindRsp?relay:
   \   000000   12....       LCALL   ?BDISPATCH
   \   000003   ......       DC24    ZDO_ParseMgmtBindRsp

   \                                 In  segment BANK_RELAYS, align 1
   \                     ??ZDO_ParseUserDescRsp?relay:
   \   000000   12....       LCALL   ?BDISPATCH
   \   000003   ......       DC24    ZDO_ParseUserDescRsp

   \                                 In  segment BANK_RELAYS, align 1
   \                     ??ZDO_ParseSimpleDescBuf?relay:
   \   000000   12....       LCALL   ?BDISPATCH
   \   000003   ......       DC24    ZDO_ParseSimpleDescBuf

   \                                 In  segment BANK_RELAYS, align 1
   \                     ??ZDO_ParseDeviceAnnce?relay:
   \   000000   12....       LCALL   ?BDISPATCH
   \   000003   ......       DC24    ZDO_ParseDeviceAnnce

   \                                 In  segment BANK_RELAYS, align 1
   \                     ??ZDO_ParseMgmtNwkUpdateNotify?relay:
   \   000000   12....       LCALL   ?BDISPATCH
   \   000003   ......       DC24    ZDO_ParseMgmtNwkUpdateNotify

   \                                 In  segment BANK_RELAYS, align 1
   \                     ??ZDO_ParseMgmtNwkUpdateReq?relay:
   \   000000   12....       LCALL   ?BDISPATCH
   \   000003   ......       DC24    ZDO_ParseMgmtNwkUpdateReq

   \                                 In  segment XDATA_ROM_C, align 1
   \                     `?<Constant "StartDevice ERR">`:
   \   000000   53746172     DB "StartDevice ERR"
   \            74446576
   \            69636520
   \            45525200

   \                                 In  segment XDATA_ROM_C, align 1
   \                     `?<Constant "MODE unknown">`:
   \   000000   4D4F4445     DB "MODE unknown"
   \            20756E6B
   \            6E6F776E
   \            00      

   \                                 In  segment XDATA_ROM_C, align 1
   \                     `?<Constant "End Device Bind">`:
   \   000000   456E6420     DB "End Device Bind"
   \            44657669
   \            63652042
   \            696E6400

   \                                 In  segment XDATA_ROM_C, align 1
   \                     `?<Constant "Success Sent">`:
   \   000000   53756363     DB "Success Sent"
   \            65737320
   \            53656E74
   \            00      

   \                                 In  segment XDATA_ROM_C, align 1
   \                     `?<Constant "Timeout">`:
   \   000000   54696D65     DB "Timeout"
   \            6F757400

   \                                 In  segment XDATA_ROM_C, align 1
   \                     `?<Constant "Match Desc Req">`:
   \   000000   4D617463     DB "Match Desc Req"
   \            68204465
   \            73632052
   \            657100  

   \                                 In  segment XDATA_ROM_C, align 1
   \                     `?<Constant "Rsp Sent">`:
   \   000000   52737020     DB "Rsp Sent"
   \            53656E74
   \            00      

   \                                 In  segment XDATA_ROM_C, align 1
   \                     `?<Constant "Non Matched">`:
   \   000000   4E6F6E20     DB "Non Matched"
   \            4D617463
   \            68656400

   \                                 In  segment XDATA_ROM_C, align 1
   \                     __Constant_0:
   \   000000   00000000     DD 0
   3078          
   3079          /*********************************************************************
   3080          *********************************************************************/
   3081          
   3082          

   Maximum stack usage in bytes:

     Function                       ISTACK PSTACK XSTACK
     --------                       ------ ------ ------
     NLME_PermitJoiningTimeout          0      0      0
     ZDMatchSendState                   1      0     70
       -> APS_SetEndDeviceBindTimeout
                                        0      0     76
       -> sAddrExtCpy                   0      0     76
       -> ZDP_BindUnbindReq             0      0     92
       -> APS_SetEndDeviceBindTimeout
                                        0      0     76
       -> ZDP_SendData                  0      0     86
       -> ZDP_SendData                  0      0     86
       -> ZDO_RemoveMatchMemory         0      0     76
     ZDODeviceSetup                     2      0      0
       -> NLME_CoordinatorInit          4      0      0
       -> APS_ReflectorInit             4      0      0
     ZDO_AnyClusterMatches              0      0     41
     ZDO_BuildSimpleDescBuf             1      0     14
     ZDO_CompareClusterLists            0      0     44
     ZDO_ConvertOTAClusters             0      0     37
     ZDO_CopyMatchInfo                  0      0     47
       -> osal_memcpy                   0      0     46
       -> osal_mem_alloc                0      0     40
       -> osal_memcpy                   0      0     46
       -> osal_mem_alloc                0      0     40
       -> osal_memcpy                   0      0     46
       -> osal_mem_free                 0      0     40
       -> osal_mem_free                 0      0     40
     ZDO_EndDeviceBindMatchTimeoutCB
                                        2      0      0
       -> ZDMatchSendState              4      0      0
     ZDO_EndDeviceTimeoutCB             2      0      0
       -> ZDO_SendEDBindRsp             4      0      0
       -> ZDO_RemoveEndDeviceBind       4      0      0
     ZDO_Init                           2      0      0
       -> sAddrExtCpy                   4      0      0
       -> ZDODeviceSetup                4      0      0
     ZDO_MatchEndDeviceBind             1      0     29
       -> osal_mem_alloc                0      0     48
       -> osal_memset                   0      0     48
       -> ZDO_CopyMatchInfo             0      0     48
       -> APS_SetEndDeviceBindTimeout
                                        0      0     48
       -> ZDO_CopyMatchInfo             0      0     48
       -> ZDO_CompareClusterLists       0      0     56
       -> osal_mem_alloc                0      0     48
       -> osal_memcpy                   0      0     54
       -> ZDO_CompareClusterLists       0      0     56
       -> osal_mem_alloc                0      0     48
       -> osal_memcpy                   0      0     54
       -> ZDMatchSendState              0      0     48
       -> ZDP_SendData                  0      0     58
       -> ZDP_SendData                  0      0     58
       -> ZDO_RemoveMatchMemory         0      0     48
     ZDO_ParseAddrRsp                   1      0     14
       -> osal_mem_alloc                0      0     28
       -> sAddrExtCpy                   0      0     28
     ZDO_ParseBindUnbindReq             1      0     10
       -> sAddrExtCpy                   0      0     20
       -> sAddrExtCpy                   0      0     20
     ZDO_ParseDeviceAnnce               1      0     52
       -> sAddrExtCpy                   0      0     20
     ZDO_ParseEPListRsp                 1      0     19
       -> osal_mem_alloc                0      0     32
       -> osal_memcpy                   0      0     38
     ZDO_ParseEndDeviceBindReq          1      0     16
       -> sAddrExtCpy                   0      0     32
       -> osal_mem_alloc                0      0     32
       -> ZDO_ConvertOTAClusters        0      0     32
       -> osal_mem_alloc                0      0     32
       -> ZDO_ConvertOTAClusters        0      0     32
     ZDO_ParseMgmNwkDiscRsp             1      0     16
       -> osal_mem_alloc                0      0     32
       -> sAddrExtCpy                   0      0     32
     ZDO_ParseMgmtBindRsp               1      0     16
       -> osal_mem_alloc                0      0     32
       -> sAddrExtCpy                   0      0     32
       -> sAddrExtCpy                   0      0     32
     ZDO_ParseMgmtLqiRsp                1      0     16
       -> osal_mem_alloc                0      0     32
       -> sAddrExtCpy                   0      0     32
     ZDO_ParseMgmtNwkUpdateNotify       1      0     23
       -> osal_build_uint32             0      0     40
       -> osal_mem_alloc                0      0     40
       -> osal_memcpy                   0      0     46
     ZDO_ParseMgmtNwkUpdateReq          1      0     10
       -> osal_build_uint32             0      0     20
     ZDO_ParseMgmtRtgRsp                1      0     14
       -> osal_mem_alloc                0      0     28
     ZDO_ParseNodeDescRsp               2      0      9
     ZDO_ParsePowerDescRsp              1      0      9
     ZDO_ParseServerDiscRsp             1      0      9
     ZDO_ParseSimpleDescBuf             1      0     22
       -> osal_mem_alloc                0      0     26
       -> osal_mem_alloc                0      0     26
       -> osal_mem_free                 0      0     26
     ZDO_ParseSimpleDescRsp             1      0      9
       -> ZDO_ParseSimpleDescBuf        0      0     18
     ZDO_ParseUserDescRsp               1      0     19
       -> osal_mem_alloc                0      0     32
       -> osal_memcpy                   0      0     38
     ZDO_ProcessActiveEPReq             0      0     21
       -> NLME_GetShortAddr             0      0     28
       -> afNumEndPoints                0      0     28
       -> afEndPoints                   0      0     28
       -> ZDP_EPRsp                     0      0     42
     ZDO_ProcessBindUnbindReq           0      0     33
       -> sAddrExtCpy                   0      0     56
       -> NLME_GetExtAddr               0      0     56
       -> sAddrExtCmp                   0      0     56
       -> bindNumOfEntries              0      0     56
       -> APSME_BindRequest             0      0     58
       -> ZDApp_NVUpdate                0      0     56
       -> APSME_LookupNwkAddr           0      0     56
       -> ZDP_NwkAddrReq                0      0     56
       -> APSME_UnBindRequest           0      0     58
       -> ZDApp_NVUpdate                0      0     56
       -> ZDP_SendData                  0      0     66
     ZDO_ProcessDeviceAnnce             2      0     42
       -> ZDO_ParseDeviceAnnce          0      0     84
       -> nwkNeighborRemoveAllStranded
                                        0      0     84
       -> NLME_CheckNewAddrSet          0      0     84
       -> NLME_GetCoordExtAddr          0      0     84
       -> sAddrExtCmp                   0      0     84
       -> NLME_GetCoordShortAddr        0      0     84
       -> ZMacSetReq                    0      0     84
       -> NLME_GetShortAddr             4      0     84
       -> AssocGetWithExt               0      0     84
       -> AssocRemove                   0      0     84
       -> NLME_GetShortAddr             0      0     84
       -> AssocChangeNwkAddr            0      0     84
       -> nwkNeighborUpdateNwkAddr      0      0     84
       -> ZDApp_NVUpdate                0      0     84
       -> AddrMgrEntryLookupNwk         0      0     84
       -> osal_memset                   0      0     84
       -> sAddrExtCmp                   0      0     84
       -> AddrMgrExtAddrSet             0      0     84
       -> AddrMgrEntryUpdate            0      0     84
     ZDO_ProcessMatchDescReq            1      0     34
       -> NLME_IsAddressBroadcast       0      0     54
       -> ZDP_EPRsp                     0      0     68
       -> NLME_IsAddressBroadcast       0      0     54
       -> osal_mem_alloc                0      0     54
       -> ZDO_ConvertOTAClusters        0      0     54
       -> osal_mem_alloc                0      0     54
       -> ZDO_ConvertOTAClusters        0      0     54
       -> osal_msg_send                 0      0     54
       -> osal_mem_free                 0      0     54
       -> ZDO_AnyClusterMatches         0      0     58
       -> ZDO_AnyClusterMatches         0      0     58
       -> osal_msg_allocate             0      0     54
       -> osal_memcpy                   0      0     60
       -> osal_memcpy                   0      0     60
       -> ZDP_EPRsp                     0      0     68
       -> HalLcdWriteScreen             0      0     54
       -> HalLcdWriteScreen             0      0     54
       -> osal_mem_free                 0      0     54
       -> osal_mem_free                 0      0     54
     ZDO_ProcessMgmtBindReq             1      0     26
       -> APSME_GetRequest              0      0     42
       -> osal_mem_alloc                0      0     42
       -> APSME_GetRequest              0      0     42
       -> ZDP_MgmtBindRsp               0      0     52
       -> osal_mem_free                 0      0     42
     ZDO_ProcessMgmtDirectJoinReq       1      0     16
       -> NLME_DirectJoinRequest        0      0     22
       -> ZDP_SendData                  0      0     32
     ZDO_ProcessMgmtLeaveReq            1      0     23
       -> AddrMgrExtAddrValid           0      0     36
       -> NLME_GetExtAddr               0      0     36
       -> sAddrExtCmp                   0      0     36
       -> NLME_LeaveReq                 0      0     36
       -> ZDP_SendData                  0      0     46
     ZDO_ProcessMgmtLqiReq              1      0     64
       -> NLME_GetRequest               0      0    118
       -> AssocCount                    0      0    118
       -> osal_mem_alloc                0      0    118
       -> osal_memset                   0      0    118
       -> AssocFindDevice               0      0    118
       -> sAddrExtCpy                   0      0    118
       -> AddrMgrEntryLookupNwk         0      0    118
       -> sAddrExtCpy                   0      0    118
       -> NLME_GetRequest               0      0    118
       -> sAddrExtCpy                   0      0    118
       -> osal_memset                   0      0    118
       -> ZDP_MgmtLqiRsp                0      0    128
       -> osal_mem_free                 0      0    118
     ZDO_ProcessMgmtNwkDiscReq          1      0     17
       -> osal_build_uint32             0      0     34
       -> NLME_NwkDiscReq2              0      0     34
       -> NLME_NwkDiscTerm              0      0     34
     ZDO_ProcessMgmtPermitJoinReq       1      0     16
       -> NLME_PermitJoiningRequest     0      0     22
       -> ZDP_SendData                  0      0     32
     ZDO_ProcessMgmtRtgReq              0      0     26
       -> NLME_GetRequest               0      0     42
       -> osal_mem_alloc                0      0     42
       -> NLME_GetRequest               0      0     42
       -> ZDP_MgmtRtgRsp                0      0     52
       -> osal_mem_free                 0      0     42
     ZDO_ProcessNodeDescReq             0      0     14
       -> ZDP_NodeDescMsg               0      0     24
       -> ZDP_GenericRsp                0      0     28
     ZDO_ProcessPowerDescReq            0      0     14
       -> ZDP_PowerDescMsg              0      0     24
       -> ZDP_GenericRsp                0      0     28
     ZDO_ProcessServerDiscReq           0      0     14
       -> ZDP_ServerDiscRsp             0      0     28
     ZDO_ProcessSimpleDescReq           0      0     12
       -> afFindSimpleDesc              0      0     24
       -> ZDP_SimpleDescMsg             0      0     24
       -> osal_mem_free                 0      0     24
     ZDO_ProcessUserDescReq             0      0     33
       -> osal_nv_read                  0      0     66
       -> ZDP_UserDescRsp               0      0     64
       -> ZDP_GenericRsp                0      0     66
     ZDO_ProcessUserDescSet             1      0     40
       -> osal_memcpy                   0      0     76
       -> osal_nv_write                 0      0     78
       -> ZDP_SendData                  0      0     80
     ZDO_RemoveEndDeviceBind            2      0      0
       -> osal_mem_free                 4      0      0
       -> osal_mem_free                 4      0      0
       -> osal_mem_free                 4      0      0
     ZDO_RemoveMatchMemory              2      0     38
       -> osal_mem_free                 4      0      0
       -> osal_mem_free                 4      0      0
       -> osal_mem_free                 4      0      0
       -> osal_mem_free                 4      0      0
       -> osal_mem_free                 4      0      0
       -> osal_mem_free                 4      0      0
       -> osal_mem_free                 4      0      0
     ZDO_SendEDBindRsp                  1      0     17
       -> ZDP_SendData                  0      0     34
       -> HalLcdWriteString             0      0     24
       -> HalLcdWriteString             0      0     24
       -> HalLcdWriteString             0      0     24
     ZDO_StartDevice                    0      0     18
       -> NLME_NetworkFormationRequest
                                        0      0     36
       -> NLME_StartRouterRequest       0      0     22
       -> HalLcdWriteScreen             0      0     22
       -> osal_start_timerEx            0      0     22
     ZDO_UpdateAddrManager              2      0     13
       -> AddrMgrExtAddrSet             4      0     26
       -> AddrMgrEntryUpdate            4      0     26
     ZDO_UpdateNwkStatus                1      0     12
       -> NLME_GetShortAddr             0      0     24
       -> NLME_GetExtAddr               0      0     24
       -> osal_msg_allocate             0      0     24
       -> osal_msg_send                 0      0     24


   Segment part sizes:

     Function/Label                          Bytes
     --------------                          -----
     ZDOBuildBuf                               52
     ZDO_EDBind                                 2
     matchED                                    2
     apsChannelMask                             4
     ZDO_Init                                  32
     ZDODeviceSetup                            19
     ZDO_StartDevice                          143
     ZDO_UpdateNwkStatus                      117
     ZDO_RemoveEndDeviceBind                  115
     ZDO_SendEDBindRsp                        130
     ZDO_CompareClusterLists                  141
     ZDO_AnyClusterMatches                    106
     ZDO_ProcessNodeDescReq                   168
     ZDO_ProcessPowerDescReq                  168
     ZDO_ProcessSimpleDescReq                 211
     ZDO_ProcessActiveEPReq                   186
     ZDO_ConvertOTAClusters                    70
     ZDO_ProcessMatchDescReq                 1440
     ZDO_ProcessBindUnbindReq                 526
     ZDO_UpdateAddrManager                     63
     ZDO_ProcessServerDiscReq                 124
     ZDO_EndDeviceTimeoutCB                    90
     ZDO_ProcessMgmtLqiReq                   1027
     ZDO_ProcessMgmtNwkDiscReq                174
     ZDO_ProcessMgmtRtgReq                    345
     ZDO_ProcessMgmtBindReq                   370
     ZDO_ProcessMgmtDirectJoinReq             139
     ZDO_ProcessMgmtLeaveReq                  218
     ZDO_ProcessMgmtPermitJoinReq             129
     NLME_PermitJoiningTimeout                  3
     ZDO_ProcessUserDescReq                   247
     ZDO_ProcessUserDescSet                   355
     ZDO_ProcessDeviceAnnce                   449
     ZDO_BuildSimpleDescBuf                   333
     ZDO_MatchEndDeviceBind                  1047
     ZDO_RemoveMatchMemory                    266
     ZDO_CopyMatchInfo                        502
     ZDMatchSendState                         999
     ZDO_EndDeviceBindMatchTimeoutCB
                                               20
     ZDO_ParseEndDeviceBindReq                463
     ZDO_ParseBindUnbindReq                   214
     ZDO_ParseAddrRsp                         320
     ZDO_ParseNodeDescRsp                     432
     ZDO_ParsePowerDescRsp                    216
     ZDO_ParseSimpleDescRsp                    87
     ZDO_ParseEPListRsp                       157
     ZDO_ParseServerDiscRsp                    77
     ZDO_ParseMgmtLqiRsp                      262
     ZDO_ParseMgmNwkDiscRsp                   387
     ZDO_ParseMgmtRtgRsp                      230
     ZDO_ParseMgmtBindRsp                     374
     ZDO_ParseUserDescRsp                     170
     ZDO_ParseSimpleDescBuf                   453
     ZDO_ParseDeviceAnnce                     103
     ZDO_ParseMgmtNwkUpdateNotify             607
     ZDO_ParseMgmtNwkUpdateReq                182
     ??ZDO_Init?relay                           6
     ??ZDODeviceSetup?relay                     6
     ??ZDO_StartDevice?relay                    6
     ??ZDO_UpdateNwkStatus?relay                6
     ??ZDO_RemoveEndDeviceBind?relay            6
     ??ZDO_SendEDBindRsp?relay                  6
     ??ZDO_CompareClusterLists?relay            6
     ??ZDO_AnyClusterMatches?relay              6
     ??ZDO_ProcessNodeDescReq?relay             6
     ??ZDO_ProcessPowerDescReq?relay            6
     ??ZDO_ProcessSimpleDescReq?relay           6
     ??ZDO_ProcessActiveEPReq?relay             6
     ??ZDO_ConvertOTAClusters?relay             6
     ??ZDO_ProcessMatchDescReq?relay            6
     ??ZDO_ProcessBindUnbindReq?relay           6
     ??ZDO_UpdateAddrManager?relay              6
     ??ZDO_ProcessServerDiscReq?relay           6
     ??ZDO_EndDeviceTimeoutCB?relay             6
     ??ZDO_ProcessMgmtLqiReq?relay              6
     ??ZDO_ProcessMgmtNwkDiscReq?relay          6
     ??ZDO_ProcessMgmtRtgReq?relay              6
     ??ZDO_ProcessMgmtBindReq?relay             6
     ??ZDO_ProcessMgmtDirectJoinReq?relay       6
     ??ZDO_ProcessMgmtLeaveReq?relay            6
     ??ZDO_ProcessMgmtPermitJoinReq?relay       6
     ??NLME_PermitJoiningTimeout?relay          6
     ??ZDO_ProcessUserDescReq?relay             6
     ??ZDO_ProcessUserDescSet?relay             6
     ??ZDO_ProcessDeviceAnnce?relay             6
     ??ZDO_BuildSimpleDescBuf?relay             6
     ??ZDO_MatchEndDeviceBind?relay             6
     ??ZDO_RemoveMatchMemory?relay              6
     ??ZDO_CopyMatchInfo?relay                  6
     ??ZDMatchSendState?relay                   6
     ??ZDO_EndDeviceBindMatchTimeoutCB?relay    6
     ??ZDO_ParseEndDeviceBindReq?relay          6
     ??ZDO_ParseBindUnbindReq?relay             6
     ??ZDO_ParseAddrRsp?relay                   6
     ??ZDO_ParseNodeDescRsp?relay               6
     ??ZDO_ParsePowerDescRsp?relay              6
     ??ZDO_ParseSimpleDescRsp?relay             6
     ??ZDO_ParseEPListRsp?relay                 6
     ??ZDO_ParseServerDiscRsp?relay             6
     ??ZDO_ParseMgmtLqiRsp?relay                6
     ??ZDO_ParseMgmNwkDiscRsp?relay             6
     ??ZDO_ParseMgmtRtgRsp?relay                6
     ??ZDO_ParseMgmtBindRsp?relay               6
     ??ZDO_ParseUserDescRsp?relay               6
     ??ZDO_ParseSimpleDescBuf?relay             6
     ??ZDO_ParseDeviceAnnce?relay               6
     ??ZDO_ParseMgmtNwkUpdateNotify?relay       6
     ??ZDO_ParseMgmtNwkUpdateReq?relay          6
     ?<Constant "StartDevice ERR">             16
     ?<Constant "MODE unknown">                13
     ?<Constant "End Device Bind">             16
     ?<Constant "Success Sent">                13
     ?<Constant "Timeout">                      8
     ?<Constant "Match Desc Req">              15
     ?<Constant "Rsp Sent">                     9
     ?<Constant "Non Matched">                 12
     __Constant_0                               4

 
 15 206 bytes in segment BANKED_CODE
    312 bytes in segment BANK_RELAYS
    106 bytes in segment XDATA_ROM_C
     60 bytes in segment XDATA_Z
 
 15 518 bytes of CODE  memory
    102 bytes of CONST memory (+ 4 bytes shared)
     60 bytes of XDATA memory

Errors: none
Warnings: none
