///////////////////////////////////////////////////////////////////////////////
//                                                                            /
// IAR C/C++ Compiler V8.10.3.10338/W32 for 8051        08/Aug/2016  14:20:47 /
// Copyright 2004-2011 IAR Systems AB.                                        /
//                                                                            /
//    Core               =  plain                                             /
//    Code model         =  banked                                            /
//    Data model         =  large                                             /
//    Calling convention =  xdata reentrant                                   /
//    Constant location  =  data_rom                                          /
//    Dptr setup         =  1,16                                              /
//    Source file        =  C:\Users\zhuyi\Desktop\2016 µçÈü                  /
//                          ¾öÈü\8.6\Components\zmac\f8w\zmac_cb.c            /
//    Command line       =  -f "C:\Users\zhuyi\Desktop\2016 µçÈü              /
//                          ¾öÈü\8.6\Projects\zstack\Utilities\SerialApp\CC25 /
//                          30DB\..\..\..\Tools\CC2530DB\f8wCoord.cfg"        /
//                          (-DCPU32MHZ -DROOT=__near_func                    /
//                          -DMAC_CFG_APP_PENDING_QUEUE=TRUE                  /
//                          -DZDO_COORDINATOR -DRTR_NWK -DBLINK_LEDS) -f      /
//                          "C:\Users\zhuyi\Desktop\2016 µçÈü                 /
//                          ¾öÈü\8.6\Projects\zstack\Utilities\SerialApp\CC25 /
//                          30DB\..\..\..\Tools\CC2530DB\f8wConfig.cfg"       /
//                          (-DSECURE=0 -DZG_SECURE_DYNAMIC=0 -DREFLECTOR     /
//                          -DDEFAULT_CHANLIST=0x00000800                     /
//                          -DZDAPP_CONFIG_PAN_ID=0xFFF1                      /
//                          -DNWK_START_DELAY=100 -DEXTENDED_JOINING_RANDOM_M /
//                          ASK=0x007F -DBEACON_REQUEST_DELAY=100             /
//                          -DBEACON_REQ_DELAY_MASK=0x00FF                    /
//                          -DROUTE_EXPIRY_TIME=30 -DAPSC_ACK_WAIT_DURATION_P /
//                          OLLED=3000 -DNWK_INDIRECT_MSG_TIMEOUT=7           /
//                          -DMAX_RREQ_ENTRIES=8 -DAPSC_MAX_FRAME_RETRIES=3   /
//                          -DNWK_MAX_DATA_RETRIES=2                          /
//                          -DMAX_POLL_FAILURE_RETRIES=2 -DMAX_BCAST=9        /
//                          -DAPS_MAX_GROUPS=16 -DMAX_RTG_ENTRIES=40          /
//                          -DNWK_MAX_BINDING_ENTRIES=4                       /
//                          -DMAX_BINDING_CLUSTER_IDS=4                       /
//                          "-DDEFAULT_KEY={0x01, 0x03, 0x05, 0x07, 0x09,     /
//                          0x0B, 0x0D, 0x0F, 0x00, 0x02, 0x04, 0x06, 0x08,   /
//                          0x0A, 0x0C, 0x0D}" -DMAC_MAX_FRAME_SIZE=116       /
//                          "-DCONST=const __code" -DGENERIC=__generic        /
//                          -DRFD_RCVC_ALWAYS_ON=FALSE -DPOLL_RATE=1000       /
//                          -DQUEUED_POLL_RATE=100 -DRESPONSE_POLL_RATE=100)  /
//                          -DREJOIN_POLL_RATE=440 "C:\Users\zhuyi\Desktop\20 /
//                          16 µçÈü  ¾öÈü\8.6\Components\zmac\f8w\zmac_cb.c"  /
//                          -D ZIGBEEPRO -D HAL_UART=TRUE -D                  /
//                          SERIAL_APP_PORT=0 -D LCD_SUPPORTED -D NV_RESTORE  /
//                          -lC "C:\Users\zhuyi\Desktop\2016 µçÈü             /
//                          ¾öÈü\8.6\Projects\zstack\Utilities\SerialApp\CC25 /
//                          30DB\CoordinatorEB-Pro\List\" -lA                 /
//                          "C:\Users\zhuyi\Desktop\2016 µçÈü                 /
//                          ¾öÈü\8.6\Projects\zstack\Utilities\SerialApp\CC25 /
//                          30DB\CoordinatorEB-Pro\List\" --diag_suppress     /
//                          Pe001,Pa010 -o "C:\Users\zhuyi\Desktop\2016 µçÈü  /
//                           ¾öÈü\8.6\Projects\zstack\Utilities\SerialApp\CC2 /
//                          530DB\CoordinatorEB-Pro\Obj\" -e --no_unroll      /
//                          --no_inline --no_tbaa --debug --core=plain        /
//                          --dptr=16,1 --data_model=large                    /
//                          --code_model=banked --calling_convention=xdata_re /
//                          entrant --place_constants=data_rom                /
//                          --nr_virtual_regs 8 -I "C:\Users\zhuyi\Desktop\20 /
//                          16 µçÈü  ¾öÈü\8.6\Projects\zstack\Utilities\Seria /
//                          lApp\CC2530DB\" -I "C:\Users\zhuyi\Desktop\2016   /
//                          µçÈü  ¾öÈü\8.6\Projects\zstack\Utilities\SerialAp /
//                          p\CC2530DB\..\SOURCE\" -I                         /
//                          "C:\Users\zhuyi\Desktop\2016 µçÈü                 /
//                          ¾öÈü\8.6\Projects\zstack\Utilities\SerialApp\CC25 /
//                          30DB\..\..\..\ZMAIN\TI2530DB\" -I                 /
//                          "C:\Users\zhuyi\Desktop\2016 µçÈü                 /
//                          ¾öÈü\8.6\Projects\zstack\Utilities\SerialApp\CC25 /
//                          30DB\..\..\..\..\..\COMPONENTS\MT\" -I            /
//                          "C:\Users\zhuyi\Desktop\2016 µçÈü                 /
//                          ¾öÈü\8.6\Projects\zstack\Utilities\SerialApp\CC25 /
//                          30DB\..\..\..\..\..\COMPONENTS\HAL\INCLUDE\" -I   /
//                          "C:\Users\zhuyi\Desktop\2016 µçÈü                 /
//                          ¾öÈü\8.6\Projects\zstack\Utilities\SerialApp\CC25 /
//                          30DB\..\..\..\..\..\COMPONENTS\HAL\TARGET\CC2530E /
//                          B\" -I "C:\Users\zhuyi\Desktop\2016 µçÈü          /
//                          ¾öÈü\8.6\Projects\zstack\Utilities\SerialApp\CC25 /
//                          30DB\..\..\..\..\..\COMPONENTS\OSAL\MCU\CCSOC\"   /
//                          -I "C:\Users\zhuyi\Desktop\2016 µçÈü              /
//                          ¾öÈü\8.6\Projects\zstack\Utilities\SerialApp\CC25 /
//                          30DB\..\..\..\..\..\COMPONENTS\OSAL\INCLUDE\" -I  /
//                          "C:\Users\zhuyi\Desktop\2016 µçÈü                 /
//                          ¾öÈü\8.6\Projects\zstack\Utilities\SerialApp\CC25 /
//                          30DB\..\..\..\..\..\COMPONENTS\STACK\AF\" -I      /
//                          "C:\Users\zhuyi\Desktop\2016 µçÈü                 /
//                          ¾öÈü\8.6\Projects\zstack\Utilities\SerialApp\CC25 /
//                          30DB\..\..\..\..\..\COMPONENTS\STACK\NWK\" -I     /
//                          "C:\Users\zhuyi\Desktop\2016 µçÈü                 /
//                          ¾öÈü\8.6\Projects\zstack\Utilities\SerialApp\CC25 /
//                          30DB\..\..\..\..\..\COMPONENTS\STACK\SEC\" -I     /
//                          "C:\Users\zhuyi\Desktop\2016 µçÈü                 /
//                          ¾öÈü\8.6\Projects\zstack\Utilities\SerialApp\CC25 /
//                          30DB\..\..\..\..\..\COMPONENTS\STACK\SAPI\" -I    /
//                          "C:\Users\zhuyi\Desktop\2016 µçÈü                 /
//                          ¾öÈü\8.6\Projects\zstack\Utilities\SerialApp\CC25 /
//                          30DB\..\..\..\..\..\COMPONENTS\STACK\SYS\" -I     /
//                          "C:\Users\zhuyi\Desktop\2016 µçÈü                 /
//                          ¾öÈü\8.6\Projects\zstack\Utilities\SerialApp\CC25 /
//                          30DB\..\..\..\..\..\COMPONENTS\STACK\ZDO\" -I     /
//                          "C:\Users\zhuyi\Desktop\2016 µçÈü                 /
//                          ¾öÈü\8.6\Projects\zstack\Utilities\SerialApp\CC25 /
//                          30DB\..\..\..\..\..\COMPONENTS\ZMAC\F8W\" -I      /
//                          "C:\Users\zhuyi\Desktop\2016 µçÈü                 /
//                          ¾öÈü\8.6\Projects\zstack\Utilities\SerialApp\CC25 /
//                          30DB\..\..\..\..\..\COMPONENTS\ZMAC\" -I          /
//                          "C:\Users\zhuyi\Desktop\2016 µçÈü                 /
//                          ¾öÈü\8.6\Projects\zstack\Utilities\SerialApp\CC25 /
//                          30DB\..\..\..\..\..\COMPONENTS\SERVICES\SADDR\"   /
//                          -I "C:\Users\zhuyi\Desktop\2016 µçÈü              /
//                          ¾öÈü\8.6\Projects\zstack\Utilities\SerialApp\CC25 /
//                          30DB\..\..\..\..\..\COMPONENTS\SERVICES\SDATA\"   /
//                          -I "C:\Users\zhuyi\Desktop\2016 µçÈü              /
//                          ¾öÈü\8.6\Projects\zstack\Utilities\SerialApp\CC25 /
//                          30DB\..\..\..\..\..\COMPONENTS\MAC\INCLUDE\" -I   /
//                          "C:\Users\zhuyi\Desktop\2016 µçÈü                 /
//                          ¾öÈü\8.6\Projects\zstack\Utilities\SerialApp\CC25 /
//                          30DB\..\..\..\..\..\COMPONENTS\MAC\HIGH_LEVEL\"   /
//                          -I "C:\Users\zhuyi\Desktop\2016 µçÈü              /
//                          ¾öÈü\8.6\Projects\zstack\Utilities\SerialApp\CC25 /
//                          30DB\..\..\..\..\..\COMPONENTS\MAC\LOW_LEVEL\srf0 /
//                          4\" -I "C:\Users\zhuyi\Desktop\2016 µçÈü          /
//                          ¾öÈü\8.6\Projects\zstack\Utilities\SerialApp\CC25 /
//                          30DB\..\..\..\..\..\COMPONENTS\MAC\LOW_LEVEL\srf0 /
//                          4\SINGLE_CHIP\" -Om --require_prototypes          /
//    List file          =  C:\Users\zhuyi\Desktop\2016 µçÈü                  /
//                          ¾öÈü\8.6\Projects\zstack\Utilities\SerialApp\CC25 /
//                          30DB\CoordinatorEB-Pro\List\zmac_cb.s51           /
//                                                                            /
//                                                                            /
///////////////////////////////////////////////////////////////////////////////

        NAME zmac_cb

        RTMODEL "__SystemLibrary", "CLib"
        RTMODEL "__calling_convention", "xdata_reentrant"
        RTMODEL "__code_model", "banked"
        RTMODEL "__core", "plain"
        RTMODEL "__data_model", "large"
        RTMODEL "__dptr_size", "16"
        RTMODEL "__extended_stack", "disabled"
        RTMODEL "__location_for_constants", "data"
        RTMODEL "__number_of_dptrs", "1"
        RTMODEL "__rt_version", "1"

        RSEG DOVERLAY:DATA:NOROOT(0)
        RSEG IOVERLAY:IDATA:NOROOT(0)
        RSEG ISTACK:IDATA:NOROOT(0)
        RSEG PSTACK:XDATA:NOROOT(0)
        RSEG XSTACK:XDATA:NOROOT(0)

        EXTERN ?ALLOC_XSTACK8
        EXTERN ?BANKED_ENTER_XDATA
        EXTERN ?BANKED_LEAVE_XDATA
        EXTERN ?BDISPATCH
        EXTERN ?BRET
        EXTERN ?CALL_IND
        EXTERN ?DEALLOC_XSTACK8
        EXTERN ?PUSH_XSTACK_I_THREE
        EXTERN ?V0
        EXTERN ?XSP
        EXTERN ?XSTACK_DISP0_8
        EXTERN __INIT_XDATA_Z

        PUBLIC ??MAC_CbackCheckPending?relay
        FUNCTION ??MAC_CbackCheckPending?relay,0203H
        PUBLIC ??MAC_CbackEvent?relay
        FUNCTION ??MAC_CbackEvent?relay,0203H
        PUBLIC MAC_CbackCheckPending
        FUNCTION MAC_CbackCheckPending,021203H
        ARGFRAME XSTACK, 0, STACK
        LOCFRAME ISTACK, 2, STACK
        PUBLIC MAC_CbackEvent
        FUNCTION MAC_CbackEvent,021203H
        ARGFRAME XSTACK, 0, STACK
        LOCFRAME ISTACK, 1, STACK
        LOCFRAME XSTACK, 24, STACK
        PUBWEAK _A_IEN0
        PUBLIC pZMac_AppCallback
        PUBLIC zmacCBSizeTable
        
        CFI Names cfiNames0
        CFI StackFrame CFA_SP SP IDATA
        CFI StackFrame CFA_PSP16 PSP16 XDATA
        CFI StackFrame CFA_XSP16 XSP16 XDATA
        CFI StaticOverlayFrame CFA_IOVERLAY IOVERLAY
        CFI StaticOverlayFrame CFA_DOVERLAY DOVERLAY
        CFI Resource `PSW.CY`:1, `B.BR0`:1, `B.BR1`:1, `B.BR2`:1, `B.BR3`:1
        CFI Resource `B.BR4`:1, `B.BR5`:1, `B.BR6`:1, `B.BR7`:1, `VB.BR8`:1
        CFI Resource `VB.BR9`:1, `VB.BR10`:1, `VB.BR11`:1, `VB.BR12`:1
        CFI Resource `VB.BR13`:1, `VB.BR14`:1, `VB.BR15`:1, VB:8, B:8, A:8
        CFI Resource PSW:8, DPL0:8, DPH0:8, R0:8, R1:8, R2:8, R3:8, R4:8, R5:8
        CFI Resource R6:8, R7:8, V0:8, V1:8, V2:8, V3:8, V4:8, V5:8, V6:8, V7:8
        CFI Resource SP:8, PSPH:8, PSPL:8, PSP16:16, XSPH:8, XSPL:8, XSP16:16
        CFI VirtualResource ?RET:24
        CFI Resource ?BRET_EXT:8
        CFI VirtualResource ?RET_HIGH:8, ?RET_LOW:8
        CFI ResourceParts PSP16 PSPH, PSPL
        CFI ResourceParts XSP16 XSPH, XSPL
        CFI ResourceParts ?RET ?BRET_EXT, ?RET_HIGH, ?RET_LOW
        CFI EndNames cfiNames0
        
        CFI Common cfiCommon0 Using cfiNames0
        CFI CodeAlign 1
        CFI DataAlign -1
        CFI ReturnAddress ?RET CODE
        CFI CFA_DOVERLAY Used
        CFI CFA_IOVERLAY Used
        CFI CFA_SP SP+-3
        CFI CFA_PSP16 PSP16+0
        CFI CFA_XSP16 XSP16+0
        CFI `PSW.CY` SameValue
        CFI `B.BR0` SameValue
        CFI `B.BR1` SameValue
        CFI `B.BR2` SameValue
        CFI `B.BR3` SameValue
        CFI `B.BR4` SameValue
        CFI `B.BR5` SameValue
        CFI `B.BR6` SameValue
        CFI `B.BR7` SameValue
        CFI `VB.BR8` SameValue
        CFI `VB.BR9` SameValue
        CFI `VB.BR10` SameValue
        CFI `VB.BR11` SameValue
        CFI `VB.BR12` SameValue
        CFI `VB.BR13` SameValue
        CFI `VB.BR14` SameValue
        CFI `VB.BR15` SameValue
        CFI VB SameValue
        CFI B Undefined
        CFI A Undefined
        CFI PSW SameValue
        CFI DPL0 SameValue
        CFI DPH0 SameValue
        CFI R0 Undefined
        CFI R1 Undefined
        CFI R2 Undefined
        CFI R3 Undefined
        CFI R4 Undefined
        CFI R5 Undefined
        CFI R6 SameValue
        CFI R7 SameValue
        CFI V0 SameValue
        CFI V1 SameValue
        CFI V2 SameValue
        CFI V3 SameValue
        CFI V4 SameValue
        CFI V5 SameValue
        CFI V6 SameValue
        CFI V7 SameValue
        CFI PSPH Undefined
        CFI PSPL Undefined
        CFI XSPH Undefined
        CFI XSPL Undefined
        CFI ?RET Concat
        CFI ?BRET_EXT Frame(CFA_SP, 3)
        CFI ?RET_HIGH Frame(CFA_SP, 2)
        CFI ?RET_LOW Frame(CFA_SP, 1)
        CFI EndCommon cfiCommon0
        
MAC_MlmeGetReq      SYMBOL "MAC_MlmeGetReq"
osal_msg_deallocate SYMBOL "osal_msg_deallocate"
osal_msg_allocate   SYMBOL "osal_msg_allocate"
macMainReserve      SYMBOL "macMainReserve"
osal_memcpy         SYMBOL "osal_memcpy"
osal_mem_free       SYMBOL "osal_mem_free"
osal_msg_send       SYMBOL "osal_msg_send"
nwkDB_ReturnIndirectHoldingCnt SYMBOL "nwkDB_ReturnIndirectHoldingCnt"
??MAC_MlmeGetReq?relay SYMBOL "?relay", MAC_MlmeGetReq
??macMainReserve?relay SYMBOL "?relay", macMainReserve
??nwkDB_ReturnIndirectHoldingCnt?relay SYMBOL "?relay", nwkDB_ReturnIndirectHoldingCnt
??osal_mem_free?relay SYMBOL "?relay", osal_mem_free
??osal_memcpy?relay SYMBOL "?relay", osal_memcpy
??osal_msg_allocate?relay SYMBOL "?relay", osal_msg_allocate
??osal_msg_deallocate?relay SYMBOL "?relay", osal_msg_deallocate
??osal_msg_send?relay SYMBOL "?relay", osal_msg_send
MAC_CbackCheckPending SYMBOL "MAC_CbackCheckPending"
??MAC_CbackCheckPending?relay SYMBOL "?relay", MAC_CbackCheckPending
MAC_CbackEvent      SYMBOL "MAC_CbackEvent"
??MAC_CbackEvent?relay SYMBOL "?relay", MAC_CbackEvent

        EXTERN MAC_MlmeGetReq
        FUNCTION MAC_MlmeGetReq,0202H
        ARGFRAME ISTACK, 0, STACK
        ARGFRAME PSTACK, 0, STACK
        ARGFRAME XSTACK, 21, STACK
        ARGFRAME IOVERLAY, 0, STATIC
        ARGFRAME DOVERLAY, 0, STATIC
        EXTERN osal_msg_deallocate
        FUNCTION osal_msg_deallocate,0202H
        ARGFRAME ISTACK, 0, STACK
        ARGFRAME PSTACK, 0, STACK
        ARGFRAME XSTACK, 21, STACK
        ARGFRAME IOVERLAY, 0, STATIC
        ARGFRAME DOVERLAY, 0, STATIC
        EXTERN osal_msg_allocate
        FUNCTION osal_msg_allocate,0202H
        ARGFRAME ISTACK, 0, STACK
        ARGFRAME PSTACK, 0, STACK
        ARGFRAME XSTACK, 21, STACK
        ARGFRAME IOVERLAY, 0, STATIC
        ARGFRAME DOVERLAY, 0, STATIC
        EXTERN macMainReserve
        FUNCTION macMainReserve,0202H
        ARGFRAME ISTACK, 0, STACK
        ARGFRAME PSTACK, 0, STACK
        ARGFRAME XSTACK, 21, STACK
        ARGFRAME IOVERLAY, 0, STATIC
        ARGFRAME DOVERLAY, 0, STATIC
        EXTERN osal_memcpy
        FUNCTION osal_memcpy,0202H
        ARGFRAME ISTACK, 0, STACK
        ARGFRAME PSTACK, 0, STACK
        ARGFRAME XSTACK, 24, STACK
        ARGFRAME IOVERLAY, 0, STATIC
        ARGFRAME DOVERLAY, 0, STATIC
        EXTERN osal_mem_free
        FUNCTION osal_mem_free,0202H
        ARGFRAME ISTACK, 0, STACK
        ARGFRAME PSTACK, 0, STACK
        ARGFRAME XSTACK, 21, STACK
        ARGFRAME IOVERLAY, 0, STATIC
        ARGFRAME DOVERLAY, 0, STATIC
        EXTERN osal_msg_send
        FUNCTION osal_msg_send,0202H
        ARGFRAME ISTACK, 0, STACK
        ARGFRAME PSTACK, 0, STACK
        ARGFRAME XSTACK, 21, STACK
        ARGFRAME IOVERLAY, 0, STATIC
        ARGFRAME DOVERLAY, 0, STATIC
        EXTERN nwkDB_ReturnIndirectHoldingCnt
        FUNCTION nwkDB_ReturnIndirectHoldingCnt,0202H
        ARGFRAME ISTACK, 2, STACK
        ARGFRAME PSTACK, 0, STACK
        ARGFRAME XSTACK, 0, STACK
        ARGFRAME IOVERLAY, 0, STATIC
        ARGFRAME DOVERLAY, 0, STATIC
        EXTERN ??MAC_MlmeGetReq?relay
        FUNCTION ??MAC_MlmeGetReq?relay,00H
        EXTERN ??macMainReserve?relay
        FUNCTION ??macMainReserve?relay,00H
        EXTERN ??nwkDB_ReturnIndirectHoldingCnt?relay
        FUNCTION ??nwkDB_ReturnIndirectHoldingCnt?relay,00H
        EXTERN ??osal_mem_free?relay
        FUNCTION ??osal_mem_free?relay,00H
        EXTERN ??osal_memcpy?relay
        FUNCTION ??osal_memcpy?relay,00H
        EXTERN ??osal_msg_allocate?relay
        FUNCTION ??osal_msg_allocate?relay,00H
        EXTERN ??osal_msg_deallocate?relay
        FUNCTION ??osal_msg_deallocate?relay,00H
        EXTERN ??osal_msg_send?relay
        FUNCTION ??osal_msg_send?relay,00H
        EXTERN NWK_TaskID
        EXTERN ZMac_ScanBuf

// C:\Users\zhuyi\Desktop\2016 µçÈü  ¾öÈü\8.6\Components\zmac\f8w\zmac_cb.c
//    1 /**************************************************************************************************
//    2   Filename:       zmac_cb.c
//    3   Revised:        $Date: 2009-03-06 14:52:01 -0800 (Fri, 06 Mar 2009) $
//    4   Revision:       $Revision: 19326 $
//    5 
//    6   Description:    This file contains the NWK functions that the ZMAC calls
//    7 
//    8 
//    9   Copyright 2005-2009 Texas Instruments Incorporated. All rights reserved.
//   10 
//   11   IMPORTANT: Your use of this Software is limited to those specific rights
//   12   granted under the terms of a software license agreement between the user
//   13   who downloaded the software, his/her employer (which must be your employer)
//   14   and Texas Instruments Incorporated (the "License").  You may not use this
//   15   Software unless you agree to abide by the terms of the License. The License
//   16   limits your use, and you acknowledge, that the Software may not be modified,
//   17   copied or distributed unless embedded on a Texas Instruments microcontroller
//   18   or used solely and exclusively in conjunction with a Texas Instruments radio
//   19   frequency transceiver, which is integrated into your product.  Other than for
//   20   the foregoing purpose, you may not use, reproduce, copy, prepare derivative
//   21   works of, modify, distribute, perform, display or sell this Software and/or
//   22   its documentation for any purpose.
//   23 
//   24   YOU FURTHER ACKNOWLEDGE AND AGREE THAT THE SOFTWARE AND DOCUMENTATION ARE
//   25   PROVIDED “AS IS” WITHOUT WARRANTY OF ANY KIND, EITHER EXPRESS OR IMPLIED, 
//   26   INCLUDING WITHOUT LIMITATION, ANY WARRANTY OF MERCHANTABILITY, TITLE, 
//   27   NON-INFRINGEMENT AND FITNESS FOR A PARTICULAR PURPOSE. IN NO EVENT SHALL
//   28   TEXAS INSTRUMENTS OR ITS LICENSORS BE LIABLE OR OBLIGATED UNDER CONTRACT,
//   29   NEGLIGENCE, STRICT LIABILITY, CONTRIBUTION, BREACH OF WARRANTY, OR OTHER
//   30   LEGAL EQUITABLE THEORY ANY DIRECT OR INDIRECT DAMAGES OR EXPENSES
//   31   INCLUDING BUT NOT LIMITED TO ANY INCIDENTAL, SPECIAL, INDIRECT, PUNITIVE
//   32   OR CONSEQUENTIAL DAMAGES, LOST PROFITS OR LOST DATA, COST OF PROCUREMENT
//   33   OF SUBSTITUTE GOODS, TECHNOLOGY, SERVICES, OR ANY CLAIMS BY THIRD PARTIES
//   34   (INCLUDING BUT NOT LIMITED TO ANY DEFENSE THEREOF), OR OTHER SIMILAR COSTS.
//   35 
//   36   Should you have any questions regarding your right to use this Software,
//   37   contact Texas Instruments Incorporated at www.TI.com. 
//   38 **************************************************************************************************/
//   39 
//   40 /********************************************************************************************************
//   41  *                                               INCLUDES
//   42  ********************************************************************************************************/
//   43 
//   44 #include "ZComDef.h"
//   45 #include "OSAL.h"
//   46 #include "ZMAC.h"
//   47 #include "MT_MAC.h"
//   48 #include "hal_mcu.h"

        ASEGN SFR_AN:DATA:NOROOT,0a8H
// union <unnamed> volatile __sfr _A_IEN0
_A_IEN0:
        DATA8
        DS 1
//   49 
//   50 #if !defined NONWK
//   51 #include "nwk.h"
//   52 #include "nwk_bufs.h"
//   53 #include "ZGlobals.h"
//   54 #endif
//   55 
//   56 #if defined( MACSIM )
//   57   #include "mac_sim.h"
//   58 #endif
//   59 
//   60 #include "mac_main.h"
//   61 extern void *ZMac_ScanBuf;
//   62 
//   63 /********************************************************************************************************
//   64  *                                               CONSTANTS
//   65  ********************************************************************************************************/
//   66 
//   67 #if !defined NONWK
//   68 /* Lookup table for size of structures. Must match with the order of MAC callback events */

        RSEG CODE_C:CODE:REORDER:NOROOT(0)
        DATA8
//   69 const uint8 CODE zmacCBSizeTable [] = {
zmacCBSizeTable:
        DB 0
        DB 22
        DB 15
        DB 0
        DB 0
        DB 11
        DB 21
        DB 11
        DB 2
        DB 0
        DB 2
        DB 34
        DB 15
        DB 50
        DB 0
        DB 0
        DB 6
//   70   0,
//   71   sizeof(ZMacAssociateInd_t),       // MAC_MLME_ASSOCIATE_IND      1   Associate indication
//   72   sizeof(ZMacAssociateCnf_t),       // MAC_MLME_ASSOCIATE_CNF      2   Associate confirm
//   73   0,                                // MAC_MLME_DISASSOCIATE_IND   3   Disassociate indication
//   74   0,                                // MAC_MLME_DISASSOCIATE_CNF   4   Disassociate confirm
//   75   sizeof(macMlmeBeaconNotifyInd_t), // MAC_MLME_BEACON_NOTIFY_IND  5   con notify indication
//   76   sizeof(ZMacOrphanInd_t),          // MAC_MLME_ORPHAN_IND         6   Orphan indication
//   77   sizeof(ZMacScanCnf_t),            // MAC_MLME_SCAN_CNF           7   Scan confirm
//   78   sizeof(ZMacStartCnf_t),           // MAC_MLME_START_CNF          8   Start confirm
//   79   0,                                // MAC_MLME_SYNC_LOSS_IND      9   Sync loss indication
//   80   sizeof(ZMacPollCnf_t),            // MAC_MLME_POLL_CNF           10  Poll confirm
//   81   sizeof(ZMacCommStatusInd_t),      // MAC_MLME_COMM_STATUS_IND    11  Comm status indication
//   82   sizeof(ZMacDataCnf_t),            // MAC_MCPS_DATA_CNF           12  Data confirm
//   83   sizeof(macMcpsDataInd_t),         // MAC_MCPS_DATA_IND           13  Data indication
//   84   0,                                // MAC_MCPS_PURGE_CNF          14  Purge confirm
//   85   0,                                // MAC_PWR_ON_CNF              15  Power on confirm
//   86   sizeof(ZMacPollInd_t)             // MAC_MLME_POLL_IND           16  Poll indication
//   87 };
//   88 #endif /* !defined NONWK */
//   89 
//   90 
//   91 /*********************************************************************
//   92  * ZMAC Function Pointers
//   93  */
//   94 
//   95 /*
//   96  * ZMac Application callback function. This function will be called
//   97  * for every MAC message that is received over-the-air or generated
//   98  * locally by MAC for the application.
//   99  *
//  100  * The callback function should return TRUE if it has handled the
//  101  * MAC message and no further action should be taken with it. It 
//  102  * should return FALSE if it has not handled the MAC message and
//  103  * normal processing should take place.
//  104  *
//  105  * NOTE: The processing in this function should be kept to the
//  106  *       minimum.
//  107  */

        RSEG XDATA_Z:XDATA:NOROOT(0)
        DATA16
//  108 uint8 (*pZMac_AppCallback)( uint8 *msgPtr ) = (void*)NULL;
pZMac_AppCallback:
        DS 2
        REQUIRE __INIT_XDATA_Z
//  109 
//  110 
//  111 /*********************************************************************
//  112  * ZMAC Functions
//  113  */
//  114 
//  115 /**************************************************************************************************
//  116  * @fn       MAC_CbackEvent()
//  117  *
//  118  * @brief    convert MAC data confirm and indication to ZMac and send to NWK
//  119  *
//  120  * @param    pData - pointer to macCbackEvent_t
//  121  *
//  122  * @return   none
//  123  *************************************************************************************************/

        RSEG BANKED_CODE:CODE:NOROOT(0)
//  124 void MAC_CbackEvent(macCbackEvent_t *pData)
MAC_CbackEvent:
        CFI Block cfiBlock0 Using cfiCommon0
        CFI Function MAC_CbackEvent
        CODE
//  125 #ifndef MT_MAC_CB_FUNC
//  126 {
        FUNCALL MAC_CbackEvent, MAC_MlmeGetReq
        LOCFRAME ISTACK, 0, STACK
        LOCFRAME PSTACK, 0, STACK
        LOCFRAME XSTACK, 21, STACK
        LOCFRAME IOVERLAY, 0, STATIC
        LOCFRAME DOVERLAY, 0, STATIC
        ARGFRAME ISTACK, 0, STACK
        ARGFRAME PSTACK, 0, STACK
        ARGFRAME XSTACK, 21, STACK
        ARGFRAME IOVERLAY, 0, STATIC
        ARGFRAME DOVERLAY, 0, STATIC
        FUNCALL MAC_CbackEvent, osal_msg_deallocate
        LOCFRAME ISTACK, 0, STACK
        LOCFRAME PSTACK, 0, STACK
        LOCFRAME XSTACK, 21, STACK
        LOCFRAME IOVERLAY, 0, STATIC
        LOCFRAME DOVERLAY, 0, STATIC
        ARGFRAME ISTACK, 0, STACK
        ARGFRAME PSTACK, 0, STACK
        ARGFRAME XSTACK, 21, STACK
        ARGFRAME IOVERLAY, 0, STATIC
        ARGFRAME DOVERLAY, 0, STATIC
        FUNCALL MAC_CbackEvent, osal_msg_allocate
        LOCFRAME ISTACK, 0, STACK
        LOCFRAME PSTACK, 0, STACK
        LOCFRAME XSTACK, 21, STACK
        LOCFRAME IOVERLAY, 0, STATIC
        LOCFRAME DOVERLAY, 0, STATIC
        ARGFRAME ISTACK, 0, STACK
        ARGFRAME PSTACK, 0, STACK
        ARGFRAME XSTACK, 21, STACK
        ARGFRAME IOVERLAY, 0, STATIC
        ARGFRAME DOVERLAY, 0, STATIC
        FUNCALL MAC_CbackEvent, macMainReserve
        LOCFRAME ISTACK, 0, STACK
        LOCFRAME PSTACK, 0, STACK
        LOCFRAME XSTACK, 21, STACK
        LOCFRAME IOVERLAY, 0, STATIC
        LOCFRAME DOVERLAY, 0, STATIC
        ARGFRAME ISTACK, 0, STACK
        ARGFRAME PSTACK, 0, STACK
        ARGFRAME XSTACK, 21, STACK
        ARGFRAME IOVERLAY, 0, STATIC
        ARGFRAME DOVERLAY, 0, STATIC
        FUNCALL MAC_CbackEvent, osal_msg_deallocate
        LOCFRAME ISTACK, 0, STACK
        LOCFRAME PSTACK, 0, STACK
        LOCFRAME XSTACK, 21, STACK
        LOCFRAME IOVERLAY, 0, STATIC
        LOCFRAME DOVERLAY, 0, STATIC
        ARGFRAME ISTACK, 0, STACK
        ARGFRAME PSTACK, 0, STACK
        ARGFRAME XSTACK, 21, STACK
        ARGFRAME IOVERLAY, 0, STATIC
        ARGFRAME DOVERLAY, 0, STATIC
        FUNCALL MAC_CbackEvent, osal_msg_allocate
        LOCFRAME ISTACK, 0, STACK
        LOCFRAME PSTACK, 0, STACK
        LOCFRAME XSTACK, 21, STACK
        LOCFRAME IOVERLAY, 0, STATIC
        LOCFRAME DOVERLAY, 0, STATIC
        ARGFRAME ISTACK, 0, STACK
        ARGFRAME PSTACK, 0, STACK
        ARGFRAME XSTACK, 21, STACK
        ARGFRAME IOVERLAY, 0, STATIC
        ARGFRAME DOVERLAY, 0, STATIC
        FUNCALL MAC_CbackEvent, osal_memcpy
        LOCFRAME ISTACK, 0, STACK
        LOCFRAME PSTACK, 0, STACK
        LOCFRAME XSTACK, 24, STACK
        LOCFRAME IOVERLAY, 0, STATIC
        LOCFRAME DOVERLAY, 0, STATIC
        ARGFRAME ISTACK, 0, STACK
        ARGFRAME PSTACK, 0, STACK
        ARGFRAME XSTACK, 24, STACK
        ARGFRAME IOVERLAY, 0, STATIC
        ARGFRAME DOVERLAY, 0, STATIC
        FUNCALL MAC_CbackEvent, osal_memcpy
        LOCFRAME ISTACK, 0, STACK
        LOCFRAME PSTACK, 0, STACK
        LOCFRAME XSTACK, 24, STACK
        LOCFRAME IOVERLAY, 0, STATIC
        LOCFRAME DOVERLAY, 0, STATIC
        ARGFRAME ISTACK, 0, STACK
        ARGFRAME PSTACK, 0, STACK
        ARGFRAME XSTACK, 24, STACK
        ARGFRAME IOVERLAY, 0, STATIC
        ARGFRAME DOVERLAY, 0, STATIC
        FUNCALL MAC_CbackEvent, osal_memcpy
        LOCFRAME ISTACK, 0, STACK
        LOCFRAME PSTACK, 0, STACK
        LOCFRAME XSTACK, 24, STACK
        LOCFRAME IOVERLAY, 0, STATIC
        LOCFRAME DOVERLAY, 0, STATIC
        ARGFRAME ISTACK, 0, STACK
        ARGFRAME PSTACK, 0, STACK
        ARGFRAME XSTACK, 24, STACK
        ARGFRAME IOVERLAY, 0, STATIC
        ARGFRAME DOVERLAY, 0, STATIC
        FUNCALL MAC_CbackEvent, osal_memcpy
        LOCFRAME ISTACK, 0, STACK
        LOCFRAME PSTACK, 0, STACK
        LOCFRAME XSTACK, 24, STACK
        LOCFRAME IOVERLAY, 0, STATIC
        LOCFRAME DOVERLAY, 0, STATIC
        ARGFRAME ISTACK, 0, STACK
        ARGFRAME PSTACK, 0, STACK
        ARGFRAME XSTACK, 24, STACK
        ARGFRAME IOVERLAY, 0, STATIC
        ARGFRAME DOVERLAY, 0, STATIC
        FUNCALL MAC_CbackEvent, osal_memcpy
        LOCFRAME ISTACK, 0, STACK
        LOCFRAME PSTACK, 0, STACK
        LOCFRAME XSTACK, 24, STACK
        LOCFRAME IOVERLAY, 0, STATIC
        LOCFRAME DOVERLAY, 0, STATIC
        ARGFRAME ISTACK, 0, STACK
        ARGFRAME PSTACK, 0, STACK
        ARGFRAME XSTACK, 24, STACK
        ARGFRAME IOVERLAY, 0, STATIC
        ARGFRAME DOVERLAY, 0, STATIC
        FUNCALL MAC_CbackEvent, osal_mem_free
        LOCFRAME ISTACK, 0, STACK
        LOCFRAME PSTACK, 0, STACK
        LOCFRAME XSTACK, 21, STACK
        LOCFRAME IOVERLAY, 0, STATIC
        LOCFRAME DOVERLAY, 0, STATIC
        ARGFRAME ISTACK, 0, STACK
        ARGFRAME PSTACK, 0, STACK
        ARGFRAME XSTACK, 21, STACK
        ARGFRAME IOVERLAY, 0, STATIC
        ARGFRAME DOVERLAY, 0, STATIC
        FUNCALL MAC_CbackEvent, osal_msg_send
        LOCFRAME ISTACK, 0, STACK
        LOCFRAME PSTACK, 0, STACK
        LOCFRAME XSTACK, 21, STACK
        LOCFRAME IOVERLAY, 0, STATIC
        LOCFRAME DOVERLAY, 0, STATIC
        ARGFRAME ISTACK, 0, STACK
        ARGFRAME PSTACK, 0, STACK
        ARGFRAME XSTACK, 21, STACK
        ARGFRAME IOVERLAY, 0, STATIC
        ARGFRAME DOVERLAY, 0, STATIC
        FUNCALL MAC_CbackEvent, macMainReserve
        LOCFRAME ISTACK, 0, STACK
        LOCFRAME PSTACK, 0, STACK
        LOCFRAME XSTACK, 21, STACK
        LOCFRAME IOVERLAY, 0, STATIC
        LOCFRAME DOVERLAY, 0, STATIC
        ARGFRAME ISTACK, 0, STACK
        ARGFRAME PSTACK, 0, STACK
        ARGFRAME XSTACK, 21, STACK
        ARGFRAME IOVERLAY, 0, STATIC
        ARGFRAME DOVERLAY, 0, STATIC
        FUNCALL MAC_CbackEvent, osal_msg_deallocate
        LOCFRAME ISTACK, 0, STACK
        LOCFRAME PSTACK, 0, STACK
        LOCFRAME XSTACK, 21, STACK
        LOCFRAME IOVERLAY, 0, STATIC
        LOCFRAME DOVERLAY, 0, STATIC
        ARGFRAME ISTACK, 0, STACK
        ARGFRAME PSTACK, 0, STACK
        ARGFRAME XSTACK, 21, STACK
        ARGFRAME IOVERLAY, 0, STATIC
        ARGFRAME DOVERLAY, 0, STATIC
        MOV     A,#-0x10
        LCALL   ?BANKED_ENTER_XDATA
        CFI DPH0 load(1, XDATA, add(CFA_XSP16, literal(-1)))
        CFI DPL0 load(1, XDATA, add(CFA_XSP16, literal(-2)))
        CFI ?BRET_EXT load(1, XDATA, add(CFA_XSP16, literal(-3)))
        CFI ?RET_HIGH load(1, XDATA, add(CFA_XSP16, literal(-4)))
        CFI ?RET_LOW load(1, XDATA, add(CFA_XSP16, literal(-5)))
        CFI R7 load(1, XDATA, add(CFA_XSP16, literal(-6)))
        CFI V7 load(1, XDATA, add(CFA_XSP16, literal(-7)))
        CFI V6 load(1, XDATA, add(CFA_XSP16, literal(-8)))
        CFI V5 load(1, XDATA, add(CFA_XSP16, literal(-9)))
        CFI V4 load(1, XDATA, add(CFA_XSP16, literal(-10)))
        CFI V3 load(1, XDATA, add(CFA_XSP16, literal(-11)))
        CFI V2 load(1, XDATA, add(CFA_XSP16, literal(-12)))
        CFI V1 load(1, XDATA, add(CFA_XSP16, literal(-13)))
        CFI V0 load(1, XDATA, add(CFA_XSP16, literal(-14)))
        CFI VB load(1, XDATA, add(CFA_XSP16, literal(-15)))
        CFI R6 load(1, XDATA, add(CFA_XSP16, literal(-16)))
        CFI CFA_SP SP+0
        CFI CFA_XSP16 add(XSP16, 16)
        ; Saved register size: 16
        ; Auto size: 5
        MOV     A,#-0x5
        LCALL   ?ALLOC_XSTACK8
        CFI CFA_XSP16 add(XSP16, 21)
        MOV     A,#0x1
        LCALL   ?XSTACK_DISP0_8
        MOV     A,R2
        MOVX    @DPTR,A
        INC     DPTR
        MOV     A,R3
        MOVX    @DPTR,A
//  127 #if !defined NONWK
//  128   uint8 event = pData->hdr.event;
        MOV     A,#0x1
        LCALL   ?XSTACK_DISP0_8
        MOVX    A,@DPTR
        MOV     R0,A
        INC     DPTR
        MOVX    A,@DPTR
        MOV     DPH,A
        MOV     DPL,R0
        MOVX    A,@DPTR
        MOV     DPL,?XSP + 0
        MOV     DPH,?XSP + 1
        MOVX    @DPTR,A
//  129   uint16 tmp = zmacCBSizeTable[event];
        MOVX    A,@DPTR
        MOV     R0,A
        MOV     A,#zmacCBSizeTable & 0xff
        ADD     A,R0
        MOV     DPL,A
        MOV     A,#(zmacCBSizeTable >> 8) & 0xff
        ADDC    A,#0x0
        MOV     DPH,A
        CLR     A
        MOVC    A,@A+DPTR
        MOV     R6,A
        MOV     A,#0x3
        LCALL   ?XSTACK_DISP0_8
        MOV     A,R6
        MOVX    @DPTR,A
        INC     DPTR
        CLR     A
        MOVX    @DPTR,A
//  130   macCbackEvent_t *msgPtr;
//  131 
//  132   /* If the Network layer will handle a new MAC callback, a non-zero value must be entered in the
//  133    * corresponding location in the zmacCBSizeTable[] - thus the table acts as "should handle"?
//  134    */
//  135   if (tmp == 0)
        MOV     A,#0x3
        LCALL   ?XSTACK_DISP0_8
        MOVX    A,@DPTR
        MOV     R0,A
        INC     DPTR
        MOVX    A,@DPTR
        MOV     R1,A
        MOV     A,R0
        ORL     A,R1
        JNZ     $+5
        LJMP    ??MAC_CbackEvent_0 & 0xFFFF
//  136   {
//  137     return;
//  138   }
//  139 
//  140   // MAC_MCPS_DATA_IND is very special - it is the only event where the MAC does not free *pData.
//  141   if ( event == MAC_MCPS_DATA_IND )
        MOV     DPL,?XSP + 0
        MOV     DPH,?XSP + 1
        MOVX    A,@DPTR
        XRL     A,#0xd
        JNZ     ??MAC_CbackEvent_1
//  142   {
//  143     MAC_MlmeGetReq( MAC_SHORT_ADDRESS, &tmp );
        ; Setup parameters for call to function MAC_MlmeGetReq
        MOV     A,#0x3
        LCALL   ?XSTACK_DISP0_8
        MOV     R2,DPL
        MOV     R3,DPH
        MOV     R1,#0x53
        LCALL   ??MAC_MlmeGetReq?relay
//  144     if ((tmp == INVALID_NODE_ADDR) || (tmp == NWK_BROADCAST_SHORTADDR_DEVALL) ||
//  145         (pData->dataInd.msdu.len == 0))
        MOV     A,#0x3
        LCALL   ?XSTACK_DISP0_8
        MOVX    A,@DPTR
        XRL     A,#0xfe
        JNZ     ??MAC_CbackEvent_2
        INC     DPTR
        MOVX    A,@DPTR
        CPL     A
??MAC_CbackEvent_2:
        JZ      ??MAC_CbackEvent_3
        MOV     A,#0x3
        LCALL   ?XSTACK_DISP0_8
        MOVX    A,@DPTR
        CPL     A
        JNZ     ??MAC_CbackEvent_4
        INC     DPTR
        MOVX    A,@DPTR
        CPL     A
??MAC_CbackEvent_4:
        JZ      ??MAC_CbackEvent_3
        MOV     A,#0x1
        LCALL   ?XSTACK_DISP0_8
        MOVX    A,@DPTR
        MOV     R0,A
        INC     DPTR
        MOVX    A,@DPTR
        MOV     DPH,A
        MOV     DPL,R0
        INC     DPTR
        INC     DPTR
        INC     DPTR
        INC     DPTR
        MOVX    A,@DPTR
        JNZ     ??MAC_CbackEvent_5
//  146     {
//  147       osal_msg_deallocate( (uint8 *)pData );
??MAC_CbackEvent_3:
        ; Setup parameters for call to function osal_msg_deallocate
        MOV     A,#0x1
        LCALL   ?XSTACK_DISP0_8
        LJMP    ??MAC_CbackEvent_6 & 0xFFFF
//  148       return;
//  149     }
//  150     msgPtr = pData;
??MAC_CbackEvent_5:
        MOV     A,#0x1
        LCALL   ?XSTACK_DISP0_8
        MOVX    A,@DPTR
        MOV     ?V0 + 4,A
        INC     DPTR
        MOVX    A,@DPTR
        MOV     ?V0 + 5,A
        LJMP    ??MAC_CbackEvent_7 & 0xFFFF
//  151   }
//  152   else
//  153   {
//  154     if (event == MAC_MLME_BEACON_NOTIFY_IND )
??MAC_CbackEvent_1:
        MOVX    A,@DPTR
        XRL     A,#0x5
        JNZ     ??MAC_CbackEvent_8
//  155     {
//  156       tmp += sizeof(macPanDesc_t) + pData->beaconNotifyInd.sduLength;
        MOV     A,#0x1
        LCALL   ?XSTACK_DISP0_8
        MOVX    A,@DPTR
        MOV     R0,A
        INC     DPTR
        MOVX    A,@DPTR
        MOV     DPH,A
        MOV     DPL,R0
        INC     DPTR
        INC     DPTR
        INC     DPTR
        INC     DPTR
        INC     DPTR
        INC     DPTR
        INC     DPTR
        INC     DPTR
        MOVX    A,@DPTR
        ADD     A,#0x21
        MOV     R0,A
        CLR     A
        ADDC    A,#0x0
        MOV     R1,A
        SJMP    ??MAC_CbackEvent_9
//  157     }
//  158     else if (event == MAC_MLME_SCAN_CNF)
??MAC_CbackEvent_8:
        MOVX    A,@DPTR
        XRL     A,#0x7
        JNZ     ??MAC_CbackEvent_10
//  159     {
//  160       if (pData->scanCnf.scanType == ZMAC_ED_SCAN)
        MOV     A,#0x1
        LCALL   ?XSTACK_DISP0_8
        MOVX    A,@DPTR
        MOV     R0,A
        INC     DPTR
        MOVX    A,@DPTR
        MOV     DPH,A
        MOV     DPL,R0
        INC     DPTR
        INC     DPTR
        MOVX    A,@DPTR
        JNZ     ??MAC_CbackEvent_11
//  161       {
//  162         tmp += ZMAC_ED_SCAN_MAXCHANNELS;
        MOV     A,#0x3
        LCALL   ?XSTACK_DISP0_8
        MOVX    A,@DPTR
        ADD     A,#0x1b
        MOVX    @DPTR,A
        INC     DPTR
        MOVX    A,@DPTR
        ADDC    A,#0x0
        SJMP    ??MAC_CbackEvent_12
//  163       }
//  164       else
//  165       {
//  166         tmp += sizeof( ZMacPanDesc_t ) * pData->scanCnf.resultListSize;
??MAC_CbackEvent_11:
        MOV     A,#0x1
        LCALL   ?XSTACK_DISP0_8
        MOVX    A,@DPTR
        MOV     R0,A
        INC     DPTR
        MOVX    A,@DPTR
        MOV     DPH,A
        MOV     DPL,R0
        INC     DPTR
        INC     DPTR
        INC     DPTR
        INC     DPTR
        INC     DPTR
        INC     DPTR
        INC     DPTR
        INC     DPTR
        MOVX    A,@DPTR
        MOV     B,#0x21
        MUL     AB
        MOV     R0,A
        MOV     R1,B
??MAC_CbackEvent_9:
        MOV     A,#0x3
        LCALL   ?XSTACK_DISP0_8
        MOVX    A,@DPTR
        ADD     A,R0
        MOVX    @DPTR,A
        INC     DPTR
        MOVX    A,@DPTR
        ADDC    A,R1
??MAC_CbackEvent_12:
        MOVX    @DPTR,A
//  167       }
//  168     }
//  169 
//  170     if ( !(msgPtr = (macCbackEvent_t *)osal_msg_allocate(tmp)) )
??MAC_CbackEvent_10:
        ; Setup parameters for call to function osal_msg_allocate
        MOV     A,#0x3
        LCALL   ?XSTACK_DISP0_8
        MOVX    A,@DPTR
        MOV     R2,A
        INC     DPTR
        MOVX    A,@DPTR
        MOV     R3,A
        LCALL   ??osal_msg_allocate?relay
        MOV     ?V0 + 4,R2
        MOV     ?V0 + 5,R3
        MOV     A,R2
        ORL     A,?V0 + 5
        JNZ     ??MAC_CbackEvent_13
//  171     {
//  172       // Not enough memory. If data confirm - try again
//  173       if ( event == MAC_MCPS_DATA_CNF )
        MOV     DPL,?XSP + 0
        MOV     DPH,?XSP + 1
        MOVX    A,@DPTR
        XRL     A,#0xc
        JZ      $+5
        LJMP    ??MAC_CbackEvent_0 & 0xFFFF
//  174       {
//  175         halIntState_t intState;
//  176         
//  177         // This is not normally deallocated here because the pZMac_AppCallback()
//  178         // application may need it.
//  179         HAL_ENTER_CRITICAL_SECTION( intState );  // Hold off interrupts.
        MOV     C,0xa8.7
        CLR     A
        RLC     A
        MOV     ?V0 + 6,A
        CLR     0xa8.7
//  180 
//  181         /* mark MAC data buffer as reserved so that MAC won't deallocate it */
//  182         macMainReserve( (uint8 *)pData->dataCnf.pDataReq );
        MOV     A,#0x1
        LCALL   ?XSTACK_DISP0_8
        MOVX    A,@DPTR
        ADD     A,#0x3
        MOV     ?V0 + 0,A
        INC     DPTR
        MOVX    A,@DPTR
        ADDC    A,#0x0
        MOV     ?V0 + 1,A
        ; Setup parameters for call to function macMainReserve
        MOV     DPL,?V0 + 0
        MOV     DPH,A
        MOVX    A,@DPTR
        MOV     R2,A
        INC     DPTR
        MOVX    A,@DPTR
        MOV     R3,A
        LCALL   ??macMainReserve?relay
//  183         osal_msg_deallocate( (uint8*)pData->dataCnf.pDataReq );
        ; Setup parameters for call to function osal_msg_deallocate
        MOV     DPL,?V0 + 0
        MOV     DPH,?V0 + 1
        MOVX    A,@DPTR
        MOV     R2,A
        INC     DPTR
        MOVX    A,@DPTR
        MOV     R3,A
        LCALL   ??osal_msg_deallocate?relay
//  184         if ( !(msgPtr = (macCbackEvent_t *)osal_msg_allocate(tmp)) )
        ; Setup parameters for call to function osal_msg_allocate
        MOV     A,#0x3
        LCALL   ?XSTACK_DISP0_8
        MOVX    A,@DPTR
        MOV     R2,A
        INC     DPTR
        MOVX    A,@DPTR
        MOV     R3,A
        LCALL   ??osal_msg_allocate?relay
        MOV     ?V0 + 4,R2
        MOV     ?V0 + 5,R3
        MOV     A,R2
        ORL     A,?V0 + 5
        JNZ     ??MAC_CbackEvent_14
//  185         {
//  186           // Still no allocation, something is wrong
//  187           HAL_EXIT_CRITICAL_SECTION( intState );   // Re-enable interrupts.
        MOV     A,?V0 + 6
        MOV     C,0xE0 /* A   */.0
        MOV     0xa8.7,C
//  188           return;
        LJMP    ??MAC_CbackEvent_0 & 0xFFFF
//  189         }
//  190         HAL_EXIT_CRITICAL_SECTION( intState );   // Re-enable interrupts.
??MAC_CbackEvent_14:
        MOV     A,?V0 + 6
        MOV     C,0xE0 /* A   */.0
        MOV     0xa8.7,C
//  191         pData->dataCnf.pDataReq = NULL;
        MOV     DPL,?V0 + 0
        MOV     DPH,?V0 + 1
        CLR     A
        MOVX    @DPTR,A
        INC     DPTR
        MOVX    @DPTR,A
//  192       }
//  193       else
//  194       {     
//  195         // This message is dropped
//  196         return;
//  197       }
//  198     }
//  199     osal_memcpy(msgPtr, pData, zmacCBSizeTable[event]);
??MAC_CbackEvent_13:
        ; Setup parameters for call to function osal_memcpy
        MOV     A,#0x1
        LCALL   ?XSTACK_DISP0_8
        MOVX    A,@DPTR
        MOV     ?V0 + 0,A
        INC     DPTR
        MOVX    A,@DPTR
        MOV     ?V0 + 1,A
        MOV     ?V0 + 2,#0x0
        MOV     R0,#?V0 + 0
        LCALL   ?PUSH_XSTACK_I_THREE
        CFI CFA_XSP16 add(XSP16, 24)
        MOV     A,R6
        MOV     R4,A
        MOV     R5,#0x0
        MOV     R2,?V0 + 4
        MOV     R3,?V0 + 5
        LCALL   ??osal_memcpy?relay
        MOV     A,#0x3
        LCALL   ?DEALLOC_XSTACK8
        CFI CFA_XSP16 add(XSP16, 21)
//  200   }
//  201 
//  202   if ( event == MAC_MLME_BEACON_NOTIFY_IND )
??MAC_CbackEvent_7:
        MOV     DPL,?XSP + 0
        MOV     DPH,?XSP + 1
        MOVX    A,@DPTR
        XRL     A,#0x5
        JZ      $+5
        LJMP    ??MAC_CbackEvent_15 & 0xFFFF
//  203   {
//  204     macMlmeBeaconNotifyInd_t *pBeacon = (macMlmeBeaconNotifyInd_t*)msgPtr;
//  205 
//  206     osal_memcpy(pBeacon+1, pBeacon->pPanDesc, sizeof(macPanDesc_t));
        MOV     A,?V0 + 4
        ADD     A,#0xb
        MOV     ?V0 + 6,A
        MOV     A,?V0 + 5
        ADDC    A,#0x0
        MOV     ?V0 + 7,A
        ; Setup parameters for call to function osal_memcpy
        MOV     DPL,?V0 + 4
        MOV     DPH,?V0 + 5
        INC     DPTR
        INC     DPTR
        INC     DPTR
        MOVX    A,@DPTR
        MOV     ?V0 + 0,A
        INC     DPTR
        MOVX    A,@DPTR
        MOV     ?V0 + 1,A
        MOV     ?V0 + 2,#0x0
        MOV     R0,#?V0 + 0
        LCALL   ?PUSH_XSTACK_I_THREE
        CFI CFA_XSP16 add(XSP16, 24)
        MOV     R4,#0x21
        MOV     R5,#0x0
        MOV     R2,?V0 + 6
        MOV     R3,?V0 + 7
        LCALL   ??osal_memcpy?relay
        MOV     A,#0x3
        LCALL   ?DEALLOC_XSTACK8
        CFI CFA_XSP16 add(XSP16, 21)
//  207     pBeacon->pPanDesc = (macPanDesc_t *)(pBeacon+1);
        MOV     DPL,?V0 + 4
        MOV     DPH,?V0 + 5
        INC     DPTR
        INC     DPTR
        INC     DPTR
        MOV     A,?V0 + 6
        MOVX    @DPTR,A
        INC     DPTR
        MOV     A,?V0 + 7
        MOVX    @DPTR,A
//  208     osal_memcpy(pBeacon->pPanDesc+1, pBeacon->pSdu, pBeacon->sduLength);
        MOV     A,?V0 + 4
        ADD     A,#0x9
        MOV     R6,A
        MOV     A,?V0 + 5
        ADDC    A,#0x0
        MOV     R7,A
        ; Setup parameters for call to function osal_memcpy
        MOV     DPL,R6
        MOV     DPH,R7
        MOVX    A,@DPTR
        MOV     ?V0 + 0,A
        INC     DPTR
        MOVX    A,@DPTR
        MOV     ?V0 + 1,A
        MOV     R0,#?V0 + 0
        LCALL   ?PUSH_XSTACK_I_THREE
        CFI CFA_XSP16 add(XSP16, 24)
        MOV     DPL,?V0 + 4
        MOV     DPH,?V0 + 5
        INC     DPTR
        INC     DPTR
        INC     DPTR
        INC     DPTR
        INC     DPTR
        INC     DPTR
        INC     DPTR
        INC     DPTR
        MOVX    A,@DPTR
        MOV     R4,A
        MOV     R5,#0x0
        MOV     DPL,?V0 + 4
        MOV     DPH,?V0 + 5
        INC     DPTR
        INC     DPTR
        INC     DPTR
        MOVX    A,@DPTR
        ADD     A,#0x21
        MOV     R2,A
        INC     DPTR
        MOVX    A,@DPTR
        ADDC    A,#0x0
        MOV     R3,A
        LCALL   ??osal_memcpy?relay
        MOV     A,#0x3
        LCALL   ?DEALLOC_XSTACK8
        CFI CFA_XSP16 add(XSP16, 21)
//  209     pBeacon->pSdu = (uint8 *)(pBeacon->pPanDesc+1);
        MOV     DPL,?V0 + 4
        MOV     DPH,?V0 + 5
        INC     DPTR
        INC     DPTR
        INC     DPTR
        MOVX    A,@DPTR
        ADD     A,#0x21
        MOV     R0,A
        INC     DPTR
        MOVX    A,@DPTR
        ADDC    A,#0x0
        MOV     R1,A
        MOV     DPL,R6
        MOV     DPH,R7
        MOV     A,R0
        MOVX    @DPTR,A
        INC     DPTR
        MOV     A,R1
        LJMP    ??MAC_CbackEvent_16 & 0xFFFF
//  210   }
//  211   else if (event == MAC_MLME_SCAN_CNF)
??MAC_CbackEvent_15:
        MOVX    A,@DPTR
        XRL     A,#0x7
        JZ      $+5
        LJMP    ??MAC_CbackEvent_17 & 0xFFFF
//  212   {
//  213     macMlmeScanCnf_t *pScan = (macMlmeScanCnf_t*)msgPtr;
//  214 
//  215     if (ZMac_ScanBuf != NULL)
        MOV     DPTR,#ZMac_ScanBuf
        MOVX    A,@DPTR
        MOV     R0,A
        INC     DPTR
        MOVX    A,@DPTR
        MOV     R1,A
        MOV     A,R0
        ORL     A,R1
        JNZ     $+5
        LJMP    ??MAC_CbackEvent_17 & 0xFFFF
//  216     {
//  217       if (pScan->scanType == ZMAC_ED_SCAN)
        MOV     A,?V0 + 4
        ADD     A,#0x9
        MOV     R6,A
        MOV     A,?V0 + 5
        ADDC    A,#0x0
        MOV     R7,A
        MOV     A,?V0 + 4
        ADD     A,#0xb
        MOV     ?V0 + 6,A
        MOV     A,?V0 + 5
        ADDC    A,#0x0
        MOV     ?V0 + 7,A
        MOV     DPL,?V0 + 4
        MOV     DPH,?V0 + 5
        INC     DPTR
        INC     DPTR
        MOVX    A,@DPTR
        MOV     DPL,R6
        MOV     DPH,R7
        JNZ     ??MAC_CbackEvent_18
//  218       {
//  219         pScan->result.pEnergyDetect = (uint8*) (pScan + 1);
        MOV     A,?V0 + 6
        MOVX    @DPTR,A
        INC     DPTR
        MOV     A,?V0 + 7
        MOVX    @DPTR,A
//  220         osal_memcpy(pScan->result.pEnergyDetect, ZMac_ScanBuf, ZMAC_ED_SCAN_MAXCHANNELS);
        ; Setup parameters for call to function osal_memcpy
        MOV     DPTR,#ZMac_ScanBuf
        MOVX    A,@DPTR
        MOV     ?V0 + 0,A
        INC     DPTR
        MOVX    A,@DPTR
        MOV     ?V0 + 1,A
        MOV     ?V0 + 2,#0x0
        MOV     R0,#?V0 + 0
        LCALL   ?PUSH_XSTACK_I_THREE
        CFI CFA_XSP16 add(XSP16, 24)
        MOV     R4,#0x1b
        MOV     R5,#0x0
        MOV     DPL,R6
        MOV     DPH,R7
        MOVX    A,@DPTR
        MOV     R2,A
        INC     DPTR
        MOVX    A,@DPTR
        MOV     R3,A
        SJMP    ??MAC_CbackEvent_19
        CFI CFA_XSP16 add(XSP16, 21)
//  221       }
//  222       else
//  223       {
//  224         pScan->result.pPanDescriptor = (macPanDesc_t*) (pScan + 1);
??MAC_CbackEvent_18:
        MOV     A,?V0 + 6
        MOVX    @DPTR,A
        INC     DPTR
        MOV     A,?V0 + 7
        MOVX    @DPTR,A
//  225         osal_memcpy(pScan + 1, ZMac_ScanBuf, sizeof( ZMacPanDesc_t ) * pScan->resultListSize);
        ; Setup parameters for call to function osal_memcpy
        MOV     DPTR,#ZMac_ScanBuf
        MOVX    A,@DPTR
        MOV     ?V0 + 0,A
        INC     DPTR
        MOVX    A,@DPTR
        MOV     ?V0 + 1,A
        MOV     ?V0 + 2,#0x0
        MOV     R0,#?V0 + 0
        LCALL   ?PUSH_XSTACK_I_THREE
        CFI CFA_XSP16 add(XSP16, 24)
        MOV     DPL,?V0 + 4
        MOV     DPH,?V0 + 5
        INC     DPTR
        INC     DPTR
        INC     DPTR
        INC     DPTR
        INC     DPTR
        INC     DPTR
        INC     DPTR
        INC     DPTR
        MOVX    A,@DPTR
        MOV     B,#0x21
        MUL     AB
        MOV     R4,A
        MOV     R5,B
        MOV     R2,?V0 + 6
        MOV     R3,?V0 + 7
??MAC_CbackEvent_19:
        LCALL   ??osal_memcpy?relay
        MOV     A,#0x3
        LCALL   ?DEALLOC_XSTACK8
        CFI CFA_XSP16 add(XSP16, 21)
//  226       }
//  227 
//  228       osal_mem_free(ZMac_ScanBuf);
        ; Setup parameters for call to function osal_mem_free
        MOV     DPTR,#ZMac_ScanBuf
        MOVX    A,@DPTR
        MOV     R2,A
        INC     DPTR
        MOVX    A,@DPTR
        MOV     R3,A
        LCALL   ??osal_mem_free?relay
//  229       ZMac_ScanBuf = NULL;
        MOV     DPTR,#ZMac_ScanBuf
        CLR     A
        MOVX    @DPTR,A
        INC     DPTR
??MAC_CbackEvent_16:
        MOVX    @DPTR,A
//  230     }
//  231   }
//  232 
//  233   if ( ( pZMac_AppCallback == NULL ) || ( pZMac_AppCallback( (uint8 *)msgPtr ) == FALSE ) )
??MAC_CbackEvent_17:
        MOV     DPTR,#pZMac_AppCallback
        MOVX    A,@DPTR
        MOV     R0,A
        INC     DPTR
        MOVX    A,@DPTR
        MOV     R1,A
        MOV     A,R0
        ORL     A,R1
        JZ      ??MAC_CbackEvent_20
        ; Setup parameters for indirect call
        MOV     R2,?V0 + 4
        MOV     R3,?V0 + 5
        MOV     DPTR,#pZMac_AppCallback
        MOVX    A,@DPTR
        MOV     R0,A
        INC     DPTR
        MOVX    A,@DPTR
        MOV     DPH,A
        MOV     DPL,R0
        LCALL   ?CALL_IND
        MOV     A,R1
        JNZ     ??MAC_CbackEvent_21
//  234   {
//  235     // Application hasn't already processed this message. Send it to NWK task.
//  236     osal_msg_send( NWK_TaskID, (uint8 *)msgPtr );
??MAC_CbackEvent_20:
        ; Setup parameters for call to function osal_msg_send
        MOV     R2,?V0 + 4
        MOV     R3,?V0 + 5
        MOV     DPTR,#NWK_TaskID
        MOVX    A,@DPTR
        MOV     R1,A
        LCALL   ??osal_msg_send?relay
//  237   }
//  238 
//  239   if ( event == MAC_MCPS_DATA_CNF )
??MAC_CbackEvent_21:
        MOV     DPL,?XSP + 0
        MOV     DPH,?XSP + 1
        MOVX    A,@DPTR
        XRL     A,#0xc
        JNZ     ??MAC_CbackEvent_0
//  240   {
//  241     // If the application needs 'pDataReq' then we cannot free it here.
//  242     // The application must free it after using it. Note that 'pDataReq'
//  243     // is of macMcpsDataReq_t (and not ZMacDataReq_t) type.
//  244     
//  245     /* mark MAC data buffer as reserved so that MAC won't deallocate it */
//  246     macMainReserve( (uint8 *)pData->dataCnf.pDataReq );
        MOV     A,#0x1
        LCALL   ?XSTACK_DISP0_8
        MOVX    A,@DPTR
        ADD     A,#0x3
        MOV     ?V0 + 0,A
        INC     DPTR
        MOVX    A,@DPTR
        ADDC    A,#0x0
        MOV     ?V0 + 1,A
        ; Setup parameters for call to function macMainReserve
        MOV     DPL,?V0 + 0
        MOV     DPH,A
        MOVX    A,@DPTR
        MOV     R2,A
        INC     DPTR
        MOVX    A,@DPTR
        MOV     R3,A
        LCALL   ??macMainReserve?relay
//  247     osal_msg_deallocate( (uint8*)pData->dataCnf.pDataReq );
        ; Setup parameters for call to function osal_msg_deallocate
        MOV     DPL,?V0 + 0
        MOV     DPH,?V0 + 1
??MAC_CbackEvent_6:
        MOVX    A,@DPTR
        MOV     R2,A
        INC     DPTR
        MOVX    A,@DPTR
        MOV     R3,A
        LCALL   ??osal_msg_deallocate?relay
??MAC_CbackEvent_0:
        MOV     A,#0x5
        LCALL   ?DEALLOC_XSTACK8
        CFI CFA_XSP16 add(XSP16, 16)
        MOV     R7,#0x8
        LJMP    ?BANKED_LEAVE_XDATA
        CFI EndBlock cfiBlock0
        REQUIRE _A_IEN0
//  248   }
//  249 #endif
//  250 }
//  251 #else  // ifdef MT_MAC_CB_FUNC
//  252 {
//  253   /* Check if MT has subscribed for this callback If so, pass it as an event to MonitorTest */
//  254   switch (pData->hdr.event)
//  255   {
//  256     case MAC_MLME_ASSOCIATE_IND:
//  257       if ( _macCallbackSub & CB_ID_NWK_ASSOCIATE_IND )
//  258         nwk_MTCallbackSubNwkAssociateInd ( (ZMacAssociateInd_t *)pData );
//  259       break;
//  260 
//  261     case MAC_MLME_ASSOCIATE_CNF:
//  262       if ( _macCallbackSub & CB_ID_NWK_ASSOCIATE_CNF )
//  263         nwk_MTCallbackSubNwkAssociateCnf ( (ZMacAssociateCnf_t *)pData );
//  264       break;
//  265 
//  266     case MAC_MLME_DISASSOCIATE_IND:
//  267       if ( _macCallbackSub & CB_ID_NWK_DISASSOCIATE_IND )
//  268         nwk_MTCallbackSubNwkDisassociateInd ( (ZMacDisassociateInd_t *)pData );
//  269       break;
//  270 
//  271     case MAC_MLME_DISASSOCIATE_CNF:
//  272       if ( _macCallbackSub & CB_ID_NWK_DISASSOCIATE_CNF )
//  273         nwk_MTCallbackSubNwkDisassociateCnf ( (ZMacDisassociateCnf_t *)pData );
//  274       break;
//  275 
//  276     case MAC_MLME_BEACON_NOTIFY_IND:
//  277       if ( _macCallbackSub & CB_ID_NWK_BEACON_NOTIFY_IND )
//  278         nwk_MTCallbackSubNwkBeaconNotifyInd( (ZMacBeaconNotifyInd_t *)pData );
//  279       break;
//  280 
//  281     case MAC_MLME_ORPHAN_IND:
//  282       if ( _macCallbackSub & CB_ID_NWK_ORPHAN_IND )
//  283         nwk_MTCallbackSubNwkOrphanInd( (ZMacOrphanInd_t *) pData );
//  284       break;
//  285 
//  286     case MAC_MLME_SCAN_CNF:
//  287       if ( _macCallbackSub & CB_ID_NWK_SCAN_CNF )
//  288       {
//  289         pData->scanCnf.result.pEnergyDetect = ZMac_ScanBuf;
//  290         nwk_MTCallbackSubNwkScanCnf ( (ZMacScanCnf_t *) pData );
//  291       }
//  292 
//  293       if (ZMac_ScanBuf != NULL)
//  294       {
//  295         osal_mem_free(ZMac_ScanBuf);
//  296         ZMac_ScanBuf = NULL;
//  297       }
//  298       break;
//  299 
//  300     case MAC_MLME_START_CNF:
//  301       if ( _macCallbackSub & CB_ID_NWK_START_CNF )
//  302         nwk_MTCallbackSubNwkStartCnf ( pData->hdr.status );
//  303       break;
//  304 
//  305     case MAC_MLME_SYNC_LOSS_IND:
//  306       if ( _macCallbackSub & CB_ID_NWK_SYNC_LOSS_IND )
//  307        nwk_MTCallbackSubNwkSyncLossInd( (ZMacSyncLossInd_t *) pData );
//  308       break;
//  309 
//  310     case MAC_MLME_POLL_CNF:
//  311       if ( _macCallbackSub & CB_ID_NWK_POLL_CNF )
//  312          nwk_MTCallbackSubNwkPollCnf( pData->hdr.status );
//  313       break;
//  314 
//  315     case MAC_MLME_COMM_STATUS_IND:
//  316       if ( _macCallbackSub & CB_ID_NWK_COMM_STATUS_IND )
//  317         nwk_MTCallbackSubCommStatusInd ( (ZMacCommStatusInd_t *) pData );
//  318       break;
//  319 
//  320     case MAC_MCPS_DATA_CNF:
//  321       /* mark MAC data buffer as reserved so that MAC won't deallocate it */
//  322       macMainReserve( (uint8 *)pData->dataCnf.pDataReq );
//  323       
//  324       osal_msg_deallocate((uint8*)pData->dataCnf.pDataReq);
//  325 
//  326       if ( _macCallbackSub & CB_ID_NWK_DATA_CNF )
//  327         nwk_MTCallbackSubNwkDataCnf( (ZMacDataCnf_t *) pData );
//  328       break;
//  329 
//  330     case MAC_MCPS_DATA_IND:
//  331         {
//  332           /*
//  333              Data Ind is unconventional: to save an alloc/copy, reuse the MAC
//  334              buffer and re-organize the contents into ZMAC format.
//  335           */
//  336           ZMacDataInd_t *pDataInd = (ZMacDataInd_t *) pData;
//  337           uint8 event, status, len, *msdu;
//  338 
//  339           /* Store parameters */
//  340           event = pData->hdr.event;
//  341           status = pData->hdr.status;
//  342           len = pData->dataInd.msdu.len;
//  343           msdu = pData->dataInd.msdu.p;
//  344 
//  345           /* Copy header */
//  346           osal_memcpy(&pDataInd->SrcAddr, &pData->dataInd.mac, sizeof(ZMacDataInd_t) - sizeof(ZMacEventHdr_t));
//  347 
//  348           /* Security - set to zero for now*/
//  349           pDataInd->Sec.SecurityLevel = false;
//  350 
//  351           /* Restore parameters */
//  352           pDataInd->hdr.Status = status;
//  353           pDataInd->hdr.Event = event;
//  354           pDataInd->msduLength = len;
//  355 
//  356           if (len)
//  357             pDataInd->msdu = msdu;
//  358           else
//  359             pDataInd->msdu = NULL;
//  360 
//  361           if ( _macCallbackSub & CB_ID_NWK_DATA_IND )
//  362             nwk_MTCallbackSubNwkDataInd ( pDataInd );
//  363 
//  364           /* free buffer */
//  365           osal_msg_deallocate( (uint8 *) pData );
//  366         }
//  367         break;
//  368 
//  369     case MAC_MCPS_PURGE_CNF:
//  370       if ( _macCallbackSub & CB_ID_NWK_PURGE_CNF )
//  371         nwk_MTCallbackSubNwkPurgeCnf( (ZMacPurgeCnf_t *) pData);
//  372       break;
//  373 
//  374     default:
//  375       break;
//  376   }
//  377 }
//  378 #endif
//  379 
//  380 /********************************************************************************************************
//  381  * @fn      MAC_CbackCheckPending
//  382  *
//  383  * @brief   Return number of pending indirect msg
//  384  *
//  385  * @param   None
//  386  *
//  387  * @return  Number of indirect msg holding
//  388  ********************************************************************************************************/

        RSEG BANKED_CODE:CODE:NOROOT(0)
//  389 uint8 MAC_CbackCheckPending(void)
MAC_CbackCheckPending:
        CFI Block cfiBlock1 Using cfiCommon0
        CFI Function MAC_CbackCheckPending
        CODE
//  390 {
        FUNCALL MAC_CbackCheckPending, nwkDB_ReturnIndirectHoldingCnt
        LOCFRAME ISTACK, 2, STACK
        LOCFRAME PSTACK, 0, STACK
        LOCFRAME XSTACK, 0, STACK
        LOCFRAME IOVERLAY, 0, STATIC
        LOCFRAME DOVERLAY, 0, STATIC
        ARGFRAME ISTACK, 2, STACK
        ARGFRAME PSTACK, 0, STACK
        ARGFRAME XSTACK, 0, STACK
        ARGFRAME IOVERLAY, 0, STATIC
        ARGFRAME DOVERLAY, 0, STATIC
        PUSH    DPL
        CFI DPL0 Frame(CFA_SP, 4)
        CFI CFA_SP SP+-4
        PUSH    DPH
        CFI DPH0 Frame(CFA_SP, 5)
        CFI CFA_SP SP+-5
        ; Saved register size: 2
        ; Auto size: 0
//  391 #if !defined (NONWK) 
//  392   if ( ZSTACK_ROUTER_BUILD )
//  393   {
//  394     return (nwkDB_ReturnIndirectHoldingCnt());
        ; Setup parameters for call to function nwkDB_ReturnIndirectHoldingCnt
        LCALL   ??nwkDB_ReturnIndirectHoldingCnt?relay
        POP     DPH
        CFI DPH0 SameValue
        CFI CFA_SP SP+-4
        POP     DPL
        CFI DPL0 SameValue
        CFI CFA_SP SP+-3
        LJMP    ?BRET
        CFI EndBlock cfiBlock1
//  395   }
//  396   else 
//  397   {
//  398     return (0);
//  399   }
//  400 #else
//  401   return (0);
//  402 #endif
//  403 }

        RSEG BANK_RELAYS:CODE:REORDER:NOROOT(0)
??MAC_CbackEvent?relay:
        LCALL   ?BDISPATCH
        DATA
        DC24    MAC_CbackEvent

        RSEG BANK_RELAYS:CODE:REORDER:NOROOT(0)
??MAC_CbackCheckPending?relay:
        LCALL   ?BDISPATCH
        DATA
        DC24    MAC_CbackCheckPending

        END
// 
// 947 bytes in segment BANKED_CODE
//  12 bytes in segment BANK_RELAYS
//  17 bytes in segment CODE_C
//   1 byte  in segment SFR_AN
//   2 bytes in segment XDATA_Z
// 
// 976 bytes of CODE  memory
//   0 bytes of DATA  memory (+ 1 byte shared)
//   2 bytes of XDATA memory
//
//Errors: none
//Warnings: none
