///////////////////////////////////////////////////////////////////////////////
//                                                                            /
// IAR C/C++ Compiler V8.10.3.10338/W32 for 8051        06/Aug/2016  17:34:20 /
// Copyright 2004-2011 IAR Systems AB.                                        /
//                                                                            /
//    Core               =  plain                                             /
//    Code model         =  banked                                            /
//    Data model         =  large                                             /
//    Calling convention =  xdata reentrant                                   /
//    Constant location  =  data_rom                                          /
//    Dptr setup         =  1,16                                              /
//    Source file        =  C:\Users\zhuyi\Desktop\2016 电赛                  /
//                          决赛\8.6\Components\hal\target\CC2530EB\hal_lcd.c /
//    Command line       =  -f "C:\Users\zhuyi\Desktop\2016 电赛              /
//                          决赛\8.6\Projects\zstack\Utilities\SerialApp\CC25 /
//                          30DB\..\..\..\Tools\CC2530DB\f8wEndev.cfg"        /
//                          (-DCPU32MHZ -DROOT=__near_func -DBLINK_LEDS) -f   /
//                          "C:\Users\zhuyi\Desktop\2016 电赛                 /
//                          决赛\8.6\Projects\zstack\Utilities\SerialApp\CC25 /
//                          30DB\..\..\..\Tools\CC2530DB\f8wConfig.cfg"       /
//                          (-DSECURE=0 -DZG_SECURE_DYNAMIC=0 -DREFLECTOR     /
//                          -DDEFAULT_CHANLIST=0x00000800                     /
//                          -DZDAPP_CONFIG_PAN_ID=0xFFF1                      /
//                          -DNWK_START_DELAY=100 -DEXTENDED_JOINING_RANDOM_M /
//                          ASK=0x007F -DBEACON_REQUEST_DELAY=100             /
//                          -DBEACON_REQ_DELAY_MASK=0x00FF                    /
//                          -DROUTE_EXPIRY_TIME=30 -DAPSC_ACK_WAIT_DURATION_P /
//                          OLLED=3000 -DNWK_INDIRECT_MSG_TIMEOUT=7           /
//                          -DMAX_RREQ_ENTRIES=8 -DAPSC_MAX_FRAME_RETRIES=3   /
//                          -DNWK_MAX_DATA_RETRIES=2                          /
//                          -DMAX_POLL_FAILURE_RETRIES=2 -DMAX_BCAST=9        /
//                          -DAPS_MAX_GROUPS=16 -DMAX_RTG_ENTRIES=40          /
//                          -DNWK_MAX_BINDING_ENTRIES=4                       /
//                          -DMAX_BINDING_CLUSTER_IDS=4                       /
//                          "-DDEFAULT_KEY={0x01, 0x03, 0x05, 0x07, 0x09,     /
//                          0x0B, 0x0D, 0x0F, 0x00, 0x02, 0x04, 0x06, 0x08,   /
//                          0x0A, 0x0C, 0x0D}" -DMAC_MAX_FRAME_SIZE=116       /
//                          "-DCONST=const __code" -DGENERIC=__generic        /
//                          -DRFD_RCVC_ALWAYS_ON=FALSE -DPOLL_RATE=1000       /
//                          -DQUEUED_POLL_RATE=100 -DRESPONSE_POLL_RATE=100)  /
//                          -DREJOIN_POLL_RATE=440 "C:\Users\zhuyi\Desktop\20 /
//                          16 电赛  决赛\8.6\Components\hal\target\CC2530EB\ /
//                          hal_lcd.c" -D ZIGBEEPRO -D NWK_AUTO_POLL -D       /
//                          HAL_UART=TRUE -D SERIAL_APP_PORT=0 -D             /
//                          LCD_SUPPORTED -D xPOWER_SAVING -lC                /
//                          "C:\Users\zhuyi\Desktop\2016 电赛                 /
//                          决赛\8.6\Projects\zstack\Utilities\SerialApp\CC25 /
//                          30DB\EndDeviceEB-Pro\List\" -lA                   /
//                          "C:\Users\zhuyi\Desktop\2016 电赛                 /
//                          决赛\8.6\Projects\zstack\Utilities\SerialApp\CC25 /
//                          30DB\EndDeviceEB-Pro\List\" --diag_suppress       /
//                          Pe001,Pa010 -o "C:\Users\zhuyi\Desktop\2016 电赛  /
//                           决赛\8.6\Projects\zstack\Utilities\SerialApp\CC2 /
//                          530DB\EndDeviceEB-Pro\Obj\" -e --no_unroll        /
//                          --no_inline --no_tbaa --debug --core=plain        /
//                          --dptr=16,1 --data_model=large                    /
//                          --code_model=banked --calling_convention=xdata_re /
//                          entrant --place_constants=data_rom                /
//                          --nr_virtual_regs 8 -I "C:\Users\zhuyi\Desktop\20 /
//                          16 电赛  决赛\8.6\Projects\zstack\Utilities\Seria /
//                          lApp\CC2530DB\" -I "C:\Users\zhuyi\Desktop\2016   /
//                          电赛  决赛\8.6\Projects\zstack\Utilities\SerialAp /
//                          p\CC2530DB\..\SOURCE\" -I                         /
//                          "C:\Users\zhuyi\Desktop\2016 电赛                 /
//                          决赛\8.6\Projects\zstack\Utilities\SerialApp\CC25 /
//                          30DB\..\..\..\ZMAIN\TI2530DB\" -I                 /
//                          "C:\Users\zhuyi\Desktop\2016 电赛                 /
//                          决赛\8.6\Projects\zstack\Utilities\SerialApp\CC25 /
//                          30DB\..\..\..\..\..\COMPONENTS\MT\" -I            /
//                          "C:\Users\zhuyi\Desktop\2016 电赛                 /
//                          决赛\8.6\Projects\zstack\Utilities\SerialApp\CC25 /
//                          30DB\..\..\..\..\..\COMPONENTS\HAL\INCLUDE\" -I   /
//                          "C:\Users\zhuyi\Desktop\2016 电赛                 /
//                          决赛\8.6\Projects\zstack\Utilities\SerialApp\CC25 /
//                          30DB\..\..\..\..\..\COMPONENTS\HAL\TARGET\CC2530E /
//                          B\" -I "C:\Users\zhuyi\Desktop\2016 电赛          /
//                          决赛\8.6\Projects\zstack\Utilities\SerialApp\CC25 /
//                          30DB\..\..\..\..\..\COMPONENTS\OSAL\MCU\CCSOC\"   /
//                          -I "C:\Users\zhuyi\Desktop\2016 电赛              /
//                          决赛\8.6\Projects\zstack\Utilities\SerialApp\CC25 /
//                          30DB\..\..\..\..\..\COMPONENTS\OSAL\INCLUDE\" -I  /
//                          "C:\Users\zhuyi\Desktop\2016 电赛                 /
//                          决赛\8.6\Projects\zstack\Utilities\SerialApp\CC25 /
//                          30DB\..\..\..\..\..\COMPONENTS\STACK\AF\" -I      /
//                          "C:\Users\zhuyi\Desktop\2016 电赛                 /
//                          决赛\8.6\Projects\zstack\Utilities\SerialApp\CC25 /
//                          30DB\..\..\..\..\..\COMPONENTS\STACK\NWK\" -I     /
//                          "C:\Users\zhuyi\Desktop\2016 电赛                 /
//                          决赛\8.6\Projects\zstack\Utilities\SerialApp\CC25 /
//                          30DB\..\..\..\..\..\COMPONENTS\STACK\SEC\" -I     /
//                          "C:\Users\zhuyi\Desktop\2016 电赛                 /
//                          决赛\8.6\Projects\zstack\Utilities\SerialApp\CC25 /
//                          30DB\..\..\..\..\..\COMPONENTS\STACK\SAPI\" -I    /
//                          "C:\Users\zhuyi\Desktop\2016 电赛                 /
//                          决赛\8.6\Projects\zstack\Utilities\SerialApp\CC25 /
//                          30DB\..\..\..\..\..\COMPONENTS\STACK\SYS\" -I     /
//                          "C:\Users\zhuyi\Desktop\2016 电赛                 /
//                          决赛\8.6\Projects\zstack\Utilities\SerialApp\CC25 /
//                          30DB\..\..\..\..\..\COMPONENTS\STACK\ZDO\" -I     /
//                          "C:\Users\zhuyi\Desktop\2016 电赛                 /
//                          决赛\8.6\Projects\zstack\Utilities\SerialApp\CC25 /
//                          30DB\..\..\..\..\..\COMPONENTS\ZMAC\F8W\" -I      /
//                          "C:\Users\zhuyi\Desktop\2016 电赛                 /
//                          决赛\8.6\Projects\zstack\Utilities\SerialApp\CC25 /
//                          30DB\..\..\..\..\..\COMPONENTS\ZMAC\" -I          /
//                          "C:\Users\zhuyi\Desktop\2016 电赛                 /
//                          决赛\8.6\Projects\zstack\Utilities\SerialApp\CC25 /
//                          30DB\..\..\..\..\..\COMPONENTS\SERVICES\SADDR\"   /
//                          -I "C:\Users\zhuyi\Desktop\2016 电赛              /
//                          决赛\8.6\Projects\zstack\Utilities\SerialApp\CC25 /
//                          30DB\..\..\..\..\..\COMPONENTS\SERVICES\SDATA\"   /
//                          -I "C:\Users\zhuyi\Desktop\2016 电赛              /
//                          决赛\8.6\Projects\zstack\Utilities\SerialApp\CC25 /
//                          30DB\..\..\..\..\..\COMPONENTS\MAC\INCLUDE\" -I   /
//                          "C:\Users\zhuyi\Desktop\2016 电赛                 /
//                          决赛\8.6\Projects\zstack\Utilities\SerialApp\CC25 /
//                          30DB\..\..\..\..\..\COMPONENTS\MAC\HIGH_LEVEL\"   /
//                          -I "C:\Users\zhuyi\Desktop\2016 电赛              /
//                          决赛\8.6\Projects\zstack\Utilities\SerialApp\CC25 /
//                          30DB\..\..\..\..\..\COMPONENTS\MAC\LOW_LEVEL\srf0 /
//                          4\" -I "C:\Users\zhuyi\Desktop\2016 电赛          /
//                          决赛\8.6\Projects\zstack\Utilities\SerialApp\CC25 /
//                          30DB\..\..\..\..\..\COMPONENTS\MAC\LOW_LEVEL\srf0 /
//                          4\SINGLE_CHIP\" -Om --require_prototypes          /
//    List file          =  C:\Users\zhuyi\Desktop\2016 电赛                  /
//                          决赛\8.6\Projects\zstack\Utilities\SerialApp\CC25 /
//                          30DB\EndDeviceEB-Pro\List\hal_lcd.s51             /
//                                                                            /
//                                                                            /
///////////////////////////////////////////////////////////////////////////////

        NAME hal_lcd

        RTMODEL "__SystemLibrary", "CLib"
        RTMODEL "__calling_convention", "xdata_reentrant"
        RTMODEL "__code_model", "banked"
        RTMODEL "__core", "plain"
        RTMODEL "__data_model", "large"
        RTMODEL "__dptr_size", "16"
        RTMODEL "__extended_stack", "disabled"
        RTMODEL "__location_for_constants", "data"
        RTMODEL "__number_of_dptrs", "1"
        RTMODEL "__rt_version", "1"

        RSEG DOVERLAY:DATA:NOROOT(0)
        RSEG IOVERLAY:IDATA:NOROOT(0)
        RSEG ISTACK:IDATA:NOROOT(0)
        RSEG PSTACK:XDATA:NOROOT(0)
        RSEG XSTACK:XDATA:NOROOT(0)

        EXTERN ?ALLOC_XSTACK8
        EXTERN ?BANKED_ENTER_XDATA
        EXTERN ?BANKED_LEAVE_XDATA
        EXTERN ?BDISPATCH
        EXTERN ?BRET
        EXTERN ?DEALLOC_XSTACK8
        EXTERN ?PUSH_XSTACK_I_THREE
        EXTERN ?PUSH_XSTACK_I_TWO
        EXTERN ?S_SHL
        EXTERN ?V0
        EXTERN ?XSP
        EXTERN ?XSTACK_DISP0_8
        EXTERN __INIT_XDATA_I

        PUBLIC ??DelayMS?relay
        FUNCTION ??DelayMS?relay,0203H
        PUBLIC ??HalLcdInit?relay
        FUNCTION ??HalLcdInit?relay,0203H
        PUBLIC ??HalLcdWriteScreen?relay
        FUNCTION ??HalLcdWriteScreen?relay,0203H
        PUBLIC ??HalLcdWriteString?relay
        FUNCTION ??HalLcdWriteString?relay,0203H
        PUBLIC ??HalLcdWriteStringValue?relay
        FUNCTION ??HalLcdWriteStringValue?relay,0203H
        PUBLIC ??HalLcdWriteStringValueValue?relay
        FUNCTION ??HalLcdWriteStringValueValue?relay,0203H
        PUBLIC ??HalLcdWriteValue?relay
        FUNCTION ??HalLcdWriteValue?relay,0203H
        PUBLIC ??HalLcd_HW_Init?relay
        FUNCTION ??HalLcd_HW_Init?relay,0203H
        PUBLIC ??HalLcd_HW_WaitUs?relay
        FUNCTION ??HalLcd_HW_WaitUs?relay,0203H
        PUBLIC ??LCD_CLS?relay
        FUNCTION ??LCD_CLS?relay,0203H
        PUBLIC ??LCD_DLY_ms?relay
        FUNCTION ??LCD_DLY_ms?relay,0203H
        PUBLIC ??LCD_Fill?relay
        FUNCTION ??LCD_Fill?relay,0203H
        PUBLIC ??LCD_P16x16Ch?relay
        FUNCTION ??LCD_P16x16Ch?relay,0203H
        PUBLIC ??LCD_P8x16Str?relay
        FUNCTION ??LCD_P8x16Str?relay,0203H
        PUBLIC ??LCD_Set_Pos?relay
        FUNCTION ??LCD_Set_Pos?relay,0203H
        PUBLIC ??LCD_WrCmd?relay
        FUNCTION ??LCD_WrCmd?relay,0203H
        PUBLIC ??LCD_WrDat?relay
        FUNCTION ??LCD_WrDat?relay,0203H
        PUBLIC ??LcdClearLine?relay
        FUNCTION ??LcdClearLine?relay,0203H
        PUBLIC DelayMS
        FUNCTION DelayMS,0203H
        ARGFRAME XSTACK, 0, STACK
        PUBLIC F16x16
        PUBLIC F8X16
        PUBLIC HalLcdInit
        FUNCTION HalLcdInit,021203H
        ARGFRAME XSTACK, 0, STACK
        LOCFRAME ISTACK, 2, STACK
        PUBLIC HalLcdWriteScreen
        FUNCTION HalLcdWriteScreen,021203H
        ARGFRAME XSTACK, 0, STACK
        LOCFRAME XSTACK, 9, STACK
        PUBLIC HalLcdWriteString
        FUNCTION HalLcdWriteString,021203H
        ARGFRAME XSTACK, 41, STACK
        ARGFRAME IOVERLAY, 0, STATIC
        ARGFRAME DOVERLAY, 0, STATIC
        LOCFRAME XSTACK, 32, STACK
        PUBLIC HalLcdWriteStringValue
        FUNCTION HalLcdWriteStringValue,021203H
        ARGFRAME XSTACK, 1, STACK
        LOCFRAME XSTACK, 42, STACK
        PUBLIC HalLcdWriteStringValueValue
        FUNCTION HalLcdWriteStringValueValue,021203H
        ARGFRAME XSTACK, 4, STACK
        LOCFRAME XSTACK, 44, STACK
        PUBLIC HalLcdWriteValue
        FUNCTION HalLcdWriteValue,021203H
        ARGFRAME XSTACK, 1, STACK
        LOCFRAME XSTACK, 41, STACK
        PUBLIC HalLcd_HW_Init
        FUNCTION HalLcd_HW_Init,021203H
        ARGFRAME XSTACK, 0, STACK
        ARGFRAME IOVERLAY, 0, STATIC
        ARGFRAME DOVERLAY, 0, STATIC
        LOCFRAME ISTACK, 2, STACK
        PUBLIC HalLcd_HW_WaitUs
        FUNCTION HalLcd_HW_WaitUs,080203H
        ARGFRAME XSTACK, 0, STACK
        PUBLIC LCD_CLS
        FUNCTION LCD_CLS,021203H
        ARGFRAME XSTACK, 0, STACK
        LOCFRAME XSTACK, 9, STACK
        PUBLIC LCD_DLY_ms
        FUNCTION LCD_DLY_ms,0203H
        ARGFRAME XSTACK, 0, STACK
        ARGFRAME IOVERLAY, 0, STATIC
        ARGFRAME DOVERLAY, 0, STATIC
        PUBLIC LCD_Fill
        FUNCTION LCD_Fill,021203H
        ARGFRAME XSTACK, 0, STACK
        ARGFRAME IOVERLAY, 0, STATIC
        ARGFRAME DOVERLAY, 0, STATIC
        LOCFRAME XSTACK, 9, STACK
        PUBLIC LCD_P16x16Ch
        FUNCTION LCD_P16x16Ch,021203H
        ARGFRAME XSTACK, 0, STACK
        LOCFRAME XSTACK, 12, STACK
        PUBLIC LCD_P8x16Str
        FUNCTION LCD_P8x16Str,021203H
        ARGFRAME XSTACK, 29, STACK
        ARGFRAME IOVERLAY, 0, STATIC
        ARGFRAME DOVERLAY, 0, STATIC
        LOCFRAME XSTACK, 17, STACK
        PUBLIC LCD_Set_Pos
        FUNCTION LCD_Set_Pos,021203H
        ARGFRAME XSTACK, 17, STACK
        ARGFRAME IOVERLAY, 0, STATIC
        ARGFRAME DOVERLAY, 0, STATIC
        LOCFRAME XSTACK, 9, STACK
        PUBLIC LCD_WrCmd
        FUNCTION LCD_WrCmd,0203H
        ARGFRAME XSTACK, 15, STACK
        ARGFRAME IOVERLAY, 0, STATIC
        ARGFRAME DOVERLAY, 0, STATIC
        PUBLIC LCD_WrDat
        FUNCTION LCD_WrDat,0203H
        ARGFRAME XSTACK, 17, STACK
        ARGFRAME IOVERLAY, 0, STATIC
        ARGFRAME DOVERLAY, 0, STATIC
        PUBLIC LcdClearLine
        FUNCTION LcdClearLine,021203H
        ARGFRAME XSTACK, 29, STACK
        ARGFRAME IOVERLAY, 0, STATIC
        ARGFRAME DOVERLAY, 0, STATIC
        LOCFRAME XSTACK, 15, STACK
        PUBWEAK P0DIR
        PUBWEAK P0SEL
        PUBWEAK P1DIR
        PUBWEAK P1SEL
        PUBWEAK _A_P0
        PUBWEAK _A_P1
        
        CFI Names cfiNames0
        CFI StackFrame CFA_SP SP IDATA
        CFI StackFrame CFA_PSP16 PSP16 XDATA
        CFI StackFrame CFA_XSP16 XSP16 XDATA
        CFI StaticOverlayFrame CFA_IOVERLAY IOVERLAY
        CFI StaticOverlayFrame CFA_DOVERLAY DOVERLAY
        CFI Resource `PSW.CY`:1, `B.BR0`:1, `B.BR1`:1, `B.BR2`:1, `B.BR3`:1
        CFI Resource `B.BR4`:1, `B.BR5`:1, `B.BR6`:1, `B.BR7`:1, `VB.BR8`:1
        CFI Resource `VB.BR9`:1, `VB.BR10`:1, `VB.BR11`:1, `VB.BR12`:1
        CFI Resource `VB.BR13`:1, `VB.BR14`:1, `VB.BR15`:1, VB:8, B:8, A:8
        CFI Resource PSW:8, DPL0:8, DPH0:8, R0:8, R1:8, R2:8, R3:8, R4:8, R5:8
        CFI Resource R6:8, R7:8, V0:8, V1:8, V2:8, V3:8, V4:8, V5:8, V6:8, V7:8
        CFI Resource SP:8, PSPH:8, PSPL:8, PSP16:16, XSPH:8, XSPL:8, XSP16:16
        CFI VirtualResource ?RET:24
        CFI Resource ?BRET_EXT:8
        CFI VirtualResource ?RET_HIGH:8, ?RET_LOW:8
        CFI ResourceParts PSP16 PSPH, PSPL
        CFI ResourceParts XSP16 XSPH, XSPL
        CFI ResourceParts ?RET ?BRET_EXT, ?RET_HIGH, ?RET_LOW
        CFI EndNames cfiNames0
        
        CFI Common cfiCommon0 Using cfiNames0
        CFI CodeAlign 1
        CFI DataAlign -1
        CFI ReturnAddress ?RET CODE
        CFI CFA_DOVERLAY Used
        CFI CFA_IOVERLAY Used
        CFI CFA_SP SP+-3
        CFI CFA_PSP16 PSP16+0
        CFI CFA_XSP16 XSP16+0
        CFI `PSW.CY` SameValue
        CFI `B.BR0` SameValue
        CFI `B.BR1` SameValue
        CFI `B.BR2` SameValue
        CFI `B.BR3` SameValue
        CFI `B.BR4` SameValue
        CFI `B.BR5` SameValue
        CFI `B.BR6` SameValue
        CFI `B.BR7` SameValue
        CFI `VB.BR8` SameValue
        CFI `VB.BR9` SameValue
        CFI `VB.BR10` SameValue
        CFI `VB.BR11` SameValue
        CFI `VB.BR12` SameValue
        CFI `VB.BR13` SameValue
        CFI `VB.BR14` SameValue
        CFI `VB.BR15` SameValue
        CFI VB SameValue
        CFI B Undefined
        CFI A Undefined
        CFI PSW SameValue
        CFI DPL0 SameValue
        CFI DPH0 SameValue
        CFI R0 Undefined
        CFI R1 Undefined
        CFI R2 Undefined
        CFI R3 Undefined
        CFI R4 Undefined
        CFI R5 Undefined
        CFI R6 SameValue
        CFI R7 SameValue
        CFI V0 SameValue
        CFI V1 SameValue
        CFI V2 SameValue
        CFI V3 SameValue
        CFI V4 SameValue
        CFI V5 SameValue
        CFI V6 SameValue
        CFI V7 SameValue
        CFI PSPH Undefined
        CFI PSPL Undefined
        CFI XSPH Undefined
        CFI XSPL Undefined
        CFI ?RET Concat
        CFI ?BRET_EXT Frame(CFA_SP, 3)
        CFI ?RET_HIGH Frame(CFA_SP, 2)
        CFI ?RET_LOW Frame(CFA_SP, 1)
        CFI EndCommon cfiCommon0
        
_ltoa               SYMBOL "_ltoa"
osal_strlen         SYMBOL "osal_strlen"
osal_memcpy         SYMBOL "osal_memcpy"
osal_memset         SYMBOL "osal_memset"
??_ltoa?relay       SYMBOL "?relay", _ltoa
??osal_memcpy?relay SYMBOL "?relay", osal_memcpy
??osal_memset?relay SYMBOL "?relay", osal_memset
??osal_strlen?relay SYMBOL "?relay", osal_strlen
DelayMS             SYMBOL "DelayMS"
??DelayMS?relay     SYMBOL "?relay", DelayMS
HalLcdInit          SYMBOL "HalLcdInit"
??HalLcdInit?relay  SYMBOL "?relay", HalLcdInit
HalLcdWriteScreen   SYMBOL "HalLcdWriteScreen"
??HalLcdWriteScreen?relay SYMBOL "?relay", HalLcdWriteScreen
HalLcdWriteString   SYMBOL "HalLcdWriteString"
??HalLcdWriteString?relay SYMBOL "?relay", HalLcdWriteString
HalLcdWriteStringValue SYMBOL "HalLcdWriteStringValue"
??HalLcdWriteStringValue?relay SYMBOL "?relay", HalLcdWriteStringValue
HalLcdWriteStringValueValue SYMBOL "HalLcdWriteStringValueValue"
??HalLcdWriteStringValueValue?relay SYMBOL "?relay", HalLcdWriteStringValueValue
HalLcdWriteValue    SYMBOL "HalLcdWriteValue"
??HalLcdWriteValue?relay SYMBOL "?relay", HalLcdWriteValue
HalLcd_HW_Init      SYMBOL "HalLcd_HW_Init"
??HalLcd_HW_Init?relay SYMBOL "?relay", HalLcd_HW_Init
HalLcd_HW_WaitUs    SYMBOL "HalLcd_HW_WaitUs"
??HalLcd_HW_WaitUs?relay SYMBOL "?relay", HalLcd_HW_WaitUs
LCD_CLS             SYMBOL "LCD_CLS"
??LCD_CLS?relay     SYMBOL "?relay", LCD_CLS
LCD_DLY_ms          SYMBOL "LCD_DLY_ms"
??LCD_DLY_ms?relay  SYMBOL "?relay", LCD_DLY_ms
LCD_Fill            SYMBOL "LCD_Fill"
??LCD_Fill?relay    SYMBOL "?relay", LCD_Fill
LCD_P16x16Ch        SYMBOL "LCD_P16x16Ch"
??LCD_P16x16Ch?relay SYMBOL "?relay", LCD_P16x16Ch
LCD_P8x16Str        SYMBOL "LCD_P8x16Str"
??LCD_P8x16Str?relay SYMBOL "?relay", LCD_P8x16Str
LCD_Set_Pos         SYMBOL "LCD_Set_Pos"
??LCD_Set_Pos?relay SYMBOL "?relay", LCD_Set_Pos
LCD_WrCmd           SYMBOL "LCD_WrCmd"
??LCD_WrCmd?relay   SYMBOL "?relay", LCD_WrCmd
LCD_WrDat           SYMBOL "LCD_WrDat"
??LCD_WrDat?relay   SYMBOL "?relay", LCD_WrDat
LcdClearLine        SYMBOL "LcdClearLine"
??LcdClearLine?relay SYMBOL "?relay", LcdClearLine

        EXTERN _ltoa
        FUNCTION _ltoa,0202H
        ARGFRAME ISTACK, 0, STACK
        ARGFRAME PSTACK, 0, STACK
        ARGFRAME XSTACK, 43, STACK
        ARGFRAME IOVERLAY, 0, STATIC
        ARGFRAME DOVERLAY, 0, STATIC
        EXTERN osal_strlen
        FUNCTION osal_strlen,0202H
        ARGFRAME ISTACK, 0, STACK
        ARGFRAME PSTACK, 0, STACK
        ARGFRAME XSTACK, 41, STACK
        ARGFRAME IOVERLAY, 0, STATIC
        ARGFRAME DOVERLAY, 0, STATIC
        EXTERN osal_memcpy
        FUNCTION osal_memcpy,0202H
        ARGFRAME ISTACK, 0, STACK
        ARGFRAME PSTACK, 0, STACK
        ARGFRAME XSTACK, 44, STACK
        ARGFRAME IOVERLAY, 0, STATIC
        ARGFRAME DOVERLAY, 0, STATIC
        EXTERN osal_memset
        FUNCTION osal_memset,0202H
        ARGFRAME ISTACK, 0, STACK
        ARGFRAME PSTACK, 0, STACK
        ARGFRAME XSTACK, 29, STACK
        ARGFRAME IOVERLAY, 0, STATIC
        ARGFRAME DOVERLAY, 0, STATIC
        EXTERN ??_ltoa?relay
        FUNCTION ??_ltoa?relay,00H
        EXTERN ??osal_memcpy?relay
        FUNCTION ??osal_memcpy?relay,00H
        EXTERN ??osal_memset?relay
        FUNCTION ??osal_memset?relay,00H
        EXTERN ??osal_strlen?relay
        FUNCTION ??osal_strlen?relay,00H

// C:\Users\zhuyi\Desktop\2016 电赛  决赛\8.6\Components\hal\target\CC2530EB\hal_lcd.c
//    1 /****************************************************************************
//    2 * Filename: hal_lcd.c
//    3 * Author:      Andy
//    4 * Date:        2013-01-11
//    5 * Version:     1.0
//    6 * Description: OLED driver
//    7 ****************************************************************************/
//    8 #include "hal_types.h"
//    9 #include "hal_lcd.h"

        ASEGN SFR_AN:DATA:NOROOT,080H
// union <unnamed> volatile __sfr _A_P0
_A_P0:
        DATA8
        DS 1

        ASEGN SFR_AN:DATA:NOROOT,090H
// union <unnamed> volatile __sfr _A_P1
_A_P1:
        DATA8
        DS 1

        ASEGN SFR_AN:DATA:NOROOT,0f3H
// unsigned char volatile __sfr P0SEL
P0SEL:
        DATA8
        DS 1

        ASEGN SFR_AN:DATA:NOROOT,0f4H
// unsigned char volatile __sfr P1SEL
P1SEL:
        DATA8
        DS 1

        ASEGN SFR_AN:DATA:NOROOT,0fdH
// unsigned char volatile __sfr P0DIR
P0DIR:
        DATA8
        DS 1

        ASEGN SFR_AN:DATA:NOROOT,0feH
// unsigned char volatile __sfr P1DIR
P1DIR:
        DATA8
        DS 1
//   10 #include "OSAL.h"
//   11 #include "OnBoard.h"
//   12 #include "hal_assert.h"
//   13 #include <string.h>
//   14 
//   15 #if defined (ZTOOL_P1) || defined (ZTOOL_P2)
//   16   #include "DebugTrace.h"
//   17 #endif
//   18 
//   19 #define LCD_SCL P1_2       //SCLK  时钟 D0（SCLK）
//   20 #define LCD_SDA P1_3       //SDA   D1（MOSI） 数据
//   21 #define LCD_RST P1_7       //_RES  hardware reset   复位 
//   22 #define LCD_DC  P0_0       //A0  H/L 命令数据选通端，H：数据，L:命令
//   23 
//   24 #define XLevelL            0x00
//   25 #define XLevelH            0x10
//   26 #define XLevel             ((XLevelH&0x0F)*16+XLevelL)
//   27 #define Max_Column         128
//   28 #define Max_Row            64
//   29 #define Brightness         0xCF 
//   30 #define X_WIDTH            128
//   31 #define Y_WIDTH            64
//   32 
//   33 #define LCD_MAX_BUF        25
//   34 #define HAL_LCD_MAX_CHARS  16   // Max number of chars on a single LCD line 
//   35 
//   36 

        RSEG XDATA_ROM_C:CONST:REORDER:NOROOT(0)
        DATA8
//   37 const unsigned char F8X16[]=	  
F8X16:
        DB 0
        DB 0
        DB 0
        DB 0
        DB 0
        DB 0
        DB 0
        DB 0
        DB 0
        DB 0
        DB 0
        DB 0
        DB 0
        DB 0
        DB 0
        DB 0
        DB 0
        DB 0
        DB 0
        DB 248
        DB 0
        DB 0
        DB 0
        DB 0
        DB 0
        DB 0
        DB 0
        DB 51
        DB 48
        DB 0
        DB 0
        DB 0
        DB 0
        DB 16
        DB 12
        DB 6
        DB 16
        DB 12
        DB 6
        DB 0
        DB 0
        DB 0
        DB 0
        DB 0
        DB 0
        DB 0
        DB 0
        DB 0
        DB 64
        DB 192
        DB 120
        DB 64
        DB 192
        DB 120
        DB 64
        DB 0
        DB 4
        DB 63
        DB 4
        DB 4
        DB 63
        DB 4
        DB 4
        DB 0
        DB 0
        DB 112
        DB 136
        DB 252
        DB 8
        DB 48
        DB 0
        DB 0
        DB 0
        DB 24
        DB 32
        DB 255
        DB 33
        DB 30
        DB 0
        DB 0
        DB 240
        DB 8
        DB 240
        DB 0
        DB 224
        DB 24
        DB 0
        DB 0
        DB 0
        DB 33
        DB 28
        DB 3
        DB 30
        DB 33
        DB 30
        DB 0
        DB 0
        DB 240
        DB 8
        DB 136
        DB 112
        DB 0
        DB 0
        DB 0
        DB 30
        DB 33
        DB 35
        DB 36
        DB 25
        DB 39
        DB 33
        DB 16
        DB 16
        DB 22
        DB 14
        DB 0
        DB 0
        DB 0
        DB 0
        DB 0
        DB 0
        DB 0
        DB 0
        DB 0
        DB 0
        DB 0
        DB 0
        DB 0
        DB 0
        DB 0
        DB 0
        DB 224
        DB 24
        DB 4
        DB 2
        DB 0
        DB 0
        DB 0
        DB 0
        DB 7
        DB 24
        DB 32
        DB 64
        DB 0
        DB 0
        DB 2
        DB 4
        DB 24
        DB 224
        DB 0
        DB 0
        DB 0
        DB 0
        DB 64
        DB 32
        DB 24
        DB 7
        DB 0
        DB 0
        DB 0
        DB 64
        DB 64
        DB 128
        DB 240
        DB 128
        DB 64
        DB 64
        DB 0
        DB 2
        DB 2
        DB 1
        DB 15
        DB 1
        DB 2
        DB 2
        DB 0
        DB 0
        DB 0
        DB 0
        DB 240
        DB 0
        DB 0
        DB 0
        DB 0
        DB 1
        DB 1
        DB 1
        DB 31
        DB 1
        DB 1
        DB 1
        DB 0
        DB 0
        DB 0
        DB 0
        DB 0
        DB 0
        DB 0
        DB 0
        DB 0
        DB 128
        DB 176
        DB 112
        DB 0
        DB 0
        DB 0
        DB 0
        DB 0
        DB 0
        DB 0
        DB 0
        DB 0
        DB 0
        DB 0
        DB 0
        DB 0
        DB 0
        DB 1
        DB 1
        DB 1
        DB 1
        DB 1
        DB 1
        DB 1
        DB 0
        DB 0
        DB 0
        DB 0
        DB 0
        DB 0
        DB 0
        DB 0
        DB 0
        DB 48
        DB 48
        DB 0
        DB 0
        DB 0
        DB 0
        DB 0
        DB 0
        DB 0
        DB 0
        DB 0
        DB 128
        DB 96
        DB 24
        DB 4
        DB 0
        DB 96
        DB 24
        DB 6
        DB 1
        DB 0
        DB 0
        DB 0
        DB 0
        DB 224
        DB 16
        DB 8
        DB 8
        DB 16
        DB 224
        DB 0
        DB 0
        DB 15
        DB 16
        DB 32
        DB 32
        DB 16
        DB 15
        DB 0
        DB 0
        DB 16
        DB 16
        DB 248
        DB 0
        DB 0
        DB 0
        DB 0
        DB 0
        DB 32
        DB 32
        DB 63
        DB 32
        DB 32
        DB 0
        DB 0
        DB 0
        DB 112
        DB 8
        DB 8
        DB 8
        DB 136
        DB 112
        DB 0
        DB 0
        DB 48
        DB 40
        DB 36
        DB 34
        DB 33
        DB 48
        DB 0
        DB 0
        DB 48
        DB 8
        DB 136
        DB 136
        DB 72
        DB 48
        DB 0
        DB 0
        DB 24
        DB 32
        DB 32
        DB 32
        DB 17
        DB 14
        DB 0
        DB 0
        DB 0
        DB 192
        DB 32
        DB 16
        DB 248
        DB 0
        DB 0
        DB 0
        DB 7
        DB 4
        DB 36
        DB 36
        DB 63
        DB 36
        DB 0
        DB 0
        DB 248
        DB 8
        DB 136
        DB 136
        DB 8
        DB 8
        DB 0
        DB 0
        DB 25
        DB 33
        DB 32
        DB 32
        DB 17
        DB 14
        DB 0
        DB 0
        DB 224
        DB 16
        DB 136
        DB 136
        DB 24
        DB 0
        DB 0
        DB 0
        DB 15
        DB 17
        DB 32
        DB 32
        DB 17
        DB 14
        DB 0
        DB 0
        DB 56
        DB 8
        DB 8
        DB 200
        DB 56
        DB 8
        DB 0
        DB 0
        DB 0
        DB 0
        DB 63
        DB 0
        DB 0
        DB 0
        DB 0
        DB 0
        DB 112
        DB 136
        DB 8
        DB 8
        DB 136
        DB 112
        DB 0
        DB 0
        DB 28
        DB 34
        DB 33
        DB 33
        DB 34
        DB 28
        DB 0
        DB 0
        DB 224
        DB 16
        DB 8
        DB 8
        DB 16
        DB 224
        DB 0
        DB 0
        DB 0
        DB 49
        DB 34
        DB 34
        DB 17
        DB 15
        DB 0
        DB 0
        DB 0
        DB 0
        DB 192
        DB 192
        DB 0
        DB 0
        DB 0
        DB 0
        DB 0
        DB 0
        DB 48
        DB 48
        DB 0
        DB 0
        DB 0
        DB 0
        DB 0
        DB 0
        DB 128
        DB 0
        DB 0
        DB 0
        DB 0
        DB 0
        DB 0
        DB 128
        DB 96
        DB 0
        DB 0
        DB 0
        DB 0
        DB 0
        DB 0
        DB 128
        DB 64
        DB 32
        DB 16
        DB 8
        DB 0
        DB 0
        DB 1
        DB 2
        DB 4
        DB 8
        DB 16
        DB 32
        DB 0
        DB 64
        DB 64
        DB 64
        DB 64
        DB 64
        DB 64
        DB 64
        DB 0
        DB 4
        DB 4
        DB 4
        DB 4
        DB 4
        DB 4
        DB 4
        DB 0
        DB 0
        DB 8
        DB 16
        DB 32
        DB 64
        DB 128
        DB 0
        DB 0
        DB 0
        DB 32
        DB 16
        DB 8
        DB 4
        DB 2
        DB 1
        DB 0
        DB 0
        DB 112
        DB 72
        DB 8
        DB 8
        DB 8
        DB 240
        DB 0
        DB 0
        DB 0
        DB 0
        DB 48
        DB 54
        DB 1
        DB 0
        DB 0
        DB 192
        DB 48
        DB 200
        DB 40
        DB 232
        DB 16
        DB 224
        DB 0
        DB 7
        DB 24
        DB 39
        DB 36
        DB 35
        DB 20
        DB 11
        DB 0
        DB 0
        DB 0
        DB 192
        DB 56
        DB 224
        DB 0
        DB 0
        DB 0
        DB 32
        DB 60
        DB 35
        DB 2
        DB 2
        DB 39
        DB 56
        DB 32
        DB 8
        DB 248
        DB 136
        DB 136
        DB 136
        DB 112
        DB 0
        DB 0
        DB 32
        DB 63
        DB 32
        DB 32
        DB 32
        DB 17
        DB 14
        DB 0
        DB 192
        DB 48
        DB 8
        DB 8
        DB 8
        DB 8
        DB 56
        DB 0
        DB 7
        DB 24
        DB 32
        DB 32
        DB 32
        DB 16
        DB 8
        DB 0
        DB 8
        DB 248
        DB 8
        DB 8
        DB 8
        DB 16
        DB 224
        DB 0
        DB 32
        DB 63
        DB 32
        DB 32
        DB 32
        DB 16
        DB 15
        DB 0
        DB 8
        DB 248
        DB 136
        DB 136
        DB 232
        DB 8
        DB 16
        DB 0
        DB 32
        DB 63
        DB 32
        DB 32
        DB 35
        DB 32
        DB 24
        DB 0
        DB 8
        DB 248
        DB 136
        DB 136
        DB 232
        DB 8
        DB 16
        DB 0
        DB 32
        DB 63
        DB 32
        DB 0
        DB 3
        DB 0
        DB 0
        DB 0
        DB 192
        DB 48
        DB 8
        DB 8
        DB 8
        DB 56
        DB 0
        DB 0
        DB 7
        DB 24
        DB 32
        DB 32
        DB 34
        DB 30
        DB 2
        DB 0
        DB 8
        DB 248
        DB 8
        DB 0
        DB 0
        DB 8
        DB 248
        DB 8
        DB 32
        DB 63
        DB 33
        DB 1
        DB 1
        DB 33
        DB 63
        DB 32
        DB 0
        DB 8
        DB 8
        DB 248
        DB 8
        DB 8
        DB 0
        DB 0
        DB 0
        DB 32
        DB 32
        DB 63
        DB 32
        DB 32
        DB 0
        DB 0
        DB 0
        DB 0
        DB 8
        DB 8
        DB 248
        DB 8
        DB 8
        DB 0
        DB 192
        DB 128
        DB 128
        DB 128
        DB 127
        DB 0
        DB 0
        DB 0
        DB 8
        DB 248
        DB 136
        DB 192
        DB 40
        DB 24
        DB 8
        DB 0
        DB 32
        DB 63
        DB 32
        DB 1
        DB 38
        DB 56
        DB 32
        DB 0
        DB 8
        DB 248
        DB 8
        DB 0
        DB 0
        DB 0
        DB 0
        DB 0
        DB 32
        DB 63
        DB 32
        DB 32
        DB 32
        DB 32
        DB 48
        DB 0
        DB 8
        DB 248
        DB 248
        DB 0
        DB 248
        DB 248
        DB 8
        DB 0
        DB 32
        DB 63
        DB 0
        DB 63
        DB 0
        DB 63
        DB 32
        DB 0
        DB 8
        DB 248
        DB 48
        DB 192
        DB 0
        DB 8
        DB 248
        DB 8
        DB 32
        DB 63
        DB 32
        DB 0
        DB 7
        DB 24
        DB 63
        DB 0
        DB 224
        DB 16
        DB 8
        DB 8
        DB 8
        DB 16
        DB 224
        DB 0
        DB 15
        DB 16
        DB 32
        DB 32
        DB 32
        DB 16
        DB 15
        DB 0
        DB 8
        DB 248
        DB 8
        DB 8
        DB 8
        DB 8
        DB 240
        DB 0
        DB 32
        DB 63
        DB 33
        DB 1
        DB 1
        DB 1
        DB 0
        DB 0
        DB 224
        DB 16
        DB 8
        DB 8
        DB 8
        DB 16
        DB 224
        DB 0
        DB 15
        DB 24
        DB 36
        DB 36
        DB 56
        DB 80
        DB 79
        DB 0
        DB 8
        DB 248
        DB 136
        DB 136
        DB 136
        DB 136
        DB 112
        DB 0
        DB 32
        DB 63
        DB 32
        DB 0
        DB 3
        DB 12
        DB 48
        DB 32
        DB 0
        DB 112
        DB 136
        DB 8
        DB 8
        DB 8
        DB 56
        DB 0
        DB 0
        DB 56
        DB 32
        DB 33
        DB 33
        DB 34
        DB 28
        DB 0
        DB 24
        DB 8
        DB 8
        DB 248
        DB 8
        DB 8
        DB 24
        DB 0
        DB 0
        DB 0
        DB 32
        DB 63
        DB 32
        DB 0
        DB 0
        DB 0
        DB 8
        DB 248
        DB 8
        DB 0
        DB 0
        DB 8
        DB 248
        DB 8
        DB 0
        DB 31
        DB 32
        DB 32
        DB 32
        DB 32
        DB 31
        DB 0
        DB 8
        DB 120
        DB 136
        DB 0
        DB 0
        DB 200
        DB 56
        DB 8
        DB 0
        DB 0
        DB 7
        DB 56
        DB 14
        DB 1
        DB 0
        DB 0
        DB 248
        DB 8
        DB 0
        DB 248
        DB 0
        DB 8
        DB 248
        DB 0
        DB 3
        DB 60
        DB 7
        DB 0
        DB 7
        DB 60
        DB 3
        DB 0
        DB 8
        DB 24
        DB 104
        DB 128
        DB 128
        DB 104
        DB 24
        DB 8
        DB 32
        DB 48
        DB 44
        DB 3
        DB 3
        DB 44
        DB 48
        DB 32
        DB 8
        DB 56
        DB 200
        DB 0
        DB 200
        DB 56
        DB 8
        DB 0
        DB 0
        DB 0
        DB 32
        DB 63
        DB 32
        DB 0
        DB 0
        DB 0
        DB 16
        DB 8
        DB 8
        DB 8
        DB 200
        DB 56
        DB 8
        DB 0
        DB 32
        DB 56
        DB 38
        DB 33
        DB 32
        DB 32
        DB 24
        DB 0
        DB 0
        DB 0
        DB 0
        DB 254
        DB 2
        DB 2
        DB 2
        DB 0
        DB 0
        DB 0
        DB 0
        DB 127
        DB 64
        DB 64
        DB 64
        DB 0
        DB 0
        DB 12
        DB 48
        DB 192
        DB 0
        DB 0
        DB 0
        DB 0
        DB 0
        DB 0
        DB 0
        DB 1
        DB 6
        DB 56
        DB 192
        DB 0
        DB 0
        DB 2
        DB 2
        DB 2
        DB 254
        DB 0
        DB 0
        DB 0
        DB 0
        DB 64
        DB 64
        DB 64
        DB 127
        DB 0
        DB 0
        DB 0
        DB 0
        DB 0
        DB 4
        DB 2
        DB 2
        DB 2
        DB 4
        DB 0
        DB 0
        DB 0
        DB 0
        DB 0
        DB 0
        DB 0
        DB 0
        DB 0
        DB 0
        DB 0
        DB 0
        DB 0
        DB 0
        DB 0
        DB 0
        DB 0
        DB 128
        DB 128
        DB 128
        DB 128
        DB 128
        DB 128
        DB 128
        DB 128
        DB 0
        DB 2
        DB 2
        DB 4
        DB 0
        DB 0
        DB 0
        DB 0
        DB 0
        DB 0
        DB 0
        DB 0
        DB 0
        DB 0
        DB 0
        DB 0
        DB 0
        DB 0
        DB 128
        DB 128
        DB 128
        DB 128
        DB 0
        DB 0
        DB 0
        DB 25
        DB 36
        DB 34
        DB 34
        DB 34
        DB 63
        DB 32
        DB 8
        DB 248
        DB 0
        DB 128
        DB 128
        DB 0
        DB 0
        DB 0
        DB 0
        DB 63
        DB 17
        DB 32
        DB 32
        DB 17
        DB 14
        DB 0
        DB 0
        DB 0
        DB 0
        DB 128
        DB 128
        DB 128
        DB 0
        DB 0
        DB 0
        DB 14
        DB 17
        DB 32
        DB 32
        DB 32
        DB 17
        DB 0
        DB 0
        DB 0
        DB 0
        DB 128
        DB 128
        DB 136
        DB 248
        DB 0
        DB 0
        DB 14
        DB 17
        DB 32
        DB 32
        DB 16
        DB 63
        DB 32
        DB 0
        DB 0
        DB 128
        DB 128
        DB 128
        DB 128
        DB 0
        DB 0
        DB 0
        DB 31
        DB 34
        DB 34
        DB 34
        DB 34
        DB 19
        DB 0
        DB 0
        DB 128
        DB 128
        DB 240
        DB 136
        DB 136
        DB 136
        DB 24
        DB 0
        DB 32
        DB 32
        DB 63
        DB 32
        DB 32
        DB 0
        DB 0
        DB 0
        DB 0
        DB 128
        DB 128
        DB 128
        DB 128
        DB 128
        DB 0
        DB 0
        DB 107
        DB 148
        DB 148
        DB 148
        DB 147
        DB 96
        DB 0
        DB 8
        DB 248
        DB 0
        DB 128
        DB 128
        DB 128
        DB 0
        DB 0
        DB 32
        DB 63
        DB 33
        DB 0
        DB 0
        DB 32
        DB 63
        DB 32
        DB 0
        DB 128
        DB 152
        DB 152
        DB 0
        DB 0
        DB 0
        DB 0
        DB 0
        DB 32
        DB 32
        DB 63
        DB 32
        DB 32
        DB 0
        DB 0
        DB 0
        DB 0
        DB 0
        DB 128
        DB 152
        DB 152
        DB 0
        DB 0
        DB 0
        DB 192
        DB 128
        DB 128
        DB 128
        DB 127
        DB 0
        DB 0
        DB 8
        DB 248
        DB 0
        DB 0
        DB 128
        DB 128
        DB 128
        DB 0
        DB 32
        DB 63
        DB 36
        DB 2
        DB 45
        DB 48
        DB 32
        DB 0
        DB 0
        DB 8
        DB 8
        DB 248
        DB 0
        DB 0
        DB 0
        DB 0
        DB 0
        DB 32
        DB 32
        DB 63
        DB 32
        DB 32
        DB 0
        DB 0
        DB 128
        DB 128
        DB 128
        DB 128
        DB 128
        DB 128
        DB 128
        DB 0
        DB 32
        DB 63
        DB 32
        DB 0
        DB 63
        DB 32
        DB 0
        DB 63
        DB 128
        DB 128
        DB 0
        DB 128
        DB 128
        DB 128
        DB 0
        DB 0
        DB 32
        DB 63
        DB 33
        DB 0
        DB 0
        DB 32
        DB 63
        DB 32
        DB 0
        DB 0
        DB 128
        DB 128
        DB 128
        DB 128
        DB 0
        DB 0
        DB 0
        DB 31
        DB 32
        DB 32
        DB 32
        DB 32
        DB 31
        DB 0
        DB 128
        DB 128
        DB 0
        DB 128
        DB 128
        DB 0
        DB 0
        DB 0
        DB 128
        DB 255
        DB 161
        DB 32
        DB 32
        DB 17
        DB 14
        DB 0
        DB 0
        DB 0
        DB 0
        DB 128
        DB 128
        DB 128
        DB 128
        DB 0
        DB 0
        DB 14
        DB 17
        DB 32
        DB 32
        DB 160
        DB 255
        DB 128
        DB 128
        DB 128
        DB 128
        DB 0
        DB 128
        DB 128
        DB 128
        DB 0
        DB 32
        DB 32
        DB 63
        DB 33
        DB 32
        DB 0
        DB 1
        DB 0
        DB 0
        DB 0
        DB 128
        DB 128
        DB 128
        DB 128
        DB 128
        DB 0
        DB 0
        DB 51
        DB 36
        DB 36
        DB 36
        DB 36
        DB 25
        DB 0
        DB 0
        DB 128
        DB 128
        DB 224
        DB 128
        DB 128
        DB 0
        DB 0
        DB 0
        DB 0
        DB 0
        DB 31
        DB 32
        DB 32
        DB 0
        DB 0
        DB 128
        DB 128
        DB 0
        DB 0
        DB 0
        DB 128
        DB 128
        DB 0
        DB 0
        DB 31
        DB 32
        DB 32
        DB 32
        DB 16
        DB 63
        DB 32
        DB 128
        DB 128
        DB 128
        DB 0
        DB 0
        DB 128
        DB 128
        DB 128
        DB 0
        DB 1
        DB 14
        DB 48
        DB 8
        DB 6
        DB 1
        DB 0
        DB 128
        DB 128
        DB 0
        DB 128
        DB 0
        DB 128
        DB 128
        DB 128
        DB 15
        DB 48
        DB 12
        DB 3
        DB 12
        DB 48
        DB 15
        DB 0
        DB 0
        DB 128
        DB 128
        DB 0
        DB 128
        DB 128
        DB 128
        DB 0
        DB 0
        DB 32
        DB 49
        DB 46
        DB 14
        DB 49
        DB 32
        DB 0
        DB 128
        DB 128
        DB 128
        DB 0
        DB 0
        DB 128
        DB 128
        DB 128
        DB 128
        DB 129
        DB 142
        DB 112
        DB 24
        DB 6
        DB 1
        DB 0
        DB 0
        DB 128
        DB 128
        DB 128
        DB 128
        DB 128
        DB 128
        DB 0
        DB 0
        DB 33
        DB 48
        DB 44
        DB 34
        DB 33
        DB 48
        DB 0
        DB 0
        DB 0
        DB 0
        DB 0
        DB 128
        DB 124
        DB 2
        DB 2
        DB 0
        DB 0
        DB 0
        DB 0
        DB 0
        DB 63
        DB 64
        DB 64
        DB 0
        DB 0
        DB 0
        DB 0
        DB 255
        DB 0
        DB 0
        DB 0
        DB 0
        DB 0
        DB 0
        DB 0
        DB 255
        DB 0
        DB 0
        DB 0
        DB 0
        DB 2
        DB 2
        DB 124
        DB 128
        DB 0
        DB 0
        DB 0
        DB 0
        DB 64
        DB 64
        DB 63
        DB 0
        DB 0
        DB 0
        DB 0
        DB 0
        DB 6
        DB 1
        DB 1
        DB 2
        DB 2
        DB 4
        DB 4
        DB 0
        DB 0
        DB 0
        DB 0
        DB 0
        DB 0
        DB 0
        DB 0
//   38 {
//   39   0x00,0x00,0x00,0x00,0x00,0x00,0x00,0x00,0x00,0x00,0x00,0x00,0x00,0x00,0x00,0x00,// 0
//   40   0x00,0x00,0x00,0xF8,0x00,0x00,0x00,0x00,0x00,0x00,0x00,0x33,0x30,0x00,0x00,0x00,//! 1
//   41   0x00,0x10,0x0C,0x06,0x10,0x0C,0x06,0x00,0x00,0x00,0x00,0x00,0x00,0x00,0x00,0x00,//" 2
//   42   0x40,0xC0,0x78,0x40,0xC0,0x78,0x40,0x00,0x04,0x3F,0x04,0x04,0x3F,0x04,0x04,0x00,//# 3
//   43   0x00,0x70,0x88,0xFC,0x08,0x30,0x00,0x00,0x00,0x18,0x20,0xFF,0x21,0x1E,0x00,0x00,//$ 4
//   44   0xF0,0x08,0xF0,0x00,0xE0,0x18,0x00,0x00,0x00,0x21,0x1C,0x03,0x1E,0x21,0x1E,0x00,//% 5
//   45   0x00,0xF0,0x08,0x88,0x70,0x00,0x00,0x00,0x1E,0x21,0x23,0x24,0x19,0x27,0x21,0x10,//& 6
//   46   0x10,0x16,0x0E,0x00,0x00,0x00,0x00,0x00,0x00,0x00,0x00,0x00,0x00,0x00,0x00,0x00,//' 7
//   47   0x00,0x00,0x00,0xE0,0x18,0x04,0x02,0x00,0x00,0x00,0x00,0x07,0x18,0x20,0x40,0x00,//( 8
//   48   0x00,0x02,0x04,0x18,0xE0,0x00,0x00,0x00,0x00,0x40,0x20,0x18,0x07,0x00,0x00,0x00,//) 9
//   49   0x40,0x40,0x80,0xF0,0x80,0x40,0x40,0x00,0x02,0x02,0x01,0x0F,0x01,0x02,0x02,0x00,//* 10
//   50   0x00,0x00,0x00,0xF0,0x00,0x00,0x00,0x00,0x01,0x01,0x01,0x1F,0x01,0x01,0x01,0x00,//+ 11
//   51   0x00,0x00,0x00,0x00,0x00,0x00,0x00,0x00,0x80,0xB0,0x70,0x00,0x00,0x00,0x00,0x00,//, 12
//   52   0x00,0x00,0x00,0x00,0x00,0x00,0x00,0x00,0x00,0x01,0x01,0x01,0x01,0x01,0x01,0x01,//- 13
//   53   0x00,0x00,0x00,0x00,0x00,0x00,0x00,0x00,0x00,0x30,0x30,0x00,0x00,0x00,0x00,0x00,//. 14
//   54   0x00,0x00,0x00,0x00,0x80,0x60,0x18,0x04,0x00,0x60,0x18,0x06,0x01,0x00,0x00,0x00,/// 15
//   55   0x00,0xE0,0x10,0x08,0x08,0x10,0xE0,0x00,0x00,0x0F,0x10,0x20,0x20,0x10,0x0F,0x00,//0 16
//   56   0x00,0x10,0x10,0xF8,0x00,0x00,0x00,0x00,0x00,0x20,0x20,0x3F,0x20,0x20,0x00,0x00,//1 17
//   57   0x00,0x70,0x08,0x08,0x08,0x88,0x70,0x00,0x00,0x30,0x28,0x24,0x22,0x21,0x30,0x00,//2 18
//   58   0x00,0x30,0x08,0x88,0x88,0x48,0x30,0x00,0x00,0x18,0x20,0x20,0x20,0x11,0x0E,0x00,//3 19
//   59   0x00,0x00,0xC0,0x20,0x10,0xF8,0x00,0x00,0x00,0x07,0x04,0x24,0x24,0x3F,0x24,0x00,//4 20
//   60   0x00,0xF8,0x08,0x88,0x88,0x08,0x08,0x00,0x00,0x19,0x21,0x20,0x20,0x11,0x0E,0x00,//5 21
//   61   0x00,0xE0,0x10,0x88,0x88,0x18,0x00,0x00,0x00,0x0F,0x11,0x20,0x20,0x11,0x0E,0x00,//6 22
//   62   0x00,0x38,0x08,0x08,0xC8,0x38,0x08,0x00,0x00,0x00,0x00,0x3F,0x00,0x00,0x00,0x00,//7 23
//   63   0x00,0x70,0x88,0x08,0x08,0x88,0x70,0x00,0x00,0x1C,0x22,0x21,0x21,0x22,0x1C,0x00,//8 24
//   64   0x00,0xE0,0x10,0x08,0x08,0x10,0xE0,0x00,0x00,0x00,0x31,0x22,0x22,0x11,0x0F,0x00,//9 25
//   65   0x00,0x00,0x00,0xC0,0xC0,0x00,0x00,0x00,0x00,0x00,0x00,0x30,0x30,0x00,0x00,0x00,//: 26
//   66   0x00,0x00,0x00,0x80,0x00,0x00,0x00,0x00,0x00,0x00,0x80,0x60,0x00,0x00,0x00,0x00,//; 27
//   67   0x00,0x00,0x80,0x40,0x20,0x10,0x08,0x00,0x00,0x01,0x02,0x04,0x08,0x10,0x20,0x00,//< 28
//   68   0x40,0x40,0x40,0x40,0x40,0x40,0x40,0x00,0x04,0x04,0x04,0x04,0x04,0x04,0x04,0x00,//= 29
//   69   0x00,0x08,0x10,0x20,0x40,0x80,0x00,0x00,0x00,0x20,0x10,0x08,0x04,0x02,0x01,0x00,//> 30
//   70   0x00,0x70,0x48,0x08,0x08,0x08,0xF0,0x00,0x00,0x00,0x00,0x30,0x36,0x01,0x00,0x00,//? 31
//   71   0xC0,0x30,0xC8,0x28,0xE8,0x10,0xE0,0x00,0x07,0x18,0x27,0x24,0x23,0x14,0x0B,0x00,//@ 32
//   72   0x00,0x00,0xC0,0x38,0xE0,0x00,0x00,0x00,0x20,0x3C,0x23,0x02,0x02,0x27,0x38,0x20,//A 33
//   73   0x08,0xF8,0x88,0x88,0x88,0x70,0x00,0x00,0x20,0x3F,0x20,0x20,0x20,0x11,0x0E,0x00,//B 34
//   74   0xC0,0x30,0x08,0x08,0x08,0x08,0x38,0x00,0x07,0x18,0x20,0x20,0x20,0x10,0x08,0x00,//C 35
//   75   0x08,0xF8,0x08,0x08,0x08,0x10,0xE0,0x00,0x20,0x3F,0x20,0x20,0x20,0x10,0x0F,0x00,//D 36
//   76   0x08,0xF8,0x88,0x88,0xE8,0x08,0x10,0x00,0x20,0x3F,0x20,0x20,0x23,0x20,0x18,0x00,//E 37
//   77   0x08,0xF8,0x88,0x88,0xE8,0x08,0x10,0x00,0x20,0x3F,0x20,0x00,0x03,0x00,0x00,0x00,//F 38
//   78   0xC0,0x30,0x08,0x08,0x08,0x38,0x00,0x00,0x07,0x18,0x20,0x20,0x22,0x1E,0x02,0x00,//G 39
//   79   0x08,0xF8,0x08,0x00,0x00,0x08,0xF8,0x08,0x20,0x3F,0x21,0x01,0x01,0x21,0x3F,0x20,//H 40
//   80   0x00,0x08,0x08,0xF8,0x08,0x08,0x00,0x00,0x00,0x20,0x20,0x3F,0x20,0x20,0x00,0x00,//I 41
//   81   0x00,0x00,0x08,0x08,0xF8,0x08,0x08,0x00,0xC0,0x80,0x80,0x80,0x7F,0x00,0x00,0x00,//J 42
//   82   0x08,0xF8,0x88,0xC0,0x28,0x18,0x08,0x00,0x20,0x3F,0x20,0x01,0x26,0x38,0x20,0x00,//K 43
//   83   0x08,0xF8,0x08,0x00,0x00,0x00,0x00,0x00,0x20,0x3F,0x20,0x20,0x20,0x20,0x30,0x00,//L 44
//   84   0x08,0xF8,0xF8,0x00,0xF8,0xF8,0x08,0x00,0x20,0x3F,0x00,0x3F,0x00,0x3F,0x20,0x00,//M 45
//   85   0x08,0xF8,0x30,0xC0,0x00,0x08,0xF8,0x08,0x20,0x3F,0x20,0x00,0x07,0x18,0x3F,0x00,//N 46
//   86   0xE0,0x10,0x08,0x08,0x08,0x10,0xE0,0x00,0x0F,0x10,0x20,0x20,0x20,0x10,0x0F,0x00,//O 47
//   87   0x08,0xF8,0x08,0x08,0x08,0x08,0xF0,0x00,0x20,0x3F,0x21,0x01,0x01,0x01,0x00,0x00,//P 48
//   88   0xE0,0x10,0x08,0x08,0x08,0x10,0xE0,0x00,0x0F,0x18,0x24,0x24,0x38,0x50,0x4F,0x00,//Q 49
//   89   0x08,0xF8,0x88,0x88,0x88,0x88,0x70,0x00,0x20,0x3F,0x20,0x00,0x03,0x0C,0x30,0x20,//R 50
//   90   0x00,0x70,0x88,0x08,0x08,0x08,0x38,0x00,0x00,0x38,0x20,0x21,0x21,0x22,0x1C,0x00,//S 51
//   91   0x18,0x08,0x08,0xF8,0x08,0x08,0x18,0x00,0x00,0x00,0x20,0x3F,0x20,0x00,0x00,0x00,//T 52
//   92   0x08,0xF8,0x08,0x00,0x00,0x08,0xF8,0x08,0x00,0x1F,0x20,0x20,0x20,0x20,0x1F,0x00,//U 53
//   93   0x08,0x78,0x88,0x00,0x00,0xC8,0x38,0x08,0x00,0x00,0x07,0x38,0x0E,0x01,0x00,0x00,//V 54
//   94   0xF8,0x08,0x00,0xF8,0x00,0x08,0xF8,0x00,0x03,0x3C,0x07,0x00,0x07,0x3C,0x03,0x00,//W 55
//   95   0x08,0x18,0x68,0x80,0x80,0x68,0x18,0x08,0x20,0x30,0x2C,0x03,0x03,0x2C,0x30,0x20,//X 56
//   96   0x08,0x38,0xC8,0x00,0xC8,0x38,0x08,0x00,0x00,0x00,0x20,0x3F,0x20,0x00,0x00,0x00,//Y 57
//   97   0x10,0x08,0x08,0x08,0xC8,0x38,0x08,0x00,0x20,0x38,0x26,0x21,0x20,0x20,0x18,0x00,//Z 58
//   98   0x00,0x00,0x00,0xFE,0x02,0x02,0x02,0x00,0x00,0x00,0x00,0x7F,0x40,0x40,0x40,0x00,//[ 59
//   99   0x00,0x0C,0x30,0xC0,0x00,0x00,0x00,0x00,0x00,0x00,0x00,0x01,0x06,0x38,0xC0,0x00,//\ 60
//  100   0x00,0x02,0x02,0x02,0xFE,0x00,0x00,0x00,0x00,0x40,0x40,0x40,0x7F,0x00,0x00,0x00,//] 61
//  101   0x00,0x00,0x04,0x02,0x02,0x02,0x04,0x00,0x00,0x00,0x00,0x00,0x00,0x00,0x00,0x00,//^ 62
//  102   0x00,0x00,0x00,0x00,0x00,0x00,0x00,0x00,0x80,0x80,0x80,0x80,0x80,0x80,0x80,0x80,//_ 63
//  103   0x00,0x02,0x02,0x04,0x00,0x00,0x00,0x00,0x00,0x00,0x00,0x00,0x00,0x00,0x00,0x00,//` 64
//  104   0x00,0x00,0x80,0x80,0x80,0x80,0x00,0x00,0x00,0x19,0x24,0x22,0x22,0x22,0x3F,0x20,//a 65
//  105   0x08,0xF8,0x00,0x80,0x80,0x00,0x00,0x00,0x00,0x3F,0x11,0x20,0x20,0x11,0x0E,0x00,//b 66
//  106   0x00,0x00,0x00,0x80,0x80,0x80,0x00,0x00,0x00,0x0E,0x11,0x20,0x20,0x20,0x11,0x00,//c 67
//  107   0x00,0x00,0x00,0x80,0x80,0x88,0xF8,0x00,0x00,0x0E,0x11,0x20,0x20,0x10,0x3F,0x20,//d 68
//  108   0x00,0x00,0x80,0x80,0x80,0x80,0x00,0x00,0x00,0x1F,0x22,0x22,0x22,0x22,0x13,0x00,//e 69
//  109   0x00,0x80,0x80,0xF0,0x88,0x88,0x88,0x18,0x00,0x20,0x20,0x3F,0x20,0x20,0x00,0x00,//f 70
//  110   0x00,0x00,0x80,0x80,0x80,0x80,0x80,0x00,0x00,0x6B,0x94,0x94,0x94,0x93,0x60,0x00,//g 71
//  111   0x08,0xF8,0x00,0x80,0x80,0x80,0x00,0x00,0x20,0x3F,0x21,0x00,0x00,0x20,0x3F,0x20,//h 72
//  112   0x00,0x80,0x98,0x98,0x00,0x00,0x00,0x00,0x00,0x20,0x20,0x3F,0x20,0x20,0x00,0x00,//i 73
//  113   0x00,0x00,0x00,0x80,0x98,0x98,0x00,0x00,0x00,0xC0,0x80,0x80,0x80,0x7F,0x00,0x00,//j 74
//  114   0x08,0xF8,0x00,0x00,0x80,0x80,0x80,0x00,0x20,0x3F,0x24,0x02,0x2D,0x30,0x20,0x00,//k 75
//  115   0x00,0x08,0x08,0xF8,0x00,0x00,0x00,0x00,0x00,0x20,0x20,0x3F,0x20,0x20,0x00,0x00,//l 76
//  116   0x80,0x80,0x80,0x80,0x80,0x80,0x80,0x00,0x20,0x3F,0x20,0x00,0x3F,0x20,0x00,0x3F,//m 77
//  117   0x80,0x80,0x00,0x80,0x80,0x80,0x00,0x00,0x20,0x3F,0x21,0x00,0x00,0x20,0x3F,0x20,//n 78
//  118   0x00,0x00,0x80,0x80,0x80,0x80,0x00,0x00,0x00,0x1F,0x20,0x20,0x20,0x20,0x1F,0x00,//o 79
//  119   0x80,0x80,0x00,0x80,0x80,0x00,0x00,0x00,0x80,0xFF,0xA1,0x20,0x20,0x11,0x0E,0x00,//p 80
//  120   0x00,0x00,0x00,0x80,0x80,0x80,0x80,0x00,0x00,0x0E,0x11,0x20,0x20,0xA0,0xFF,0x80,//q 81
//  121   0x80,0x80,0x80,0x00,0x80,0x80,0x80,0x00,0x20,0x20,0x3F,0x21,0x20,0x00,0x01,0x00,//r 82
//  122   0x00,0x00,0x80,0x80,0x80,0x80,0x80,0x00,0x00,0x33,0x24,0x24,0x24,0x24,0x19,0x00,//s 83
//  123   0x00,0x80,0x80,0xE0,0x80,0x80,0x00,0x00,0x00,0x00,0x00,0x1F,0x20,0x20,0x00,0x00,//t 84
//  124   0x80,0x80,0x00,0x00,0x00,0x80,0x80,0x00,0x00,0x1F,0x20,0x20,0x20,0x10,0x3F,0x20,//u 85
//  125   0x80,0x80,0x80,0x00,0x00,0x80,0x80,0x80,0x00,0x01,0x0E,0x30,0x08,0x06,0x01,0x00,//v 86
//  126   0x80,0x80,0x00,0x80,0x00,0x80,0x80,0x80,0x0F,0x30,0x0C,0x03,0x0C,0x30,0x0F,0x00,//w 87
//  127   0x00,0x80,0x80,0x00,0x80,0x80,0x80,0x00,0x00,0x20,0x31,0x2E,0x0E,0x31,0x20,0x00,//x 88
//  128   0x80,0x80,0x80,0x00,0x00,0x80,0x80,0x80,0x80,0x81,0x8E,0x70,0x18,0x06,0x01,0x00,//y 89
//  129   0x00,0x80,0x80,0x80,0x80,0x80,0x80,0x00,0x00,0x21,0x30,0x2C,0x22,0x21,0x30,0x00,//z 90
//  130   0x00,0x00,0x00,0x00,0x80,0x7C,0x02,0x02,0x00,0x00,0x00,0x00,0x00,0x3F,0x40,0x40,//{ 91
//  131   0x00,0x00,0x00,0x00,0xFF,0x00,0x00,0x00,0x00,0x00,0x00,0x00,0xFF,0x00,0x00,0x00,//| 92
//  132   0x00,0x02,0x02,0x7C,0x80,0x00,0x00,0x00,0x00,0x40,0x40,0x3F,0x00,0x00,0x00,0x00,//} 93
//  133   0x00,0x06,0x01,0x01,0x02,0x02,0x04,0x04,0x00,0x00,0x00,0x00,0x00,0x00,0x00,0x00,//~ 94
//  134 };
//  135 
//  136 /***************************16*16的点阵字体取模方式：共阴――列行式――逆向输出*********/

        RSEG XDATA_I:XDATA:NOROOT(0)
//  137 unsigned char F16x16[] = 	  	 
F16x16:
        DATA8
        DS 128
        REQUIRE `?<Initializer for F16x16>`
        REQUIRE __INIT_XDATA_I
//  138 {  	
//  139 /*--  文字:  温  --*/
//  140 /*--  宋体12;  此字体下对应的点阵为：宽x高=16x16   --*/
//  141 0x10,0x21,0x86,0x70,0x00,0x7E,0x4A,0x4A,0x4A,0x4A,0x4A,0x7E,0x00,0x00,0x00,0x00,
//  142 0x02,0xFE,0x01,0x40,0x7F,0x41,0x41,0x7F,0x41,0x41,0x7F,0x41,0x41,0x7F,0x40,0x00,
//  143 
//  144 /*--  文字:  度  --*/
//  145 /*--  宋体12;  此字体下对应的点阵为：宽x高=16x16   --*/
//  146 0x00,0x00,0xFC,0x04,0x24,0x24,0xFC,0xA5,0xA6,0xA4,0xFC,0x24,0x24,0x24,0x04,0x00,
//  147 0x80,0x60,0x1F,0x80,0x80,0x42,0x46,0x2A,0x12,0x12,0x2A,0x26,0x42,0xC0,0x40,0x00,
//  148 
//  149 /*--  文字:  ：  --*/
//  150 /*--  宋体12;  此字体下对应的点阵为：宽x高=16x16   --*/
//  151 0x00,0x00,0x00,0x00,0x00,0x00,0x00,0x00,0x00,0x00,0x00,0x00,0x00,0x00,0x00,0x00,
//  152 0x00,0x00,0x36,0x36,0x00,0x00,0x00,0x00,0x00,0x00,0x00,0x00,0x00,0x00,0x00,0x00,
//  153 
//  154 /*--  文字:  湿  --*/
//  155 /*--  宋体12;  此字体下对应的点阵为：宽x高=16x16   --*/
//  156 0x10,0x60,0x02,0xCC,0x00,0x00,0x3E,0x2A,0xAA,0x2A,0xAA,0x2A,0x3E,0x00,0x00,0x00,
//  157 0x08,0x08,0xFE,0x01,0x40,0x42,0x4C,0x40,0x7F,0x40,0x7F,0x48,0x44,0x42,0x40,0x00,
//  158 
//  159 };
//  160 
//  161 
//  162 #if (HAL_LCD == TRUE)
//  163 void HalLcd_HW_Init(void);
//  164 void HalLcd_HW_WaitUs(uint16 i);
//  165 void HalLcd_HW_Clear(void);
//  166 void HalLcd_HW_Control(uint8 cmd);
//  167 void HalLcd_HW_Write(uint8 data);
//  168 void HalLcd_HW_SetContrast(uint8 value);
//  169 void HalLcd_HW_WriteChar(uint8 line, uint8 col, char text);
//  170 void HalLcd_HW_WriteLine(uint8 line, const char *pText);
//  171 
//  172 void DelayMS(unsigned int msec);
//  173 void LCD_DLY_ms(unsigned int ms);
//  174 void LCD_WrDat(unsigned char dat);
//  175 void LCD_WrCmd(unsigned char cmd);
//  176 void LCD_Set_Pos(unsigned char x, unsigned char y);
//  177 void LCD_Fill(unsigned char bmp_dat) ;
//  178 void LCD_CLS(void);
//  179 void LcdClearLine(unsigned char y, unsigned char count);
//  180 
//  181 void LCD_P8x16Str(unsigned char x, unsigned char y,unsigned char ch[]);
//  182 void HalLcdDisplayPercentBar( char *title, uint8 value );
//  183 void LCD_P16x16Ch(unsigned char x, unsigned char y, unsigned char N);
//  184 #endif //LCD
//  185 
//  186 
//  187 /**************************************************************************************************
//  188  * @fn      HalLcdInit
//  189  *
//  190  * @brief   Initilize LCD Service
//  191  *
//  192  * @param   init - pointer to void that contains the initialized value
//  193  *
//  194  * @return  None
//  195  **************************************************************************************************/

        RSEG BANKED_CODE:CODE:NOROOT(0)
//  196 void HalLcdInit(void)
HalLcdInit:
        CFI Block cfiBlock0 Using cfiCommon0
        CFI Function HalLcdInit
        CODE
//  197 {
        FUNCALL HalLcdInit, HalLcd_HW_Init
        LOCFRAME ISTACK, 2, STACK
        LOCFRAME PSTACK, 0, STACK
        LOCFRAME XSTACK, 0, STACK
        LOCFRAME IOVERLAY, 0, STATIC
        LOCFRAME DOVERLAY, 0, STATIC
        ARGFRAME ISTACK, 2, STACK
        ARGFRAME PSTACK, 0, STACK
        ARGFRAME XSTACK, 0, STACK
        ARGFRAME IOVERLAY, 0, STATIC
        ARGFRAME DOVERLAY, 0, STATIC
        PUSH    DPL
        CFI DPL0 Frame(CFA_SP, 4)
        CFI CFA_SP SP+-4
        PUSH    DPH
        CFI DPH0 Frame(CFA_SP, 5)
        CFI CFA_SP SP+-5
        ; Saved register size: 2
        ; Auto size: 0
//  198 #if (HAL_LCD == TRUE)
//  199   HalLcd_HW_Init();
        ; Setup parameters for call to function HalLcd_HW_Init
        LCALL   ??HalLcd_HW_Init?relay
//  200 #endif
//  201 }
        POP     DPH
        CFI DPH0 SameValue
        CFI CFA_SP SP+-4
        POP     DPL
        CFI DPL0 SameValue
        CFI CFA_SP SP+-3
        LJMP    ?BRET
        CFI EndBlock cfiBlock0
//  202 
//  203 /**************************************************************************************************
//  204  * @fn      HalLcdWriteValue
//  205  *
//  206  * @brief   Write a value to the LCD
//  207  *
//  208  * @param   value  - value that will be displayed
//  209  *          radix  - 8, 10, 16
//  210  *          option - display options
//  211  *
//  212  * @return  None
//  213  **************************************************************************************************/

        RSEG BANKED_CODE:CODE:NOROOT(0)
//  214 void HalLcdWriteValue ( uint32 value, const uint8 radix, uint8 option)
HalLcdWriteValue:
        CFI Block cfiBlock1 Using cfiCommon0
        CFI Function HalLcdWriteValue
        CODE
//  215 {
        FUNCALL HalLcdWriteValue, _ltoa
        LOCFRAME ISTACK, 0, STACK
        LOCFRAME PSTACK, 0, STACK
        LOCFRAME XSTACK, 41, STACK
        LOCFRAME IOVERLAY, 0, STATIC
        LOCFRAME DOVERLAY, 0, STATIC
        ARGFRAME ISTACK, 0, STACK
        ARGFRAME PSTACK, 0, STACK
        ARGFRAME XSTACK, 41, STACK
        ARGFRAME IOVERLAY, 0, STATIC
        ARGFRAME DOVERLAY, 0, STATIC
        FUNCALL HalLcdWriteValue, HalLcdWriteString
        LOCFRAME ISTACK, 0, STACK
        LOCFRAME PSTACK, 0, STACK
        LOCFRAME XSTACK, 39, STACK
        LOCFRAME IOVERLAY, 0, STATIC
        LOCFRAME DOVERLAY, 0, STATIC
        ARGFRAME ISTACK, 0, STACK
        ARGFRAME PSTACK, 0, STACK
        ARGFRAME XSTACK, 39, STACK
        ARGFRAME IOVERLAY, 0, STATIC
        ARGFRAME DOVERLAY, 0, STATIC
        MOV     A,#-0xe
        LCALL   ?BANKED_ENTER_XDATA
        CFI DPH0 load(1, XDATA, add(CFA_XSP16, literal(-1)))
        CFI DPL0 load(1, XDATA, add(CFA_XSP16, literal(-2)))
        CFI ?BRET_EXT load(1, XDATA, add(CFA_XSP16, literal(-3)))
        CFI ?RET_HIGH load(1, XDATA, add(CFA_XSP16, literal(-4)))
        CFI ?RET_LOW load(1, XDATA, add(CFA_XSP16, literal(-5)))
        CFI R7 load(1, XDATA, add(CFA_XSP16, literal(-6)))
        CFI V5 load(1, XDATA, add(CFA_XSP16, literal(-7)))
        CFI V4 load(1, XDATA, add(CFA_XSP16, literal(-8)))
        CFI V3 load(1, XDATA, add(CFA_XSP16, literal(-9)))
        CFI V2 load(1, XDATA, add(CFA_XSP16, literal(-10)))
        CFI V1 load(1, XDATA, add(CFA_XSP16, literal(-11)))
        CFI V0 load(1, XDATA, add(CFA_XSP16, literal(-12)))
        CFI VB load(1, XDATA, add(CFA_XSP16, literal(-13)))
        CFI R6 load(1, XDATA, add(CFA_XSP16, literal(-14)))
        CFI CFA_SP SP+0
        CFI CFA_XSP16 add(XSP16, 14)
        ; Saved register size: 14
        ; Auto size: 25
        MOV     A,#-0x19
        LCALL   ?ALLOC_XSTACK8
        CFI CFA_XSP16 add(XSP16, 39)
        MOV     A,#0x27
        LCALL   ?XSTACK_DISP0_8
        MOVX    A,@DPTR
        MOV     R7,A
//  216 #if (HAL_LCD == TRUE)
//  217   uint8 buf[LCD_MAX_BUF];
//  218 
//  219   _ltoa( value, &buf[0], radix );
        ; Setup parameters for call to function _ltoa
        MOV     DPL,?XSP + 0
        MOV     DPH,?XSP + 1
        MOV     ?V0 + 4,DPL
        MOV     ?V0 + 5,DPH
        MOV     R0,#?V0 + 4
        LCALL   ?PUSH_XSTACK_I_TWO
        CFI CFA_XSP16 add(XSP16, 41)
        LCALL   ??_ltoa?relay
        MOV     A,#0x2
        LCALL   ?DEALLOC_XSTACK8
        CFI CFA_XSP16 add(XSP16, 39)
//  220   HalLcdWriteString( (char*)buf, option );
        ; Setup parameters for call to function HalLcdWriteString
        MOV     A,R7
        MOV     R1,A
        MOV     DPL,?XSP + 0
        MOV     DPH,?XSP + 1
        MOV     R2,DPL
        MOV     R3,DPH
        LCALL   ??HalLcdWriteString?relay
//  221 #endif
//  222 }
        MOV     A,#0x19
        LCALL   ?DEALLOC_XSTACK8
        CFI CFA_XSP16 add(XSP16, 14)
        MOV     R7,#0x6
        LJMP    ?BANKED_LEAVE_XDATA
        CFI EndBlock cfiBlock1
//  223 
//  224 /**************************************************************************************************
//  225  * @fn      HalLcdWriteScreen
//  226  *
//  227  * @brief   Write a value to the LCD
//  228  *
//  229  * @param   line1  - string that will be displayed on line 1
//  230  *          line2  - string that will be displayed on line 2
//  231  *
//  232  * @return  None
//  233  **************************************************************************************************/

        RSEG BANKED_CODE:CODE:NOROOT(0)
//  234 void HalLcdWriteScreen( char *line1, char *line2 )
HalLcdWriteScreen:
        CFI Block cfiBlock2 Using cfiCommon0
        CFI Function HalLcdWriteScreen
        CODE
//  235 {
        FUNCALL HalLcdWriteScreen, HalLcdWriteString
        LOCFRAME ISTACK, 0, STACK
        LOCFRAME PSTACK, 0, STACK
        LOCFRAME XSTACK, 9, STACK
        LOCFRAME IOVERLAY, 0, STATIC
        LOCFRAME DOVERLAY, 0, STATIC
        ARGFRAME ISTACK, 0, STACK
        ARGFRAME PSTACK, 0, STACK
        ARGFRAME XSTACK, 9, STACK
        ARGFRAME IOVERLAY, 0, STATIC
        ARGFRAME DOVERLAY, 0, STATIC
        FUNCALL HalLcdWriteScreen, HalLcdWriteString
        LOCFRAME ISTACK, 0, STACK
        LOCFRAME PSTACK, 0, STACK
        LOCFRAME XSTACK, 9, STACK
        LOCFRAME IOVERLAY, 0, STATIC
        LOCFRAME DOVERLAY, 0, STATIC
        ARGFRAME ISTACK, 0, STACK
        ARGFRAME PSTACK, 0, STACK
        ARGFRAME XSTACK, 9, STACK
        ARGFRAME IOVERLAY, 0, STATIC
        ARGFRAME DOVERLAY, 0, STATIC
        MOV     A,#-0x9
        LCALL   ?BANKED_ENTER_XDATA
        CFI DPH0 load(1, XDATA, add(CFA_XSP16, literal(-1)))
        CFI DPL0 load(1, XDATA, add(CFA_XSP16, literal(-2)))
        CFI ?BRET_EXT load(1, XDATA, add(CFA_XSP16, literal(-3)))
        CFI ?RET_HIGH load(1, XDATA, add(CFA_XSP16, literal(-4)))
        CFI ?RET_LOW load(1, XDATA, add(CFA_XSP16, literal(-5)))
        CFI R7 load(1, XDATA, add(CFA_XSP16, literal(-6)))
        CFI V0 load(1, XDATA, add(CFA_XSP16, literal(-7)))
        CFI VB load(1, XDATA, add(CFA_XSP16, literal(-8)))
        CFI R6 load(1, XDATA, add(CFA_XSP16, literal(-9)))
        CFI CFA_SP SP+0
        CFI CFA_XSP16 add(XSP16, 9)
        ; Saved register size: 9
        ; Auto size: 0
        MOV     A,R4
        MOV     R6,A
        MOV     A,R5
        MOV     R7,A
//  236 #if (HAL_LCD == TRUE)
//  237   HalLcdWriteString( line1, 1 );
        ; Setup parameters for call to function HalLcdWriteString
        MOV     R1,#0x1
        LCALL   ??HalLcdWriteString?relay
//  238   HalLcdWriteString( line2, 2 );
        ; Setup parameters for call to function HalLcdWriteString
        MOV     R1,#0x2
        MOV     A,R6
        MOV     R2,A
        MOV     A,R7
        MOV     R3,A
        LCALL   ??HalLcdWriteString?relay
//  239 #endif
//  240 }
        MOV     R7,#0x1
        LJMP    ?BANKED_LEAVE_XDATA
        CFI EndBlock cfiBlock2
//  241 
//  242 /**************************************************************************************************
//  243  * @fn      HalLcdWriteStringValue
//  244  *
//  245  * @brief   Write a string followed by a value to the LCD
//  246  *
//  247  * @param   title  - Title that will be displayed before the value
//  248  *          value  - value
//  249  *          format - redix
//  250  *          line   - line number
//  251  *
//  252  * @return  None
//  253  **************************************************************************************************/

        RSEG BANKED_CODE:CODE:NOROOT(0)
//  254 void HalLcdWriteStringValue( char *title, uint16 value, uint8 format, uint8 line )
HalLcdWriteStringValue:
        CFI Block cfiBlock3 Using cfiCommon0
        CFI Function HalLcdWriteStringValue
        CODE
//  255 {
        FUNCALL HalLcdWriteStringValue, osal_strlen
        LOCFRAME ISTACK, 0, STACK
        LOCFRAME PSTACK, 0, STACK
        LOCFRAME XSTACK, 39, STACK
        LOCFRAME IOVERLAY, 0, STATIC
        LOCFRAME DOVERLAY, 0, STATIC
        ARGFRAME ISTACK, 0, STACK
        ARGFRAME PSTACK, 0, STACK
        ARGFRAME XSTACK, 39, STACK
        ARGFRAME IOVERLAY, 0, STATIC
        ARGFRAME DOVERLAY, 0, STATIC
        FUNCALL HalLcdWriteStringValue, osal_memcpy
        LOCFRAME ISTACK, 0, STACK
        LOCFRAME PSTACK, 0, STACK
        LOCFRAME XSTACK, 42, STACK
        LOCFRAME IOVERLAY, 0, STATIC
        LOCFRAME DOVERLAY, 0, STATIC
        ARGFRAME ISTACK, 0, STACK
        ARGFRAME PSTACK, 0, STACK
        ARGFRAME XSTACK, 42, STACK
        ARGFRAME IOVERLAY, 0, STATIC
        ARGFRAME DOVERLAY, 0, STATIC
        FUNCALL HalLcdWriteStringValue, _ltoa
        LOCFRAME ISTACK, 0, STACK
        LOCFRAME PSTACK, 0, STACK
        LOCFRAME XSTACK, 41, STACK
        LOCFRAME IOVERLAY, 0, STATIC
        LOCFRAME DOVERLAY, 0, STATIC
        ARGFRAME ISTACK, 0, STACK
        ARGFRAME PSTACK, 0, STACK
        ARGFRAME XSTACK, 41, STACK
        ARGFRAME IOVERLAY, 0, STATIC
        ARGFRAME DOVERLAY, 0, STATIC
        FUNCALL HalLcdWriteStringValue, HalLcdWriteString
        LOCFRAME ISTACK, 0, STACK
        LOCFRAME PSTACK, 0, STACK
        LOCFRAME XSTACK, 39, STACK
        LOCFRAME IOVERLAY, 0, STATIC
        LOCFRAME DOVERLAY, 0, STATIC
        ARGFRAME ISTACK, 0, STACK
        ARGFRAME PSTACK, 0, STACK
        ARGFRAME XSTACK, 39, STACK
        ARGFRAME IOVERLAY, 0, STATIC
        ARGFRAME DOVERLAY, 0, STATIC
        MOV     A,#-0xe
        LCALL   ?BANKED_ENTER_XDATA
        CFI DPH0 load(1, XDATA, add(CFA_XSP16, literal(-1)))
        CFI DPL0 load(1, XDATA, add(CFA_XSP16, literal(-2)))
        CFI ?BRET_EXT load(1, XDATA, add(CFA_XSP16, literal(-3)))
        CFI ?RET_HIGH load(1, XDATA, add(CFA_XSP16, literal(-4)))
        CFI ?RET_LOW load(1, XDATA, add(CFA_XSP16, literal(-5)))
        CFI R7 load(1, XDATA, add(CFA_XSP16, literal(-6)))
        CFI V5 load(1, XDATA, add(CFA_XSP16, literal(-7)))
        CFI V4 load(1, XDATA, add(CFA_XSP16, literal(-8)))
        CFI V3 load(1, XDATA, add(CFA_XSP16, literal(-9)))
        CFI V2 load(1, XDATA, add(CFA_XSP16, literal(-10)))
        CFI V1 load(1, XDATA, add(CFA_XSP16, literal(-11)))
        CFI V0 load(1, XDATA, add(CFA_XSP16, literal(-12)))
        CFI VB load(1, XDATA, add(CFA_XSP16, literal(-13)))
        CFI R6 load(1, XDATA, add(CFA_XSP16, literal(-14)))
        CFI CFA_SP SP+0
        CFI CFA_XSP16 add(XSP16, 14)
        ; Saved register size: 14
        ; Auto size: 25
        MOV     A,#-0x19
        LCALL   ?ALLOC_XSTACK8
        CFI CFA_XSP16 add(XSP16, 39)
        MOV     ?V0 + 0,R2
        MOV     ?V0 + 1,R3
        MOV     A,R4
        MOV     R6,A
        MOV     A,R5
        MOV     R7,A
        MOV     ?V0 + 5,R1
        MOV     A,#0x27
        LCALL   ?XSTACK_DISP0_8
        MOVX    A,@DPTR
        MOV     ?V0 + 4,A
//  256 #if (HAL_LCD == TRUE)
//  257   uint8 tmpLen;
//  258   uint8 buf[LCD_MAX_BUF];
//  259   uint32 err;
//  260 
//  261   tmpLen = (uint8)osal_strlen( (char*)title );
        ; Setup parameters for call to function osal_strlen
        LCALL   ??osal_strlen?relay
//  262   osal_memcpy( buf, title, tmpLen );
        ; Setup parameters for call to function osal_memcpy
        MOV     ?V0 + 2,#0x0
        MOV     R0,#?V0 + 0
        LCALL   ?PUSH_XSTACK_I_THREE
        CFI CFA_XSP16 add(XSP16, 42)
        MOV     ?V0 + 0,R2
        MOV     R4,?V0 + 0
        MOV     R5,#0x0
        MOV     A,#0x3
        LCALL   ?XSTACK_DISP0_8
        MOV     R2,DPL
        MOV     R3,DPH
        LCALL   ??osal_memcpy?relay
        MOV     A,#0x3
        LCALL   ?DEALLOC_XSTACK8
        CFI CFA_XSP16 add(XSP16, 39)
//  263   //buf[tmpLen] = ' ';
//  264   err = (uint32)(value);
//  265   _ltoa( err, &buf[tmpLen], format );
        ; Setup parameters for call to function _ltoa
        MOV     DPL,?XSP + 0
        MOV     DPH,?XSP + 1
        MOV     A,DPL
        ADD     A,?V0 + 0
        MOV     ?V0 + 0,A
        MOV     A,DPH
        ADDC    A,#0x0
        MOV     ?V0 + 1,A
        MOV     R0,#?V0 + 0
        LCALL   ?PUSH_XSTACK_I_TWO
        CFI CFA_XSP16 add(XSP16, 41)
        MOV     R1,?V0 + 5
        MOV     ?V0 + 0,R6
        MOV     ?V0 + 1,R7
        MOV     R2,?V0 + 0
        MOV     R3,?V0 + 1
        CLR     A
        MOV     R4,A
        MOV     R5,A
        LCALL   ??_ltoa?relay
        MOV     A,#0x2
        LCALL   ?DEALLOC_XSTACK8
        CFI CFA_XSP16 add(XSP16, 39)
//  266   HalLcdWriteString( (char*)buf, line );		
        ; Setup parameters for call to function HalLcdWriteString
        MOV     R1,?V0 + 4
        MOV     DPL,?XSP + 0
        MOV     DPH,?XSP + 1
        MOV     R2,DPL
        MOV     R3,DPH
        LCALL   ??HalLcdWriteString?relay
//  267 #endif
//  268 }
        MOV     A,#0x19
        LCALL   ?DEALLOC_XSTACK8
        CFI CFA_XSP16 add(XSP16, 14)
        MOV     R7,#0x6
        LJMP    ?BANKED_LEAVE_XDATA
        CFI EndBlock cfiBlock3
//  269 
//  270 /**************************************************************************************************
//  271  * @fn      HalLcdWriteStringValue
//  272  *
//  273  * @brief   Write a string followed by a value to the LCD
//  274  *
//  275  * @param   title   - Title that will be displayed before the value
//  276  *          value1  - value #1
//  277  *          format1 - redix of value #1
//  278  *          value2  - value #2
//  279  *          format2 - redix of value #2
//  280  *          line    - line number
//  281  *
//  282  * @return  None
//  283  **************************************************************************************************/

        RSEG BANKED_CODE:CODE:NOROOT(0)
//  284 void HalLcdWriteStringValueValue( char *title, uint16 value1, uint8 format1,
HalLcdWriteStringValueValue:
        CFI Block cfiBlock4 Using cfiCommon0
        CFI Function HalLcdWriteStringValueValue
        CODE
//  285                                   uint16 value2, uint8 format2, uint8 line )
//  286 {
        FUNCALL HalLcdWriteStringValueValue, osal_strlen
        LOCFRAME ISTACK, 0, STACK
        LOCFRAME PSTACK, 0, STACK
        LOCFRAME XSTACK, 41, STACK
        LOCFRAME IOVERLAY, 0, STATIC
        LOCFRAME DOVERLAY, 0, STATIC
        ARGFRAME ISTACK, 0, STACK
        ARGFRAME PSTACK, 0, STACK
        ARGFRAME XSTACK, 41, STACK
        ARGFRAME IOVERLAY, 0, STATIC
        ARGFRAME DOVERLAY, 0, STATIC
        FUNCALL HalLcdWriteStringValueValue, osal_memcpy
        LOCFRAME ISTACK, 0, STACK
        LOCFRAME PSTACK, 0, STACK
        LOCFRAME XSTACK, 44, STACK
        LOCFRAME IOVERLAY, 0, STATIC
        LOCFRAME DOVERLAY, 0, STATIC
        ARGFRAME ISTACK, 0, STACK
        ARGFRAME PSTACK, 0, STACK
        ARGFRAME XSTACK, 44, STACK
        ARGFRAME IOVERLAY, 0, STATIC
        ARGFRAME DOVERLAY, 0, STATIC
        FUNCALL HalLcdWriteStringValueValue, _ltoa
        LOCFRAME ISTACK, 0, STACK
        LOCFRAME PSTACK, 0, STACK
        LOCFRAME XSTACK, 43, STACK
        LOCFRAME IOVERLAY, 0, STATIC
        LOCFRAME DOVERLAY, 0, STATIC
        ARGFRAME ISTACK, 0, STACK
        ARGFRAME PSTACK, 0, STACK
        ARGFRAME XSTACK, 43, STACK
        ARGFRAME IOVERLAY, 0, STATIC
        ARGFRAME DOVERLAY, 0, STATIC
        FUNCALL HalLcdWriteStringValueValue, osal_strlen
        LOCFRAME ISTACK, 0, STACK
        LOCFRAME PSTACK, 0, STACK
        LOCFRAME XSTACK, 41, STACK
        LOCFRAME IOVERLAY, 0, STATIC
        LOCFRAME DOVERLAY, 0, STATIC
        ARGFRAME ISTACK, 0, STACK
        ARGFRAME PSTACK, 0, STACK
        ARGFRAME XSTACK, 41, STACK
        ARGFRAME IOVERLAY, 0, STATIC
        ARGFRAME DOVERLAY, 0, STATIC
        FUNCALL HalLcdWriteStringValueValue, _ltoa
        LOCFRAME ISTACK, 0, STACK
        LOCFRAME PSTACK, 0, STACK
        LOCFRAME XSTACK, 43, STACK
        LOCFRAME IOVERLAY, 0, STATIC
        LOCFRAME DOVERLAY, 0, STATIC
        ARGFRAME ISTACK, 0, STACK
        ARGFRAME PSTACK, 0, STACK
        ARGFRAME XSTACK, 43, STACK
        ARGFRAME IOVERLAY, 0, STATIC
        ARGFRAME DOVERLAY, 0, STATIC
        FUNCALL HalLcdWriteStringValueValue, HalLcdWriteString
        LOCFRAME ISTACK, 0, STACK
        LOCFRAME PSTACK, 0, STACK
        LOCFRAME XSTACK, 41, STACK
        LOCFRAME IOVERLAY, 0, STATIC
        LOCFRAME DOVERLAY, 0, STATIC
        ARGFRAME ISTACK, 0, STACK
        ARGFRAME PSTACK, 0, STACK
        ARGFRAME XSTACK, 41, STACK
        ARGFRAME IOVERLAY, 0, STATIC
        ARGFRAME DOVERLAY, 0, STATIC
        MOV     A,#-0x10
        LCALL   ?BANKED_ENTER_XDATA
        CFI DPH0 load(1, XDATA, add(CFA_XSP16, literal(-1)))
        CFI DPL0 load(1, XDATA, add(CFA_XSP16, literal(-2)))
        CFI ?BRET_EXT load(1, XDATA, add(CFA_XSP16, literal(-3)))
        CFI ?RET_HIGH load(1, XDATA, add(CFA_XSP16, literal(-4)))
        CFI ?RET_LOW load(1, XDATA, add(CFA_XSP16, literal(-5)))
        CFI R7 load(1, XDATA, add(CFA_XSP16, literal(-6)))
        CFI V7 load(1, XDATA, add(CFA_XSP16, literal(-7)))
        CFI V6 load(1, XDATA, add(CFA_XSP16, literal(-8)))
        CFI V5 load(1, XDATA, add(CFA_XSP16, literal(-9)))
        CFI V4 load(1, XDATA, add(CFA_XSP16, literal(-10)))
        CFI V3 load(1, XDATA, add(CFA_XSP16, literal(-11)))
        CFI V2 load(1, XDATA, add(CFA_XSP16, literal(-12)))
        CFI V1 load(1, XDATA, add(CFA_XSP16, literal(-13)))
        CFI V0 load(1, XDATA, add(CFA_XSP16, literal(-14)))
        CFI VB load(1, XDATA, add(CFA_XSP16, literal(-15)))
        CFI R6 load(1, XDATA, add(CFA_XSP16, literal(-16)))
        CFI CFA_SP SP+0
        CFI CFA_XSP16 add(XSP16, 16)
        ; Saved register size: 16
        ; Auto size: 25
        MOV     A,#-0x19
        LCALL   ?ALLOC_XSTACK8
        CFI CFA_XSP16 add(XSP16, 41)
        MOV     ?V0 + 0,R2
        MOV     ?V0 + 1,R3
        MOV     A,R4
        MOV     R6,A
        MOV     A,R5
        MOV     R7,A
        MOV     ?V0 + 7,R1
        MOV     A,#0x29
        LCALL   ?XSTACK_DISP0_8
        MOVX    A,@DPTR
        MOV     ?V0 + 4,A
        INC     DPTR
        MOVX    A,@DPTR
        MOV     ?V0 + 5,A
        MOV     A,#0x2b
        LCALL   ?XSTACK_DISP0_8
        MOVX    A,@DPTR
        MOV     ?V0 + 6,A
//  287 
//  288 #if (HAL_LCD == TRUE)
//  289 
//  290   uint8 tmpLen;
//  291   uint8 buf[LCD_MAX_BUF];
//  292   uint32 err;
//  293 
//  294   tmpLen = (uint8)osal_strlen( (char*)title );
        ; Setup parameters for call to function osal_strlen
        LCALL   ??osal_strlen?relay
        MOV     A,R2
        MOV     ?V0 + 3,A
//  295   if ( tmpLen )
        JZ      ??HalLcdWriteStringValueValue_0
//  296   {
//  297     osal_memcpy( buf, title, tmpLen );
        ; Setup parameters for call to function osal_memcpy
        MOV     ?V0 + 2,#0x0
        MOV     R0,#?V0 + 0
        LCALL   ?PUSH_XSTACK_I_THREE
        CFI CFA_XSP16 add(XSP16, 44)
        MOV     ?V0 + 0,R2
        MOV     R4,?V0 + 0
        MOV     R5,#0x0
        MOV     A,#0x3
        LCALL   ?XSTACK_DISP0_8
        MOV     R2,DPL
        MOV     R3,DPH
        LCALL   ??osal_memcpy?relay
        MOV     A,#0x3
        LCALL   ?DEALLOC_XSTACK8
        CFI CFA_XSP16 add(XSP16, 41)
//  298     //buf[tmpLen++] = ' ';
//  299   }
//  300 
//  301   err = (uint32)(value1);
//  302   _ltoa( err, &buf[tmpLen], format1 );
??HalLcdWriteStringValueValue_0:
        ; Setup parameters for call to function _ltoa
        MOV     ?V0 + 0,?V0 + 3
        MOV     DPL,?XSP + 0
        MOV     DPH,?XSP + 1
        MOV     A,DPL
        ADD     A,?V0 + 0
        MOV     ?V0 + 0,A
        MOV     A,DPH
        ADDC    A,#0x0
        MOV     ?V0 + 1,A
        MOV     R0,#?V0 + 0
        LCALL   ?PUSH_XSTACK_I_TWO
        CFI CFA_XSP16 add(XSP16, 43)
        MOV     R1,?V0 + 7
        MOV     ?V0 + 0,R6
        MOV     ?V0 + 1,R7
        MOV     R2,?V0 + 0
        MOV     R3,?V0 + 1
        CLR     A
        MOV     R4,A
        MOV     R5,A
        LCALL   ??_ltoa?relay
        MOV     A,#0x2
        LCALL   ?DEALLOC_XSTACK8
        CFI CFA_XSP16 add(XSP16, 41)
//  303   tmpLen = (uint8)osal_strlen( (char*)buf );
        ; Setup parameters for call to function osal_strlen
        MOV     DPL,?XSP + 0
        MOV     DPH,?XSP + 1
        MOV     R2,DPL
        MOV     R3,DPH
        LCALL   ??osal_strlen?relay
        MOV     A,R2
        MOV     ?V0 + 3,A
//  304 
//  305   buf[tmpLen++] = ',';
        MOV     ?V0 + 0,A
        MOV     DPL,?XSP + 0
        MOV     DPH,?XSP + 1
        MOV     A,DPL
        ADD     A,?V0 + 0
        MOV     DPL,A
        MOV     A,DPH
        ADDC    A,#0x0
        MOV     DPH,A
        MOV     A,#0x2c
        MOVX    @DPTR,A
        INC     ?V0 + 3
//  306   buf[tmpLen++] = ' ';
        MOV     ?V0 + 0,?V0 + 3
        MOV     DPL,?XSP + 0
        MOV     DPH,?XSP + 1
        MOV     A,DPL
        ADD     A,?V0 + 0
        MOV     DPL,A
        MOV     A,DPH
        ADDC    A,#0x0
        MOV     DPH,A
        MOV     A,#0x20
        MOVX    @DPTR,A
//  307   err = (uint32)(value2);
//  308   _ltoa( err, &buf[tmpLen], format2 );
        ; Setup parameters for call to function _ltoa
        MOV     A,#0x1
        ADD     A,?V0 + 3
        MOV     R0,A
        MOV     DPL,?XSP + 0
        MOV     DPH,?XSP + 1
        MOV     A,DPL
        ADD     A,R0
        MOV     ?V0 + 0,A
        MOV     A,DPH
        ADDC    A,#0x0
        MOV     ?V0 + 1,A
        MOV     R0,#?V0 + 0
        LCALL   ?PUSH_XSTACK_I_TWO
        CFI CFA_XSP16 add(XSP16, 43)
        MOV     R1,?V0 + 6
        MOV     R2,?V0 + 4
        MOV     R3,?V0 + 5
        CLR     A
        MOV     R4,A
        MOV     R5,A
        LCALL   ??_ltoa?relay
        MOV     A,#0x2
        LCALL   ?DEALLOC_XSTACK8
        CFI CFA_XSP16 add(XSP16, 41)
//  309 
//  310   HalLcdWriteString( (char *)buf, line );		
        ; Setup parameters for call to function HalLcdWriteString
        MOV     A,#0x2c
        LCALL   ?XSTACK_DISP0_8
        MOVX    A,@DPTR
        MOV     R1,A
        MOV     DPL,?XSP + 0
        MOV     DPH,?XSP + 1
        MOV     R2,DPL
        MOV     R3,DPH
        LCALL   ??HalLcdWriteString?relay
//  311 
//  312 #endif
//  313 }
        MOV     A,#0x19
        LCALL   ?DEALLOC_XSTACK8
        CFI CFA_XSP16 add(XSP16, 16)
        MOV     R7,#0x8
        LJMP    ?BANKED_LEAVE_XDATA
        CFI EndBlock cfiBlock4
//  314 
//  315 #if (HAL_LCD == TRUE)

        RSEG BANKED_CODE:CODE:NOROOT(0)
//  316 void DelayMS(unsigned int msec)
DelayMS:
        CFI Block cfiBlock5 Using cfiCommon0
        CFI Function DelayMS
        CODE
//  317 { 
        ; Saved register size: 0
        ; Auto size: 0
//  318     unsigned int i,j;
//  319     
//  320     for (i=0; i<msec; i++)
        MOV     R4,#0x0
        MOV     R5,#0x0
        SJMP    ??DelayMS_0
//  321         for (j=0; j<530; j++);
??DelayMS_1:
        MOV     A,R0
        ADD     A,#0x1
        INC     R0
        MOV     A,R1
        ADDC    A,#0x0
        MOV     R1,A
??DelayMS_2:
        CLR     C
        MOV     A,R0
        SUBB    A,#0x12
        MOV     A,R1
        SUBB    A,#0x2
        JC      ??DelayMS_1
        MOV     A,R4
        ADD     A,#0x1
        INC     R4
        MOV     A,R5
        ADDC    A,#0x0
        MOV     R5,A
??DelayMS_0:
        CLR     C
        MOV     A,R4
        SUBB    A,R2
        MOV     A,R5
        SUBB    A,R3
        JNC     ??DelayMS_3
        MOV     R0,#0x0
        MOV     R1,#0x0
        SJMP    ??DelayMS_2
//  322 }
??DelayMS_3:
        LJMP    ?BRET
        CFI EndBlock cfiBlock5
//  323 
//  324 /*********************LCD 延时1ms************************************/

        RSEG BANKED_CODE:CODE:NOROOT(0)
//  325 void LCD_DLY_ms(unsigned int ms)
LCD_DLY_ms:
        CFI Block cfiBlock6 Using cfiCommon0
        CFI Function LCD_DLY_ms
        CODE
//  326 {                         
        ; Saved register size: 0
        ; Auto size: 0
        SJMP    ??LCD_DLY_ms_0
//  327     unsigned int a;
//  328     while(ms)
//  329     {
//  330         a=1800;
??LCD_DLY_ms_1:
        MOV     R0,#0x8
        MOV     R1,#0x7
//  331         while(a--);
??LCD_DLY_ms_2:
        MOV     A,R0
        MOV     R4,A
        MOV     A,R1
        MOV     R5,A
        MOV     A,R4
        ADD     A,#-0x1
        DEC     R0
        MOV     A,R5
        ADDC    A,#-0x1
        MOV     R1,A
        MOV     A,R4
        ORL     A,R5
        JNZ     ??LCD_DLY_ms_2
//  332         ms--;
        MOV     A,R2
        ADD     A,#-0x1
        DEC     R2
        MOV     A,R3
        ADDC    A,#-0x1
        MOV     R3,A
//  333     }
??LCD_DLY_ms_0:
        MOV     A,R2
        ORL     A,R3
        JNZ     ??LCD_DLY_ms_1
//  334     return;
        LJMP    ?BRET
        CFI EndBlock cfiBlock6
//  335 }
//  336 
//  337 /*********************LCD写数据************************************/ 

        RSEG BANKED_CODE:CODE:NOROOT(0)
//  338 void LCD_WrDat(unsigned char dat)     
LCD_WrDat:
        CFI Block cfiBlock7 Using cfiCommon0
        CFI Function LCD_WrDat
        CODE
//  339 {
        ; Saved register size: 0
        ; Auto size: 0
//  340     unsigned char i=8, temp=0;
//  341     LCD_DC=1;  
        SETB    0x80.0
//  342     for(i=0;i<8;i++) //发送一个八位数据 
        MOV     R0,#0x0
        SJMP    ??LCD_WrDat_0
//  343     {
//  344         LCD_SCL=0;  
//  345         
//  346         temp = dat&0x80;
//  347         if (temp == 0)
//  348         {
//  349             LCD_SDA = 0;
//  350         }
//  351         else
//  352         {
//  353             LCD_SDA = 1;
??LCD_WrDat_1:
        SETB    0x90.3
//  354         }
//  355         LCD_SCL=1;             
??LCD_WrDat_2:
        SETB    0x90.2
//  356         dat<<=1;    
        CLR     C
        RLC     A
        MOV     R1,A
        INC     R0
??LCD_WrDat_0:
        MOV     A,R0
        CLR     C
        SUBB    A,#0x8
        JNC     ??LCD_WrDat_3
        CLR     0x90.2
        MOV     A,R1
        MOV     C,0xE0 /* A   */.7
        JC      ??LCD_WrDat_1
        CLR     0x90.3
        SJMP    ??LCD_WrDat_2
//  357     }
//  358 }
??LCD_WrDat_3:
        LJMP    ?BRET
        CFI EndBlock cfiBlock7
        REQUIRE _A_P0
        REQUIRE _A_P1
//  359 
//  360 /*********************LCD写命令************************************/                                        

        RSEG BANKED_CODE:CODE:NOROOT(0)
//  361 void LCD_WrCmd(unsigned char cmd)
LCD_WrCmd:
        CFI Block cfiBlock8 Using cfiCommon0
        CFI Function LCD_WrCmd
        CODE
//  362 {
        ; Saved register size: 0
        ; Auto size: 0
//  363     unsigned char i=8, temp=0;
//  364     LCD_DC=0;
        CLR     0x80.0
//  365     for(i=0;i<8;i++) //发送一个八位数据 
        MOV     R0,#0x0
        SJMP    ??LCD_WrCmd_0
//  366     { 
//  367         LCD_SCL=0; 
//  368        
//  369         temp = cmd&0x80;
//  370         if (temp == 0)
//  371         {
//  372             LCD_SDA = 0;
//  373         }
//  374         else
//  375         {
//  376             LCD_SDA = 1;
??LCD_WrCmd_1:
        SETB    0x90.3
//  377         }
//  378         LCD_SCL=1;
??LCD_WrCmd_2:
        SETB    0x90.2
//  379         cmd<<=1;;        
        CLR     C
        RLC     A
        MOV     R1,A
        INC     R0
??LCD_WrCmd_0:
        MOV     A,R0
        CLR     C
        SUBB    A,#0x8
        JNC     ??LCD_WrCmd_3
        CLR     0x90.2
        MOV     A,R1
        MOV     C,0xE0 /* A   */.7
        JC      ??LCD_WrCmd_1
        CLR     0x90.3
        SJMP    ??LCD_WrCmd_2
//  380     }     
//  381 }
??LCD_WrCmd_3:
        LJMP    ?BRET
        CFI EndBlock cfiBlock8
        REQUIRE _A_P0
        REQUIRE _A_P1
//  382 
//  383 /*********************LCD 设置坐标************************************/

        RSEG BANKED_CODE:CODE:NOROOT(0)
//  384 void LCD_Set_Pos(unsigned char x, unsigned char y) 
LCD_Set_Pos:
        CFI Block cfiBlock9 Using cfiCommon0
        CFI Function LCD_Set_Pos
        CODE
//  385 { 
        FUNCALL LCD_Set_Pos, LCD_WrCmd
        LOCFRAME ISTACK, 0, STACK
        LOCFRAME PSTACK, 0, STACK
        LOCFRAME XSTACK, 9, STACK
        LOCFRAME IOVERLAY, 0, STATIC
        LOCFRAME DOVERLAY, 0, STATIC
        ARGFRAME ISTACK, 0, STACK
        ARGFRAME PSTACK, 0, STACK
        ARGFRAME XSTACK, 9, STACK
        ARGFRAME IOVERLAY, 0, STATIC
        ARGFRAME DOVERLAY, 0, STATIC
        FUNCALL LCD_Set_Pos, LCD_WrCmd
        LOCFRAME ISTACK, 0, STACK
        LOCFRAME PSTACK, 0, STACK
        LOCFRAME XSTACK, 9, STACK
        LOCFRAME IOVERLAY, 0, STATIC
        LOCFRAME DOVERLAY, 0, STATIC
        ARGFRAME ISTACK, 0, STACK
        ARGFRAME PSTACK, 0, STACK
        ARGFRAME XSTACK, 9, STACK
        ARGFRAME IOVERLAY, 0, STATIC
        ARGFRAME DOVERLAY, 0, STATIC
        FUNCALL LCD_Set_Pos, LCD_WrCmd
        LOCFRAME ISTACK, 0, STACK
        LOCFRAME PSTACK, 0, STACK
        LOCFRAME XSTACK, 9, STACK
        LOCFRAME IOVERLAY, 0, STATIC
        LOCFRAME DOVERLAY, 0, STATIC
        ARGFRAME ISTACK, 0, STACK
        ARGFRAME PSTACK, 0, STACK
        ARGFRAME XSTACK, 9, STACK
        ARGFRAME IOVERLAY, 0, STATIC
        ARGFRAME DOVERLAY, 0, STATIC
        MOV     A,#-0x9
        LCALL   ?BANKED_ENTER_XDATA
        CFI DPH0 load(1, XDATA, add(CFA_XSP16, literal(-1)))
        CFI DPL0 load(1, XDATA, add(CFA_XSP16, literal(-2)))
        CFI ?BRET_EXT load(1, XDATA, add(CFA_XSP16, literal(-3)))
        CFI ?RET_HIGH load(1, XDATA, add(CFA_XSP16, literal(-4)))
        CFI ?RET_LOW load(1, XDATA, add(CFA_XSP16, literal(-5)))
        CFI R7 load(1, XDATA, add(CFA_XSP16, literal(-6)))
        CFI V0 load(1, XDATA, add(CFA_XSP16, literal(-7)))
        CFI VB load(1, XDATA, add(CFA_XSP16, literal(-8)))
        CFI R6 load(1, XDATA, add(CFA_XSP16, literal(-9)))
        CFI CFA_SP SP+0
        CFI CFA_XSP16 add(XSP16, 9)
        ; Saved register size: 9
        ; Auto size: 0
        MOV     A,R1
        MOV     R6,A
        MOV     A,R2
        MOV     R7,A
//  386     LCD_WrCmd(0xb0+y);
        ; Setup parameters for call to function LCD_WrCmd
        MOV     A,#-0x50
        ADD     A,R7
        MOV     R1,A
        LCALL   ??LCD_WrCmd?relay
//  387     LCD_WrCmd(((x&0xf0)>>4)|0x10);
        ; Setup parameters for call to function LCD_WrCmd
        MOV     A,R6
        SWAP    A
        ANL     A,#0xf
        ORL     A,#0x10
        MOV     R1,A
        LCALL   ??LCD_WrCmd?relay
//  388     LCD_WrCmd((x&0x0f)|0x01); 
        ; Setup parameters for call to function LCD_WrCmd
        MOV     A,#0xf
        ANL     A,R6
        ORL     A,#0x1
        MOV     R1,A
        LCALL   ??LCD_WrCmd?relay
//  389 } 
        MOV     R7,#0x1
        LJMP    ?BANKED_LEAVE_XDATA
        CFI EndBlock cfiBlock9
//  390 
//  391 /*********************LCD全屏************************************/

        RSEG BANKED_CODE:CODE:NOROOT(0)
//  392 void LCD_Fill(unsigned char bmp_dat) 
LCD_Fill:
        CFI Block cfiBlock10 Using cfiCommon0
        CFI Function LCD_Fill
        CODE
//  393 {
        FUNCALL LCD_Fill, LCD_WrDat
        LOCFRAME ISTACK, 0, STACK
        LOCFRAME PSTACK, 0, STACK
        LOCFRAME XSTACK, 9, STACK
        LOCFRAME IOVERLAY, 0, STATIC
        LOCFRAME DOVERLAY, 0, STATIC
        ARGFRAME ISTACK, 0, STACK
        ARGFRAME PSTACK, 0, STACK
        ARGFRAME XSTACK, 9, STACK
        ARGFRAME IOVERLAY, 0, STATIC
        ARGFRAME DOVERLAY, 0, STATIC
        FUNCALL LCD_Fill, LCD_WrCmd
        LOCFRAME ISTACK, 0, STACK
        LOCFRAME PSTACK, 0, STACK
        LOCFRAME XSTACK, 9, STACK
        LOCFRAME IOVERLAY, 0, STATIC
        LOCFRAME DOVERLAY, 0, STATIC
        ARGFRAME ISTACK, 0, STACK
        ARGFRAME PSTACK, 0, STACK
        ARGFRAME XSTACK, 9, STACK
        ARGFRAME IOVERLAY, 0, STATIC
        ARGFRAME DOVERLAY, 0, STATIC
        FUNCALL LCD_Fill, LCD_WrCmd
        LOCFRAME ISTACK, 0, STACK
        LOCFRAME PSTACK, 0, STACK
        LOCFRAME XSTACK, 9, STACK
        LOCFRAME IOVERLAY, 0, STATIC
        LOCFRAME DOVERLAY, 0, STATIC
        ARGFRAME ISTACK, 0, STACK
        ARGFRAME PSTACK, 0, STACK
        ARGFRAME XSTACK, 9, STACK
        ARGFRAME IOVERLAY, 0, STATIC
        ARGFRAME DOVERLAY, 0, STATIC
        FUNCALL LCD_Fill, LCD_WrCmd
        LOCFRAME ISTACK, 0, STACK
        LOCFRAME PSTACK, 0, STACK
        LOCFRAME XSTACK, 9, STACK
        LOCFRAME IOVERLAY, 0, STATIC
        LOCFRAME DOVERLAY, 0, STATIC
        ARGFRAME ISTACK, 0, STACK
        ARGFRAME PSTACK, 0, STACK
        ARGFRAME XSTACK, 9, STACK
        ARGFRAME IOVERLAY, 0, STATIC
        ARGFRAME DOVERLAY, 0, STATIC
        MOV     A,#-0x9
        LCALL   ?BANKED_ENTER_XDATA
        CFI DPH0 load(1, XDATA, add(CFA_XSP16, literal(-1)))
        CFI DPL0 load(1, XDATA, add(CFA_XSP16, literal(-2)))
        CFI ?BRET_EXT load(1, XDATA, add(CFA_XSP16, literal(-3)))
        CFI ?RET_HIGH load(1, XDATA, add(CFA_XSP16, literal(-4)))
        CFI ?RET_LOW load(1, XDATA, add(CFA_XSP16, literal(-5)))
        CFI R7 load(1, XDATA, add(CFA_XSP16, literal(-6)))
        CFI V0 load(1, XDATA, add(CFA_XSP16, literal(-7)))
        CFI VB load(1, XDATA, add(CFA_XSP16, literal(-8)))
        CFI R6 load(1, XDATA, add(CFA_XSP16, literal(-9)))
        CFI CFA_SP SP+0
        CFI CFA_XSP16 add(XSP16, 9)
        ; Saved register size: 9
        ; Auto size: 0
        MOV     A,R1
        MOV     R6,A
//  394     unsigned char y,x;
//  395     for(y=0;y<8;y++)
        MOV     ?V0 + 0,#0x0
        SJMP    ??LCD_Fill_0
//  396     {
//  397         LCD_WrCmd(0xb0+y);
//  398         LCD_WrCmd(0x01);
//  399         LCD_WrCmd(0x10);
//  400         for(x=0;x<X_WIDTH;x++)
//  401             LCD_WrDat(bmp_dat);
??LCD_Fill_1:
        ; Setup parameters for call to function LCD_WrDat
        MOV     A,R6
        MOV     R1,A
        LCALL   ??LCD_WrDat?relay
        INC     R7
??LCD_Fill_2:
        MOV     A,R7
        CLR     C
        SUBB    A,#-0x80
        JC      ??LCD_Fill_1
        INC     ?V0 + 0
??LCD_Fill_0:
        MOV     A,?V0 + 0
        CLR     C
        SUBB    A,#0x8
        JNC     ??LCD_Fill_3
        ; Setup parameters for call to function LCD_WrCmd
        MOV     A,#-0x50
        ADD     A,?V0 + 0
        MOV     R1,A
        LCALL   ??LCD_WrCmd?relay
        ; Setup parameters for call to function LCD_WrCmd
        MOV     R1,#0x1
        LCALL   ??LCD_WrCmd?relay
        ; Setup parameters for call to function LCD_WrCmd
        MOV     R1,#0x10
        LCALL   ??LCD_WrCmd?relay
        MOV     R7,#0x0
        SJMP    ??LCD_Fill_2
//  402     }
//  403 }
??LCD_Fill_3:
        MOV     R7,#0x1
        LJMP    ?BANKED_LEAVE_XDATA
        CFI EndBlock cfiBlock10
//  404 
//  405 /*********************LCD复位************************************/

        RSEG BANKED_CODE:CODE:NOROOT(0)
//  406 void LCD_CLS(void)
LCD_CLS:
        CFI Block cfiBlock11 Using cfiCommon0
        CFI Function LCD_CLS
        CODE
//  407 {
        FUNCALL LCD_CLS, LCD_WrDat
        LOCFRAME ISTACK, 0, STACK
        LOCFRAME PSTACK, 0, STACK
        LOCFRAME XSTACK, 9, STACK
        LOCFRAME IOVERLAY, 0, STATIC
        LOCFRAME DOVERLAY, 0, STATIC
        ARGFRAME ISTACK, 0, STACK
        ARGFRAME PSTACK, 0, STACK
        ARGFRAME XSTACK, 9, STACK
        ARGFRAME IOVERLAY, 0, STATIC
        ARGFRAME DOVERLAY, 0, STATIC
        FUNCALL LCD_CLS, LCD_WrCmd
        LOCFRAME ISTACK, 0, STACK
        LOCFRAME PSTACK, 0, STACK
        LOCFRAME XSTACK, 9, STACK
        LOCFRAME IOVERLAY, 0, STATIC
        LOCFRAME DOVERLAY, 0, STATIC
        ARGFRAME ISTACK, 0, STACK
        ARGFRAME PSTACK, 0, STACK
        ARGFRAME XSTACK, 9, STACK
        ARGFRAME IOVERLAY, 0, STATIC
        ARGFRAME DOVERLAY, 0, STATIC
        FUNCALL LCD_CLS, LCD_WrCmd
        LOCFRAME ISTACK, 0, STACK
        LOCFRAME PSTACK, 0, STACK
        LOCFRAME XSTACK, 9, STACK
        LOCFRAME IOVERLAY, 0, STATIC
        LOCFRAME DOVERLAY, 0, STATIC
        ARGFRAME ISTACK, 0, STACK
        ARGFRAME PSTACK, 0, STACK
        ARGFRAME XSTACK, 9, STACK
        ARGFRAME IOVERLAY, 0, STATIC
        ARGFRAME DOVERLAY, 0, STATIC
        FUNCALL LCD_CLS, LCD_WrCmd
        LOCFRAME ISTACK, 0, STACK
        LOCFRAME PSTACK, 0, STACK
        LOCFRAME XSTACK, 9, STACK
        LOCFRAME IOVERLAY, 0, STATIC
        LOCFRAME DOVERLAY, 0, STATIC
        ARGFRAME ISTACK, 0, STACK
        ARGFRAME PSTACK, 0, STACK
        ARGFRAME XSTACK, 9, STACK
        ARGFRAME IOVERLAY, 0, STATIC
        ARGFRAME DOVERLAY, 0, STATIC
        MOV     A,#-0x9
        LCALL   ?BANKED_ENTER_XDATA
        CFI DPH0 load(1, XDATA, add(CFA_XSP16, literal(-1)))
        CFI DPL0 load(1, XDATA, add(CFA_XSP16, literal(-2)))
        CFI ?BRET_EXT load(1, XDATA, add(CFA_XSP16, literal(-3)))
        CFI ?RET_HIGH load(1, XDATA, add(CFA_XSP16, literal(-4)))
        CFI ?RET_LOW load(1, XDATA, add(CFA_XSP16, literal(-5)))
        CFI R7 load(1, XDATA, add(CFA_XSP16, literal(-6)))
        CFI V0 load(1, XDATA, add(CFA_XSP16, literal(-7)))
        CFI VB load(1, XDATA, add(CFA_XSP16, literal(-8)))
        CFI R6 load(1, XDATA, add(CFA_XSP16, literal(-9)))
        CFI CFA_SP SP+0
        CFI CFA_XSP16 add(XSP16, 9)
        ; Saved register size: 9
        ; Auto size: 0
//  408     unsigned char y,x;    
//  409     for(y=0;y<8;y++)
        MOV     R7,#0x0
        SJMP    ??LCD_CLS_0
//  410     {
//  411         LCD_WrCmd(0xb0+y);
//  412         LCD_WrCmd(0x01);
//  413         LCD_WrCmd(0x10); 
//  414         for(x=0;x<X_WIDTH;x++)
//  415             LCD_WrDat(0);
??LCD_CLS_1:
        ; Setup parameters for call to function LCD_WrDat
        MOV     R1,#0x0
        LCALL   ??LCD_WrDat?relay
        INC     R6
??LCD_CLS_2:
        MOV     A,R6
        CLR     C
        SUBB    A,#-0x80
        JC      ??LCD_CLS_1
        INC     R7
??LCD_CLS_0:
        MOV     A,R7
        CLR     C
        SUBB    A,#0x8
        JNC     ??LCD_CLS_3
        ; Setup parameters for call to function LCD_WrCmd
        MOV     A,#-0x50
        ADD     A,R7
        MOV     R1,A
        LCALL   ??LCD_WrCmd?relay
        ; Setup parameters for call to function LCD_WrCmd
        MOV     R1,#0x1
        LCALL   ??LCD_WrCmd?relay
        ; Setup parameters for call to function LCD_WrCmd
        MOV     R1,#0x10
        LCALL   ??LCD_WrCmd?relay
        MOV     R6,#0x0
        SJMP    ??LCD_CLS_2
//  416     }
//  417 }
??LCD_CLS_3:
        MOV     R7,#0x1
        LJMP    ?BANKED_LEAVE_XDATA
        CFI EndBlock cfiBlock11
//  418 

        RSEG BANKED_CODE:CODE:NOROOT(0)
//  419 void LcdClearLine(unsigned char y, unsigned char count)
LcdClearLine:
        CFI Block cfiBlock12 Using cfiCommon0
        CFI Function LcdClearLine
        CODE
//  420 {
        FUNCALL LcdClearLine, LCD_WrDat
        LOCFRAME ISTACK, 0, STACK
        LOCFRAME PSTACK, 0, STACK
        LOCFRAME XSTACK, 15, STACK
        LOCFRAME IOVERLAY, 0, STATIC
        LOCFRAME DOVERLAY, 0, STATIC
        ARGFRAME ISTACK, 0, STACK
        ARGFRAME PSTACK, 0, STACK
        ARGFRAME XSTACK, 15, STACK
        ARGFRAME IOVERLAY, 0, STATIC
        ARGFRAME DOVERLAY, 0, STATIC
        FUNCALL LcdClearLine, LCD_WrCmd
        LOCFRAME ISTACK, 0, STACK
        LOCFRAME PSTACK, 0, STACK
        LOCFRAME XSTACK, 15, STACK
        LOCFRAME IOVERLAY, 0, STATIC
        LOCFRAME DOVERLAY, 0, STATIC
        ARGFRAME ISTACK, 0, STACK
        ARGFRAME PSTACK, 0, STACK
        ARGFRAME XSTACK, 15, STACK
        ARGFRAME IOVERLAY, 0, STATIC
        ARGFRAME DOVERLAY, 0, STATIC
        FUNCALL LcdClearLine, LCD_WrCmd
        LOCFRAME ISTACK, 0, STACK
        LOCFRAME PSTACK, 0, STACK
        LOCFRAME XSTACK, 15, STACK
        LOCFRAME IOVERLAY, 0, STATIC
        LOCFRAME DOVERLAY, 0, STATIC
        ARGFRAME ISTACK, 0, STACK
        ARGFRAME PSTACK, 0, STACK
        ARGFRAME XSTACK, 15, STACK
        ARGFRAME IOVERLAY, 0, STATIC
        ARGFRAME DOVERLAY, 0, STATIC
        FUNCALL LcdClearLine, LCD_WrCmd
        LOCFRAME ISTACK, 0, STACK
        LOCFRAME PSTACK, 0, STACK
        LOCFRAME XSTACK, 15, STACK
        LOCFRAME IOVERLAY, 0, STATIC
        LOCFRAME DOVERLAY, 0, STATIC
        ARGFRAME ISTACK, 0, STACK
        ARGFRAME PSTACK, 0, STACK
        ARGFRAME XSTACK, 15, STACK
        ARGFRAME IOVERLAY, 0, STATIC
        ARGFRAME DOVERLAY, 0, STATIC
        MOV     A,#-0xf
        LCALL   ?BANKED_ENTER_XDATA
        CFI DPH0 load(1, XDATA, add(CFA_XSP16, literal(-1)))
        CFI DPL0 load(1, XDATA, add(CFA_XSP16, literal(-2)))
        CFI ?BRET_EXT load(1, XDATA, add(CFA_XSP16, literal(-3)))
        CFI ?RET_HIGH load(1, XDATA, add(CFA_XSP16, literal(-4)))
        CFI ?RET_LOW load(1, XDATA, add(CFA_XSP16, literal(-5)))
        CFI R7 load(1, XDATA, add(CFA_XSP16, literal(-6)))
        CFI V6 load(1, XDATA, add(CFA_XSP16, literal(-7)))
        CFI V5 load(1, XDATA, add(CFA_XSP16, literal(-8)))
        CFI V4 load(1, XDATA, add(CFA_XSP16, literal(-9)))
        CFI V3 load(1, XDATA, add(CFA_XSP16, literal(-10)))
        CFI V2 load(1, XDATA, add(CFA_XSP16, literal(-11)))
        CFI V1 load(1, XDATA, add(CFA_XSP16, literal(-12)))
        CFI V0 load(1, XDATA, add(CFA_XSP16, literal(-13)))
        CFI VB load(1, XDATA, add(CFA_XSP16, literal(-14)))
        CFI R6 load(1, XDATA, add(CFA_XSP16, literal(-15)))
        CFI CFA_SP SP+0
        CFI CFA_XSP16 add(XSP16, 15)
        ; Saved register size: 15
        ; Auto size: 0
        MOV     A,R1
        MOV     R7,A
        MOV     ?V0 + 6,R2
//  421     unsigned char x,j;	
//  422     
//  423     for(j=y; j<(y+count); j++)
        MOV     R6,A
        SJMP    ??LcdClearLine_0
//  424     {
//  425         LCD_WrCmd(0xb0+j);
//  426         LCD_WrCmd(0x01);
//  427         LCD_WrCmd(0x10); 
//  428         for(x=0;x<X_WIDTH;x++)
//  429            LCD_WrDat(0);
??LcdClearLine_1:
        ; Setup parameters for call to function LCD_WrDat
        MOV     R1,#0x0
        LCALL   ??LCD_WrDat?relay
        INC     ?V0 + 0
??LcdClearLine_2:
        MOV     A,?V0 + 0
        CLR     C
        SUBB    A,#-0x80
        JC      ??LcdClearLine_1
        INC     R6
??LcdClearLine_0:
        MOV     ?V0 + 0,R6
        MOV     ?V0 + 2,?V0 + 6
        MOV     A,R7
        ADD     A,?V0 + 2
        MOV     R0,A
        CLR     A
        ADDC    A,#0x0
        MOV     R1,A
        MOV     A,?V0 + 0
        SUBB    A,R0
        CLR     A
        SUBB    A,R1
        CLR     C
        XRL     A,PSW
        RLC     A
        JNC     ??LcdClearLine_3
        ; Setup parameters for call to function LCD_WrCmd
        MOV     A,#-0x50
        ADD     A,R6
        MOV     R1,A
        LCALL   ??LCD_WrCmd?relay
        ; Setup parameters for call to function LCD_WrCmd
        MOV     R1,#0x1
        LCALL   ??LCD_WrCmd?relay
        ; Setup parameters for call to function LCD_WrCmd
        MOV     R1,#0x10
        LCALL   ??LCD_WrCmd?relay
        MOV     ?V0 + 0,#0x0
        SJMP    ??LcdClearLine_2
//  430     }
//  431 }
??LcdClearLine_3:
        MOV     R7,#0x7
        LJMP    ?BANKED_LEAVE_XDATA
        CFI EndBlock cfiBlock12
//  432 

        RSEG BANKED_CODE:CODE:NOROOT(0)
//  433 void HalLcdWriteString (char *str, uint8 option)
HalLcdWriteString:
        CFI Block cfiBlock13 Using cfiCommon0
        CFI Function HalLcdWriteString
        CODE
//  434 {
        FUNCALL HalLcdWriteString, osal_strlen
        LOCFRAME ISTACK, 0, STACK
        LOCFRAME PSTACK, 0, STACK
        LOCFRAME XSTACK, 29, STACK
        LOCFRAME IOVERLAY, 0, STATIC
        LOCFRAME DOVERLAY, 0, STATIC
        ARGFRAME ISTACK, 0, STACK
        ARGFRAME PSTACK, 0, STACK
        ARGFRAME XSTACK, 29, STACK
        ARGFRAME IOVERLAY, 0, STATIC
        ARGFRAME DOVERLAY, 0, STATIC
        FUNCALL HalLcdWriteString, osal_memset
        LOCFRAME ISTACK, 0, STACK
        LOCFRAME PSTACK, 0, STACK
        LOCFRAME XSTACK, 29, STACK
        LOCFRAME IOVERLAY, 0, STATIC
        LOCFRAME DOVERLAY, 0, STATIC
        ARGFRAME ISTACK, 0, STACK
        ARGFRAME PSTACK, 0, STACK
        ARGFRAME XSTACK, 29, STACK
        ARGFRAME IOVERLAY, 0, STATIC
        ARGFRAME DOVERLAY, 0, STATIC
        FUNCALL HalLcdWriteString, osal_memcpy
        LOCFRAME ISTACK, 0, STACK
        LOCFRAME PSTACK, 0, STACK
        LOCFRAME XSTACK, 32, STACK
        LOCFRAME IOVERLAY, 0, STATIC
        LOCFRAME DOVERLAY, 0, STATIC
        ARGFRAME ISTACK, 0, STACK
        ARGFRAME PSTACK, 0, STACK
        ARGFRAME XSTACK, 32, STACK
        ARGFRAME IOVERLAY, 0, STATIC
        ARGFRAME DOVERLAY, 0, STATIC
        FUNCALL HalLcdWriteString, LcdClearLine
        LOCFRAME ISTACK, 0, STACK
        LOCFRAME PSTACK, 0, STACK
        LOCFRAME XSTACK, 29, STACK
        LOCFRAME IOVERLAY, 0, STATIC
        LOCFRAME DOVERLAY, 0, STATIC
        ARGFRAME ISTACK, 0, STACK
        ARGFRAME PSTACK, 0, STACK
        ARGFRAME XSTACK, 29, STACK
        ARGFRAME IOVERLAY, 0, STATIC
        ARGFRAME DOVERLAY, 0, STATIC
        FUNCALL HalLcdWriteString, LCD_P8x16Str
        LOCFRAME ISTACK, 0, STACK
        LOCFRAME PSTACK, 0, STACK
        LOCFRAME XSTACK, 29, STACK
        LOCFRAME IOVERLAY, 0, STATIC
        LOCFRAME DOVERLAY, 0, STATIC
        ARGFRAME ISTACK, 0, STACK
        ARGFRAME PSTACK, 0, STACK
        ARGFRAME XSTACK, 29, STACK
        ARGFRAME IOVERLAY, 0, STATIC
        ARGFRAME DOVERLAY, 0, STATIC
        MOV     A,#-0xc
        LCALL   ?BANKED_ENTER_XDATA
        CFI DPH0 load(1, XDATA, add(CFA_XSP16, literal(-1)))
        CFI DPL0 load(1, XDATA, add(CFA_XSP16, literal(-2)))
        CFI ?BRET_EXT load(1, XDATA, add(CFA_XSP16, literal(-3)))
        CFI ?RET_HIGH load(1, XDATA, add(CFA_XSP16, literal(-4)))
        CFI ?RET_LOW load(1, XDATA, add(CFA_XSP16, literal(-5)))
        CFI R7 load(1, XDATA, add(CFA_XSP16, literal(-6)))
        CFI V3 load(1, XDATA, add(CFA_XSP16, literal(-7)))
        CFI V2 load(1, XDATA, add(CFA_XSP16, literal(-8)))
        CFI V1 load(1, XDATA, add(CFA_XSP16, literal(-9)))
        CFI V0 load(1, XDATA, add(CFA_XSP16, literal(-10)))
        CFI VB load(1, XDATA, add(CFA_XSP16, literal(-11)))
        CFI R6 load(1, XDATA, add(CFA_XSP16, literal(-12)))
        CFI CFA_SP SP+0
        CFI CFA_XSP16 add(XSP16, 12)
        ; Saved register size: 12
        ; Auto size: 17
        MOV     A,#-0x11
        LCALL   ?ALLOC_XSTACK8
        CFI CFA_XSP16 add(XSP16, 29)
        MOV     ?V0 + 0,R2
        MOV     ?V0 + 1,R3
        MOV     ?V0 + 3,R1
//  435   uint8 x=0,y=0,strLen;
//  436   uint8 lcdBuf[HAL_LCD_MAX_CHARS+1];
//  437     
//  438   x=0;
//  439   y = (option-1)*2;
        MOV     A,#-0x1
        ADD     A,?V0 + 3
        CLR     C
        RLC     A
        MOV     R7,A
//  440   strLen = (uint8)osal_strlen( (char*)str );
        ; Setup parameters for call to function osal_strlen
        LCALL   ??osal_strlen?relay
        MOV     A,R2
        MOV     R6,A
//  441 
//  442   /* Check boundries */
//  443   if ( strLen > HAL_LCD_MAX_CHARS )
        CLR     C
        SUBB    A,#0x11
        JC      ??HalLcdWriteString_0
//  444     strLen = HAL_LCD_MAX_CHARS;
        MOV     R6,#0x10
//  445 
//  446   osal_memset(lcdBuf, 0, HAL_LCD_MAX_CHARS+1);
??HalLcdWriteString_0:
        ; Setup parameters for call to function osal_memset
        MOV     R4,#0x11
        MOV     R5,#0x0
        MOV     R1,#0x0
        MOV     DPL,?XSP + 0
        MOV     DPH,?XSP + 1
        MOV     R2,DPL
        MOV     R3,DPH
        LCALL   ??osal_memset?relay
//  447   osal_memcpy( lcdBuf, str, strLen );
        ; Setup parameters for call to function osal_memcpy
        MOV     ?V0 + 2,#0x0
        MOV     R0,#?V0 + 0
        LCALL   ?PUSH_XSTACK_I_THREE
        CFI CFA_XSP16 add(XSP16, 32)
        MOV     ?V0 + 0,R6
        MOV     R4,?V0 + 0
        MOV     R5,#0x0
        MOV     A,#0x3
        LCALL   ?XSTACK_DISP0_8
        MOV     R2,DPL
        MOV     R3,DPH
        LCALL   ??osal_memcpy?relay
        MOV     A,#0x3
        LCALL   ?DEALLOC_XSTACK8
        CFI CFA_XSP16 add(XSP16, 29)
//  448   
//  449   LcdClearLine(y, 2);
        ; Setup parameters for call to function LcdClearLine
        MOV     R2,#0x2
        MOV     A,R7
        MOV     R1,A
        LCALL   ??LcdClearLine?relay
//  450   LCD_P8x16Str(x, y, lcdBuf);
        ; Setup parameters for call to function LCD_P8x16Str
        MOV     DPL,?XSP + 0
        MOV     DPH,?XSP + 1
        MOV     R4,DPL
        MOV     R5,DPH
        MOV     A,R7
        MOV     R2,A
        MOV     R1,#0x0
        LCALL   ??LCD_P8x16Str?relay
//  451 }
        MOV     A,#0x11
        LCALL   ?DEALLOC_XSTACK8
        CFI CFA_XSP16 add(XSP16, 12)
        MOV     R7,#0x4
        LJMP    ?BANKED_LEAVE_XDATA
        CFI EndBlock cfiBlock13
//  452 
//  453 /***能描述：显示8*16一组标准ASCII字符串     显示的坐标（x,y），y为页范围0～7***/

        RSEG BANKED_CODE:CODE:NOROOT(0)
//  454 void LCD_P8x16Str(unsigned char x, unsigned char y,unsigned char ch[])
LCD_P8x16Str:
        CFI Block cfiBlock14 Using cfiCommon0
        CFI Function LCD_P8x16Str
        CODE
//  455 {
        FUNCALL LCD_P8x16Str, LCD_WrDat
        LOCFRAME ISTACK, 0, STACK
        LOCFRAME PSTACK, 0, STACK
        LOCFRAME XSTACK, 17, STACK
        LOCFRAME IOVERLAY, 0, STATIC
        LOCFRAME DOVERLAY, 0, STATIC
        ARGFRAME ISTACK, 0, STACK
        ARGFRAME PSTACK, 0, STACK
        ARGFRAME XSTACK, 17, STACK
        ARGFRAME IOVERLAY, 0, STATIC
        ARGFRAME DOVERLAY, 0, STATIC
        FUNCALL LCD_P8x16Str, LCD_Set_Pos
        LOCFRAME ISTACK, 0, STACK
        LOCFRAME PSTACK, 0, STACK
        LOCFRAME XSTACK, 17, STACK
        LOCFRAME IOVERLAY, 0, STATIC
        LOCFRAME DOVERLAY, 0, STATIC
        ARGFRAME ISTACK, 0, STACK
        ARGFRAME PSTACK, 0, STACK
        ARGFRAME XSTACK, 17, STACK
        ARGFRAME IOVERLAY, 0, STATIC
        ARGFRAME DOVERLAY, 0, STATIC
        FUNCALL LCD_P8x16Str, LCD_WrDat
        LOCFRAME ISTACK, 0, STACK
        LOCFRAME PSTACK, 0, STACK
        LOCFRAME XSTACK, 17, STACK
        LOCFRAME IOVERLAY, 0, STATIC
        LOCFRAME DOVERLAY, 0, STATIC
        ARGFRAME ISTACK, 0, STACK
        ARGFRAME PSTACK, 0, STACK
        ARGFRAME XSTACK, 17, STACK
        ARGFRAME IOVERLAY, 0, STATIC
        ARGFRAME DOVERLAY, 0, STATIC
        FUNCALL LCD_P8x16Str, LCD_Set_Pos
        LOCFRAME ISTACK, 0, STACK
        LOCFRAME PSTACK, 0, STACK
        LOCFRAME XSTACK, 17, STACK
        LOCFRAME IOVERLAY, 0, STATIC
        LOCFRAME DOVERLAY, 0, STATIC
        ARGFRAME ISTACK, 0, STACK
        ARGFRAME PSTACK, 0, STACK
        ARGFRAME XSTACK, 17, STACK
        ARGFRAME IOVERLAY, 0, STATIC
        ARGFRAME DOVERLAY, 0, STATIC
        MOV     A,#-0xf
        LCALL   ?BANKED_ENTER_XDATA
        CFI DPH0 load(1, XDATA, add(CFA_XSP16, literal(-1)))
        CFI DPL0 load(1, XDATA, add(CFA_XSP16, literal(-2)))
        CFI ?BRET_EXT load(1, XDATA, add(CFA_XSP16, literal(-3)))
        CFI ?RET_HIGH load(1, XDATA, add(CFA_XSP16, literal(-4)))
        CFI ?RET_LOW load(1, XDATA, add(CFA_XSP16, literal(-5)))
        CFI R7 load(1, XDATA, add(CFA_XSP16, literal(-6)))
        CFI V6 load(1, XDATA, add(CFA_XSP16, literal(-7)))
        CFI V5 load(1, XDATA, add(CFA_XSP16, literal(-8)))
        CFI V4 load(1, XDATA, add(CFA_XSP16, literal(-9)))
        CFI V3 load(1, XDATA, add(CFA_XSP16, literal(-10)))
        CFI V2 load(1, XDATA, add(CFA_XSP16, literal(-11)))
        CFI V1 load(1, XDATA, add(CFA_XSP16, literal(-12)))
        CFI V0 load(1, XDATA, add(CFA_XSP16, literal(-13)))
        CFI VB load(1, XDATA, add(CFA_XSP16, literal(-14)))
        CFI R6 load(1, XDATA, add(CFA_XSP16, literal(-15)))
        CFI CFA_SP SP+0
        CFI CFA_XSP16 add(XSP16, 15)
        ; Saved register size: 15
        ; Auto size: 2
        MOV     A,#-0x2
        LCALL   ?ALLOC_XSTACK8
        CFI CFA_XSP16 add(XSP16, 17)
        MOV     DPL,?XSP + 0
        MOV     DPH,?XSP + 1
        MOV     A,R4
        MOVX    @DPTR,A
        INC     DPTR
        MOV     A,R5
        MOVX    @DPTR,A
        MOV     A,R1
        MOV     R6,A
        MOV     ?V0 + 4,R2
//  456     unsigned char c=0,i=0,j=0;
        MOV     ?V0 + 5,#0x0
        SJMP    ??LCD_P8x16Str_0
//  457     
//  458     while (ch[j]!='\0')
//  459     {    
//  460         c =ch[j]-32;
//  461         if(x>120){
//  462           x=0;
//  463           y++;
//  464         }
//  465         LCD_Set_Pos(x,y);    
//  466         for(i=0;i<8;i++)     
//  467             LCD_WrDat(F8X16[c*16+i]);
//  468         LCD_Set_Pos(x,y+1);    
//  469         for(i=0;i<8;i++)     
//  470             LCD_WrDat(F8X16[c*16+i+8]);  
??LCD_P8x16Str_1:
        ; Setup parameters for call to function LCD_WrDat
        MOV     ?V0 + 2,?V0 + 6
        MOV     ?V0 + 3,#0x0
        MOV     A,#0x4
        MOV     R0,#?V0 + 2
        LCALL   ?S_SHL
        MOV     ?V0 + 0,R7
        MOV     A,?V0 + 2
        ADD     A,?V0 + 0
        MOV     R0,A
        MOV     A,?V0 + 3
        ADDC    A,#0x0
        MOV     R1,A
        MOV     A,#(F8X16 + 8) & 0xff
        ADD     A,R0
        MOV     DPL,A
        MOV     A,#((F8X16 + 8) >> 8) & 0xff
        ADDC    A,R1
        MOV     DPH,A
        MOVX    A,@DPTR
        MOV     R1,A
        LCALL   ??LCD_WrDat?relay
        INC     R7
??LCD_P8x16Str_2:
        MOV     A,R7
        CLR     C
        SUBB    A,#0x8
        JC      ??LCD_P8x16Str_1
//  471         x+=8;
        MOV     A,#0x8
        ADD     A,R6
        MOV     R6,A
//  472         j++;
        INC     ?V0 + 5
??LCD_P8x16Str_0:
        MOV     R0,?V0 + 5
        MOV     DPL,?XSP + 0
        MOV     DPH,?XSP + 1
        MOVX    A,@DPTR
        ADD     A,R0
        MOV     R0,A
        INC     DPTR
        MOVX    A,@DPTR
        ADDC    A,#0x0
        MOV     R1,A
        MOV     DPL,R0
        MOV     DPH,R1
        MOVX    A,@DPTR
        JZ      ??LCD_P8x16Str_3
        MOVX    A,@DPTR
        ADD     A,#-0x20
        MOV     ?V0 + 6,A
        MOV     A,R6
        CLR     C
        SUBB    A,#0x79
        JC      ??LCD_P8x16Str_4
        MOV     R6,#0x0
        INC     ?V0 + 4
??LCD_P8x16Str_4:
        ; Setup parameters for call to function LCD_Set_Pos
        MOV     R2,?V0 + 4
        MOV     A,R6
        MOV     R1,A
        LCALL   ??LCD_Set_Pos?relay
        MOV     R7,#0x0
        SJMP    ??LCD_P8x16Str_5
??LCD_P8x16Str_6:
        ; Setup parameters for call to function LCD_WrDat
        MOV     ?V0 + 2,?V0 + 6
        MOV     ?V0 + 3,#0x0
        MOV     A,#0x4
        MOV     R0,#?V0 + 2
        LCALL   ?S_SHL
        MOV     ?V0 + 0,R7
        MOV     A,?V0 + 2
        ADD     A,?V0 + 0
        MOV     R0,A
        MOV     A,?V0 + 3
        ADDC    A,#0x0
        MOV     R1,A
        MOV     A,#F8X16 & 0xff
        ADD     A,R0
        MOV     DPL,A
        MOV     A,#(F8X16 >> 8) & 0xff
        ADDC    A,R1
        MOV     DPH,A
        MOVX    A,@DPTR
        MOV     R1,A
        LCALL   ??LCD_WrDat?relay
        INC     R7
??LCD_P8x16Str_5:
        MOV     A,R7
        CLR     C
        SUBB    A,#0x8
        JC      ??LCD_P8x16Str_6
        ; Setup parameters for call to function LCD_Set_Pos
        MOV     A,#0x1
        ADD     A,?V0 + 4
        MOV     R2,A
        MOV     A,R6
        MOV     R1,A
        LCALL   ??LCD_Set_Pos?relay
        MOV     R7,#0x0
        SJMP    ??LCD_P8x16Str_2
//  473     }
//  474 }
??LCD_P8x16Str_3:
        MOV     A,#0x2
        LCALL   ?DEALLOC_XSTACK8
        CFI CFA_XSP16 add(XSP16, 15)
        MOV     R7,#0x7
        LJMP    ?BANKED_LEAVE_XDATA
        CFI EndBlock cfiBlock14
//  475 
//  476 /*****************功能描述：显示16*16点阵  显示的坐标（x,y），y为页范围0～7****************************/

        RSEG BANKED_CODE:CODE:NOROOT(0)
//  477 void LCD_P16x16Ch(unsigned char x, unsigned char y, unsigned char N)
LCD_P16x16Ch:
        CFI Block cfiBlock15 Using cfiCommon0
        CFI Function LCD_P16x16Ch
        CODE
//  478 {
        FUNCALL LCD_P16x16Ch, LCD_Set_Pos
        LOCFRAME ISTACK, 0, STACK
        LOCFRAME PSTACK, 0, STACK
        LOCFRAME XSTACK, 12, STACK
        LOCFRAME IOVERLAY, 0, STATIC
        LOCFRAME DOVERLAY, 0, STATIC
        ARGFRAME ISTACK, 0, STACK
        ARGFRAME PSTACK, 0, STACK
        ARGFRAME XSTACK, 12, STACK
        ARGFRAME IOVERLAY, 0, STATIC
        ARGFRAME DOVERLAY, 0, STATIC
        FUNCALL LCD_P16x16Ch, LCD_WrDat
        LOCFRAME ISTACK, 0, STACK
        LOCFRAME PSTACK, 0, STACK
        LOCFRAME XSTACK, 12, STACK
        LOCFRAME IOVERLAY, 0, STATIC
        LOCFRAME DOVERLAY, 0, STATIC
        ARGFRAME ISTACK, 0, STACK
        ARGFRAME PSTACK, 0, STACK
        ARGFRAME XSTACK, 12, STACK
        ARGFRAME IOVERLAY, 0, STATIC
        ARGFRAME DOVERLAY, 0, STATIC
        FUNCALL LCD_P16x16Ch, LCD_Set_Pos
        LOCFRAME ISTACK, 0, STACK
        LOCFRAME PSTACK, 0, STACK
        LOCFRAME XSTACK, 12, STACK
        LOCFRAME IOVERLAY, 0, STATIC
        LOCFRAME DOVERLAY, 0, STATIC
        ARGFRAME ISTACK, 0, STACK
        ARGFRAME PSTACK, 0, STACK
        ARGFRAME XSTACK, 12, STACK
        ARGFRAME IOVERLAY, 0, STATIC
        ARGFRAME DOVERLAY, 0, STATIC
        FUNCALL LCD_P16x16Ch, LCD_WrDat
        LOCFRAME ISTACK, 0, STACK
        LOCFRAME PSTACK, 0, STACK
        LOCFRAME XSTACK, 12, STACK
        LOCFRAME IOVERLAY, 0, STATIC
        LOCFRAME DOVERLAY, 0, STATIC
        ARGFRAME ISTACK, 0, STACK
        ARGFRAME PSTACK, 0, STACK
        ARGFRAME XSTACK, 12, STACK
        ARGFRAME IOVERLAY, 0, STATIC
        ARGFRAME DOVERLAY, 0, STATIC
        MOV     A,#-0xc
        LCALL   ?BANKED_ENTER_XDATA
        CFI DPH0 load(1, XDATA, add(CFA_XSP16, literal(-1)))
        CFI DPL0 load(1, XDATA, add(CFA_XSP16, literal(-2)))
        CFI ?BRET_EXT load(1, XDATA, add(CFA_XSP16, literal(-3)))
        CFI ?RET_HIGH load(1, XDATA, add(CFA_XSP16, literal(-4)))
        CFI ?RET_LOW load(1, XDATA, add(CFA_XSP16, literal(-5)))
        CFI R7 load(1, XDATA, add(CFA_XSP16, literal(-6)))
        CFI V3 load(1, XDATA, add(CFA_XSP16, literal(-7)))
        CFI V2 load(1, XDATA, add(CFA_XSP16, literal(-8)))
        CFI V1 load(1, XDATA, add(CFA_XSP16, literal(-9)))
        CFI V0 load(1, XDATA, add(CFA_XSP16, literal(-10)))
        CFI VB load(1, XDATA, add(CFA_XSP16, literal(-11)))
        CFI R6 load(1, XDATA, add(CFA_XSP16, literal(-12)))
        CFI CFA_SP SP+0
        CFI CFA_XSP16 add(XSP16, 12)
        ; Saved register size: 12
        ; Auto size: 0
        MOV     ?V0 + 0,R1
        MOV     ?V0 + 2,R2
//  479     unsigned char wm=0;
//  480     unsigned int adder=2*N;//32*N;        
        MOV     A,R3
        CLR     C
        RLC     A
        MOV     R6,A
        CLR     A
        RLC     A
        MOV     R7,A
//  481     LCD_Set_Pos(x , y);
        ; Setup parameters for call to function LCD_Set_Pos
        LCALL   ??LCD_Set_Pos?relay
//  482     for(wm = 0;wm < 16;wm++)               
        MOV     ?V0 + 1,#0x0
        SJMP    ??LCD_P16x16Ch_0
//  483     {
//  484         LCD_WrDat(F16x16[adder]);    
??LCD_P16x16Ch_1:
        ; Setup parameters for call to function LCD_WrDat
        MOV     A,#F16x16 & 0xff
        ADD     A,R6
        MOV     DPL,A
        MOV     A,#(F16x16 >> 8) & 0xff
        ADDC    A,R7
        MOV     DPH,A
        MOVX    A,@DPTR
        MOV     R1,A
        LCALL   ??LCD_WrDat?relay
//  485         adder += 1;
        MOV     A,R6
        ADD     A,#0x1
        INC     R6
        MOV     A,R7
        ADDC    A,#0x0
        MOV     R7,A
//  486     }      
        INC     ?V0 + 1
??LCD_P16x16Ch_0:
        MOV     A,?V0 + 1
        CLR     C
        SUBB    A,#0x10
        JC      ??LCD_P16x16Ch_1
//  487     LCD_Set_Pos(x,y + 1); 
        ; Setup parameters for call to function LCD_Set_Pos
        MOV     A,#0x1
        ADD     A,?V0 + 2
        MOV     R2,A
        MOV     R1,?V0 + 0
        LCALL   ??LCD_Set_Pos?relay
//  488     for(wm = 0;wm < 16;wm++)          
        MOV     ?V0 + 1,#0x0
        SJMP    ??LCD_P16x16Ch_2
//  489     {
//  490         LCD_WrDat(F16x16[adder]);
??LCD_P16x16Ch_3:
        ; Setup parameters for call to function LCD_WrDat
        MOV     A,#F16x16 & 0xff
        ADD     A,R6
        MOV     DPL,A
        MOV     A,#(F16x16 >> 8) & 0xff
        ADDC    A,R7
        MOV     DPH,A
        MOVX    A,@DPTR
        MOV     R1,A
        LCALL   ??LCD_WrDat?relay
//  491         adder += 1;
        MOV     A,R6
        ADD     A,#0x1
        INC     R6
        MOV     A,R7
        ADDC    A,#0x0
        MOV     R7,A
//  492     }           
        INC     ?V0 + 1
??LCD_P16x16Ch_2:
        MOV     A,?V0 + 1
        CLR     C
        SUBB    A,#0x10
        JC      ??LCD_P16x16Ch_3
//  493 }
        MOV     R7,#0x4
        LJMP    ?BANKED_LEAVE_XDATA
        CFI EndBlock cfiBlock15
//  494 

        RSEG BANKED_CODE:CODE:NOROOT(0)
//  495 void HalLcd_HW_WaitUs(uint16 microSecs)
HalLcd_HW_WaitUs:
        CFI Block cfiBlock16 Using cfiCommon0
        CFI Function HalLcd_HW_WaitUs
        CODE
//  496 {
        ; Saved register size: 0
        ; Auto size: 0
        SJMP    ??HalLcd_HW_WaitUs_0
//  497   while(microSecs--)
//  498   {
//  499     /* 32 NOPs == 1 usecs */
//  500     asm("nop"); asm("nop"); asm("nop"); asm("nop");
??HalLcd_HW_WaitUs_1:
        nop
        nop
        nop
        nop
//  501     asm("nop"); asm("nop"); asm("nop"); asm("nop");
        nop
        nop
        nop
        nop
//  502   }
??HalLcd_HW_WaitUs_0:
        MOV     A,R2
        MOV     R0,A
        MOV     A,R3
        MOV     R1,A
        MOV     A,R0
        ADD     A,#-0x1
        DEC     R2
        MOV     A,R1
        ADDC    A,#-0x1
        MOV     R3,A
        MOV     A,R0
        ORL     A,R1
        JNZ     ??HalLcd_HW_WaitUs_1
//  503 }
        LJMP    ?BRET
        CFI EndBlock cfiBlock16
//  504 

        RSEG BANKED_CODE:CODE:NOROOT(0)
//  505 void HalLcd_HW_Init(void)
HalLcd_HW_Init:
        CFI Block cfiBlock17 Using cfiCommon0
        CFI Function HalLcd_HW_Init
        CODE
//  506 {
        FUNCALL HalLcd_HW_Init, LCD_DLY_ms
        LOCFRAME ISTACK, 2, STACK
        LOCFRAME PSTACK, 0, STACK
        LOCFRAME XSTACK, 0, STACK
        LOCFRAME IOVERLAY, 0, STATIC
        LOCFRAME DOVERLAY, 0, STATIC
        ARGFRAME ISTACK, 2, STACK
        ARGFRAME PSTACK, 0, STACK
        ARGFRAME XSTACK, 0, STACK
        ARGFRAME IOVERLAY, 0, STATIC
        ARGFRAME DOVERLAY, 0, STATIC
        FUNCALL HalLcd_HW_Init, LCD_WrCmd
        LOCFRAME ISTACK, 2, STACK
        LOCFRAME PSTACK, 0, STACK
        LOCFRAME XSTACK, 0, STACK
        LOCFRAME IOVERLAY, 0, STATIC
        LOCFRAME DOVERLAY, 0, STATIC
        ARGFRAME ISTACK, 2, STACK
        ARGFRAME PSTACK, 0, STACK
        ARGFRAME XSTACK, 0, STACK
        ARGFRAME IOVERLAY, 0, STATIC
        ARGFRAME DOVERLAY, 0, STATIC
        FUNCALL HalLcd_HW_Init, LCD_WrCmd
        LOCFRAME ISTACK, 2, STACK
        LOCFRAME PSTACK, 0, STACK
        LOCFRAME XSTACK, 0, STACK
        LOCFRAME IOVERLAY, 0, STATIC
        LOCFRAME DOVERLAY, 0, STATIC
        ARGFRAME ISTACK, 2, STACK
        ARGFRAME PSTACK, 0, STACK
        ARGFRAME XSTACK, 0, STACK
        ARGFRAME IOVERLAY, 0, STATIC
        ARGFRAME DOVERLAY, 0, STATIC
        FUNCALL HalLcd_HW_Init, LCD_WrCmd
        LOCFRAME ISTACK, 2, STACK
        LOCFRAME PSTACK, 0, STACK
        LOCFRAME XSTACK, 0, STACK
        LOCFRAME IOVERLAY, 0, STATIC
        LOCFRAME DOVERLAY, 0, STATIC
        ARGFRAME ISTACK, 2, STACK
        ARGFRAME PSTACK, 0, STACK
        ARGFRAME XSTACK, 0, STACK
        ARGFRAME IOVERLAY, 0, STATIC
        ARGFRAME DOVERLAY, 0, STATIC
        FUNCALL HalLcd_HW_Init, LCD_WrCmd
        LOCFRAME ISTACK, 2, STACK
        LOCFRAME PSTACK, 0, STACK
        LOCFRAME XSTACK, 0, STACK
        LOCFRAME IOVERLAY, 0, STATIC
        LOCFRAME DOVERLAY, 0, STATIC
        ARGFRAME ISTACK, 2, STACK
        ARGFRAME PSTACK, 0, STACK
        ARGFRAME XSTACK, 0, STACK
        ARGFRAME IOVERLAY, 0, STATIC
        ARGFRAME DOVERLAY, 0, STATIC
        FUNCALL HalLcd_HW_Init, LCD_WrCmd
        LOCFRAME ISTACK, 2, STACK
        LOCFRAME PSTACK, 0, STACK
        LOCFRAME XSTACK, 0, STACK
        LOCFRAME IOVERLAY, 0, STATIC
        LOCFRAME DOVERLAY, 0, STATIC
        ARGFRAME ISTACK, 2, STACK
        ARGFRAME PSTACK, 0, STACK
        ARGFRAME XSTACK, 0, STACK
        ARGFRAME IOVERLAY, 0, STATIC
        ARGFRAME DOVERLAY, 0, STATIC
        FUNCALL HalLcd_HW_Init, LCD_WrCmd
        LOCFRAME ISTACK, 2, STACK
        LOCFRAME PSTACK, 0, STACK
        LOCFRAME XSTACK, 0, STACK
        LOCFRAME IOVERLAY, 0, STATIC
        LOCFRAME DOVERLAY, 0, STATIC
        ARGFRAME ISTACK, 2, STACK
        ARGFRAME PSTACK, 0, STACK
        ARGFRAME XSTACK, 0, STACK
        ARGFRAME IOVERLAY, 0, STATIC
        ARGFRAME DOVERLAY, 0, STATIC
        FUNCALL HalLcd_HW_Init, LCD_WrCmd
        LOCFRAME ISTACK, 2, STACK
        LOCFRAME PSTACK, 0, STACK
        LOCFRAME XSTACK, 0, STACK
        LOCFRAME IOVERLAY, 0, STATIC
        LOCFRAME DOVERLAY, 0, STATIC
        ARGFRAME ISTACK, 2, STACK
        ARGFRAME PSTACK, 0, STACK
        ARGFRAME XSTACK, 0, STACK
        ARGFRAME IOVERLAY, 0, STATIC
        ARGFRAME DOVERLAY, 0, STATIC
        FUNCALL HalLcd_HW_Init, LCD_WrCmd
        LOCFRAME ISTACK, 2, STACK
        LOCFRAME PSTACK, 0, STACK
        LOCFRAME XSTACK, 0, STACK
        LOCFRAME IOVERLAY, 0, STATIC
        LOCFRAME DOVERLAY, 0, STATIC
        ARGFRAME ISTACK, 2, STACK
        ARGFRAME PSTACK, 0, STACK
        ARGFRAME XSTACK, 0, STACK
        ARGFRAME IOVERLAY, 0, STATIC
        ARGFRAME DOVERLAY, 0, STATIC
        FUNCALL HalLcd_HW_Init, LCD_WrCmd
        LOCFRAME ISTACK, 2, STACK
        LOCFRAME PSTACK, 0, STACK
        LOCFRAME XSTACK, 0, STACK
        LOCFRAME IOVERLAY, 0, STATIC
        LOCFRAME DOVERLAY, 0, STATIC
        ARGFRAME ISTACK, 2, STACK
        ARGFRAME PSTACK, 0, STACK
        ARGFRAME XSTACK, 0, STACK
        ARGFRAME IOVERLAY, 0, STATIC
        ARGFRAME DOVERLAY, 0, STATIC
        FUNCALL HalLcd_HW_Init, LCD_WrCmd
        LOCFRAME ISTACK, 2, STACK
        LOCFRAME PSTACK, 0, STACK
        LOCFRAME XSTACK, 0, STACK
        LOCFRAME IOVERLAY, 0, STATIC
        LOCFRAME DOVERLAY, 0, STATIC
        ARGFRAME ISTACK, 2, STACK
        ARGFRAME PSTACK, 0, STACK
        ARGFRAME XSTACK, 0, STACK
        ARGFRAME IOVERLAY, 0, STATIC
        ARGFRAME DOVERLAY, 0, STATIC
        FUNCALL HalLcd_HW_Init, LCD_WrCmd
        LOCFRAME ISTACK, 2, STACK
        LOCFRAME PSTACK, 0, STACK
        LOCFRAME XSTACK, 0, STACK
        LOCFRAME IOVERLAY, 0, STATIC
        LOCFRAME DOVERLAY, 0, STATIC
        ARGFRAME ISTACK, 2, STACK
        ARGFRAME PSTACK, 0, STACK
        ARGFRAME XSTACK, 0, STACK
        ARGFRAME IOVERLAY, 0, STATIC
        ARGFRAME DOVERLAY, 0, STATIC
        FUNCALL HalLcd_HW_Init, LCD_WrCmd
        LOCFRAME ISTACK, 2, STACK
        LOCFRAME PSTACK, 0, STACK
        LOCFRAME XSTACK, 0, STACK
        LOCFRAME IOVERLAY, 0, STATIC
        LOCFRAME DOVERLAY, 0, STATIC
        ARGFRAME ISTACK, 2, STACK
        ARGFRAME PSTACK, 0, STACK
        ARGFRAME XSTACK, 0, STACK
        ARGFRAME IOVERLAY, 0, STATIC
        ARGFRAME DOVERLAY, 0, STATIC
        FUNCALL HalLcd_HW_Init, LCD_WrCmd
        LOCFRAME ISTACK, 2, STACK
        LOCFRAME PSTACK, 0, STACK
        LOCFRAME XSTACK, 0, STACK
        LOCFRAME IOVERLAY, 0, STATIC
        LOCFRAME DOVERLAY, 0, STATIC
        ARGFRAME ISTACK, 2, STACK
        ARGFRAME PSTACK, 0, STACK
        ARGFRAME XSTACK, 0, STACK
        ARGFRAME IOVERLAY, 0, STATIC
        ARGFRAME DOVERLAY, 0, STATIC
        FUNCALL HalLcd_HW_Init, LCD_WrCmd
        LOCFRAME ISTACK, 2, STACK
        LOCFRAME PSTACK, 0, STACK
        LOCFRAME XSTACK, 0, STACK
        LOCFRAME IOVERLAY, 0, STATIC
        LOCFRAME DOVERLAY, 0, STATIC
        ARGFRAME ISTACK, 2, STACK
        ARGFRAME PSTACK, 0, STACK
        ARGFRAME XSTACK, 0, STACK
        ARGFRAME IOVERLAY, 0, STATIC
        ARGFRAME DOVERLAY, 0, STATIC
        FUNCALL HalLcd_HW_Init, LCD_WrCmd
        LOCFRAME ISTACK, 2, STACK
        LOCFRAME PSTACK, 0, STACK
        LOCFRAME XSTACK, 0, STACK
        LOCFRAME IOVERLAY, 0, STATIC
        LOCFRAME DOVERLAY, 0, STATIC
        ARGFRAME ISTACK, 2, STACK
        ARGFRAME PSTACK, 0, STACK
        ARGFRAME XSTACK, 0, STACK
        ARGFRAME IOVERLAY, 0, STATIC
        ARGFRAME DOVERLAY, 0, STATIC
        FUNCALL HalLcd_HW_Init, LCD_WrCmd
        LOCFRAME ISTACK, 2, STACK
        LOCFRAME PSTACK, 0, STACK
        LOCFRAME XSTACK, 0, STACK
        LOCFRAME IOVERLAY, 0, STATIC
        LOCFRAME DOVERLAY, 0, STATIC
        ARGFRAME ISTACK, 2, STACK
        ARGFRAME PSTACK, 0, STACK
        ARGFRAME XSTACK, 0, STACK
        ARGFRAME IOVERLAY, 0, STATIC
        ARGFRAME DOVERLAY, 0, STATIC
        FUNCALL HalLcd_HW_Init, LCD_WrCmd
        LOCFRAME ISTACK, 2, STACK
        LOCFRAME PSTACK, 0, STACK
        LOCFRAME XSTACK, 0, STACK
        LOCFRAME IOVERLAY, 0, STATIC
        LOCFRAME DOVERLAY, 0, STATIC
        ARGFRAME ISTACK, 2, STACK
        ARGFRAME PSTACK, 0, STACK
        ARGFRAME XSTACK, 0, STACK
        ARGFRAME IOVERLAY, 0, STATIC
        ARGFRAME DOVERLAY, 0, STATIC
        FUNCALL HalLcd_HW_Init, LCD_WrCmd
        LOCFRAME ISTACK, 2, STACK
        LOCFRAME PSTACK, 0, STACK
        LOCFRAME XSTACK, 0, STACK
        LOCFRAME IOVERLAY, 0, STATIC
        LOCFRAME DOVERLAY, 0, STATIC
        ARGFRAME ISTACK, 2, STACK
        ARGFRAME PSTACK, 0, STACK
        ARGFRAME XSTACK, 0, STACK
        ARGFRAME IOVERLAY, 0, STATIC
        ARGFRAME DOVERLAY, 0, STATIC
        FUNCALL HalLcd_HW_Init, LCD_WrCmd
        LOCFRAME ISTACK, 2, STACK
        LOCFRAME PSTACK, 0, STACK
        LOCFRAME XSTACK, 0, STACK
        LOCFRAME IOVERLAY, 0, STATIC
        LOCFRAME DOVERLAY, 0, STATIC
        ARGFRAME ISTACK, 2, STACK
        ARGFRAME PSTACK, 0, STACK
        ARGFRAME XSTACK, 0, STACK
        ARGFRAME IOVERLAY, 0, STATIC
        ARGFRAME DOVERLAY, 0, STATIC
        FUNCALL HalLcd_HW_Init, LCD_WrCmd
        LOCFRAME ISTACK, 2, STACK
        LOCFRAME PSTACK, 0, STACK
        LOCFRAME XSTACK, 0, STACK
        LOCFRAME IOVERLAY, 0, STATIC
        LOCFRAME DOVERLAY, 0, STATIC
        ARGFRAME ISTACK, 2, STACK
        ARGFRAME PSTACK, 0, STACK
        ARGFRAME XSTACK, 0, STACK
        ARGFRAME IOVERLAY, 0, STATIC
        ARGFRAME DOVERLAY, 0, STATIC
        FUNCALL HalLcd_HW_Init, LCD_WrCmd
        LOCFRAME ISTACK, 2, STACK
        LOCFRAME PSTACK, 0, STACK
        LOCFRAME XSTACK, 0, STACK
        LOCFRAME IOVERLAY, 0, STATIC
        LOCFRAME DOVERLAY, 0, STATIC
        ARGFRAME ISTACK, 2, STACK
        ARGFRAME PSTACK, 0, STACK
        ARGFRAME XSTACK, 0, STACK
        ARGFRAME IOVERLAY, 0, STATIC
        ARGFRAME DOVERLAY, 0, STATIC
        FUNCALL HalLcd_HW_Init, LCD_WrCmd
        LOCFRAME ISTACK, 2, STACK
        LOCFRAME PSTACK, 0, STACK
        LOCFRAME XSTACK, 0, STACK
        LOCFRAME IOVERLAY, 0, STATIC
        LOCFRAME DOVERLAY, 0, STATIC
        ARGFRAME ISTACK, 2, STACK
        ARGFRAME PSTACK, 0, STACK
        ARGFRAME XSTACK, 0, STACK
        ARGFRAME IOVERLAY, 0, STATIC
        ARGFRAME DOVERLAY, 0, STATIC
        FUNCALL HalLcd_HW_Init, LCD_WrCmd
        LOCFRAME ISTACK, 2, STACK
        LOCFRAME PSTACK, 0, STACK
        LOCFRAME XSTACK, 0, STACK
        LOCFRAME IOVERLAY, 0, STATIC
        LOCFRAME DOVERLAY, 0, STATIC
        ARGFRAME ISTACK, 2, STACK
        ARGFRAME PSTACK, 0, STACK
        ARGFRAME XSTACK, 0, STACK
        ARGFRAME IOVERLAY, 0, STATIC
        ARGFRAME DOVERLAY, 0, STATIC
        FUNCALL HalLcd_HW_Init, LCD_WrCmd
        LOCFRAME ISTACK, 2, STACK
        LOCFRAME PSTACK, 0, STACK
        LOCFRAME XSTACK, 0, STACK
        LOCFRAME IOVERLAY, 0, STATIC
        LOCFRAME DOVERLAY, 0, STATIC
        ARGFRAME ISTACK, 2, STACK
        ARGFRAME PSTACK, 0, STACK
        ARGFRAME XSTACK, 0, STACK
        ARGFRAME IOVERLAY, 0, STATIC
        ARGFRAME DOVERLAY, 0, STATIC
        FUNCALL HalLcd_HW_Init, LCD_WrCmd
        LOCFRAME ISTACK, 2, STACK
        LOCFRAME PSTACK, 0, STACK
        LOCFRAME XSTACK, 0, STACK
        LOCFRAME IOVERLAY, 0, STATIC
        LOCFRAME DOVERLAY, 0, STATIC
        ARGFRAME ISTACK, 2, STACK
        ARGFRAME PSTACK, 0, STACK
        ARGFRAME XSTACK, 0, STACK
        ARGFRAME IOVERLAY, 0, STATIC
        ARGFRAME DOVERLAY, 0, STATIC
        FUNCALL HalLcd_HW_Init, LCD_WrCmd
        LOCFRAME ISTACK, 2, STACK
        LOCFRAME PSTACK, 0, STACK
        LOCFRAME XSTACK, 0, STACK
        LOCFRAME IOVERLAY, 0, STATIC
        LOCFRAME DOVERLAY, 0, STATIC
        ARGFRAME ISTACK, 2, STACK
        ARGFRAME PSTACK, 0, STACK
        ARGFRAME XSTACK, 0, STACK
        ARGFRAME IOVERLAY, 0, STATIC
        ARGFRAME DOVERLAY, 0, STATIC
        FUNCALL HalLcd_HW_Init, LCD_WrCmd
        LOCFRAME ISTACK, 2, STACK
        LOCFRAME PSTACK, 0, STACK
        LOCFRAME XSTACK, 0, STACK
        LOCFRAME IOVERLAY, 0, STATIC
        LOCFRAME DOVERLAY, 0, STATIC
        ARGFRAME ISTACK, 2, STACK
        ARGFRAME PSTACK, 0, STACK
        ARGFRAME XSTACK, 0, STACK
        ARGFRAME IOVERLAY, 0, STATIC
        ARGFRAME DOVERLAY, 0, STATIC
        FUNCALL HalLcd_HW_Init, LCD_WrCmd
        LOCFRAME ISTACK, 2, STACK
        LOCFRAME PSTACK, 0, STACK
        LOCFRAME XSTACK, 0, STACK
        LOCFRAME IOVERLAY, 0, STATIC
        LOCFRAME DOVERLAY, 0, STATIC
        ARGFRAME ISTACK, 2, STACK
        ARGFRAME PSTACK, 0, STACK
        ARGFRAME XSTACK, 0, STACK
        ARGFRAME IOVERLAY, 0, STATIC
        ARGFRAME DOVERLAY, 0, STATIC
        FUNCALL HalLcd_HW_Init, LCD_Fill
        LOCFRAME ISTACK, 2, STACK
        LOCFRAME PSTACK, 0, STACK
        LOCFRAME XSTACK, 0, STACK
        LOCFRAME IOVERLAY, 0, STATIC
        LOCFRAME DOVERLAY, 0, STATIC
        ARGFRAME ISTACK, 2, STACK
        ARGFRAME PSTACK, 0, STACK
        ARGFRAME XSTACK, 0, STACK
        ARGFRAME IOVERLAY, 0, STATIC
        ARGFRAME DOVERLAY, 0, STATIC
        FUNCALL HalLcd_HW_Init, LCD_Set_Pos
        LOCFRAME ISTACK, 2, STACK
        LOCFRAME PSTACK, 0, STACK
        LOCFRAME XSTACK, 0, STACK
        LOCFRAME IOVERLAY, 0, STATIC
        LOCFRAME DOVERLAY, 0, STATIC
        ARGFRAME ISTACK, 2, STACK
        ARGFRAME PSTACK, 0, STACK
        ARGFRAME XSTACK, 0, STACK
        ARGFRAME IOVERLAY, 0, STATIC
        ARGFRAME DOVERLAY, 0, STATIC
        PUSH    DPL
        CFI DPL0 Frame(CFA_SP, 4)
        CFI CFA_SP SP+-4
        PUSH    DPH
        CFI DPH0 Frame(CFA_SP, 5)
        CFI CFA_SP SP+-5
        ; Saved register size: 2
        ; Auto size: 0
//  507     P0SEL &= 0xFE; //让P0.0为普通IO口，
        ANL     0xf3,#0xfe
//  508     P0DIR |= 0x01; //让P0.0为为输出
        ORL     0xfd,#0x1
//  509 
//  510     P1SEL &= 0x73; //让 P1.2 P1.3 P1.7为普通IO口
        ANL     0xf4,#0x73
//  511     P1DIR |= 0x8C; //把 P1.2 P1.3 1.7设置为输出
        ORL     0xfe,#0x8c
//  512     
//  513     LCD_SCL=1;
        SETB    0x90.2
//  514     LCD_RST=0;
        CLR     0x90.7
//  515     LCD_DLY_ms(50);
        ; Setup parameters for call to function LCD_DLY_ms
        MOV     R2,#0x32
        MOV     R3,#0x0
        LCALL   ??LCD_DLY_ms?relay
//  516     LCD_RST=1;      //从上电到下面开始初始化要有足够的时间，即等待RC复位完毕   
        SETB    0x90.7
//  517     LCD_WrCmd(0xae);//--turn off oled panel
        ; Setup parameters for call to function LCD_WrCmd
        MOV     R1,#-0x52
        LCALL   ??LCD_WrCmd?relay
//  518     LCD_WrCmd(0x00);//---set low column address
        ; Setup parameters for call to function LCD_WrCmd
        MOV     R1,#0x0
        LCALL   ??LCD_WrCmd?relay
//  519     LCD_WrCmd(0x10);//---set high column address
        ; Setup parameters for call to function LCD_WrCmd
        MOV     R1,#0x10
        LCALL   ??LCD_WrCmd?relay
//  520     LCD_WrCmd(0x40);//--set start line address  Set Mapping RAM Display Start Line (0x00~0x3F)
        ; Setup parameters for call to function LCD_WrCmd
        MOV     R1,#0x40
        LCALL   ??LCD_WrCmd?relay
//  521     LCD_WrCmd(0x81);//--set contrast control register
        ; Setup parameters for call to function LCD_WrCmd
        MOV     R1,#-0x7f
        LCALL   ??LCD_WrCmd?relay
//  522     LCD_WrCmd(0xcf); // Set SEG Output Current Brightness
        ; Setup parameters for call to function LCD_WrCmd
        MOV     R1,#-0x31
        LCALL   ??LCD_WrCmd?relay
//  523     LCD_WrCmd(0xa1);//--Set SEG/Column Mapping     0xa0左右反置 0xa1正常
        ; Setup parameters for call to function LCD_WrCmd
        MOV     R1,#-0x5f
        LCALL   ??LCD_WrCmd?relay
//  524     LCD_WrCmd(0xc8);//Set COM/Row Scan Direction   0xc0上下反置 0xc8正常
        ; Setup parameters for call to function LCD_WrCmd
        MOV     R1,#-0x38
        LCALL   ??LCD_WrCmd?relay
//  525     LCD_WrCmd(0xa6);//--set normal display
        ; Setup parameters for call to function LCD_WrCmd
        MOV     R1,#-0x5a
        LCALL   ??LCD_WrCmd?relay
//  526     LCD_WrCmd(0xa8);//--set multiplex ratio(1 to 64)
        ; Setup parameters for call to function LCD_WrCmd
        MOV     R1,#-0x58
        LCALL   ??LCD_WrCmd?relay
//  527     LCD_WrCmd(0x3f);//--1/64 duty
        ; Setup parameters for call to function LCD_WrCmd
        MOV     R1,#0x3f
        LCALL   ??LCD_WrCmd?relay
//  528     LCD_WrCmd(0xd3);//-set display offset    Shift Mapping RAM Counter (0x00~0x3F)
        ; Setup parameters for call to function LCD_WrCmd
        MOV     R1,#-0x2d
        LCALL   ??LCD_WrCmd?relay
//  529     LCD_WrCmd(0x00);//-not offset
        ; Setup parameters for call to function LCD_WrCmd
        MOV     R1,#0x0
        LCALL   ??LCD_WrCmd?relay
//  530     LCD_WrCmd(0xd5);//--set display clock divide ratio/oscillator frequency
        ; Setup parameters for call to function LCD_WrCmd
        MOV     R1,#-0x2b
        LCALL   ??LCD_WrCmd?relay
//  531     LCD_WrCmd(0x80);//--set divide ratio, Set Clock as 100 Frames/Sec
        ; Setup parameters for call to function LCD_WrCmd
        MOV     R1,#-0x80
        LCALL   ??LCD_WrCmd?relay
//  532     LCD_WrCmd(0xd9);//--set pre-charge period
        ; Setup parameters for call to function LCD_WrCmd
        MOV     R1,#-0x27
        LCALL   ??LCD_WrCmd?relay
//  533     LCD_WrCmd(0xf1);//Set Pre-Charge as 15 Clocks & Discharge as 1 Clock
        ; Setup parameters for call to function LCD_WrCmd
        MOV     R1,#-0xf
        LCALL   ??LCD_WrCmd?relay
//  534     LCD_WrCmd(0xda);//--set com pins hardware configuration
        ; Setup parameters for call to function LCD_WrCmd
        MOV     R1,#-0x26
        LCALL   ??LCD_WrCmd?relay
//  535     LCD_WrCmd(0x12);
        ; Setup parameters for call to function LCD_WrCmd
        MOV     R1,#0x12
        LCALL   ??LCD_WrCmd?relay
//  536     LCD_WrCmd(0xdb);//--set vcomh
        ; Setup parameters for call to function LCD_WrCmd
        MOV     R1,#-0x25
        LCALL   ??LCD_WrCmd?relay
//  537     LCD_WrCmd(0x40);//Set VCOM Deselect Level
        ; Setup parameters for call to function LCD_WrCmd
        MOV     R1,#0x40
        LCALL   ??LCD_WrCmd?relay
//  538     LCD_WrCmd(0x20);//-Set Page Addressing Mode (0x00/0x01/0x02)
        ; Setup parameters for call to function LCD_WrCmd
        MOV     R1,#0x20
        LCALL   ??LCD_WrCmd?relay
//  539     LCD_WrCmd(0x02);//
        ; Setup parameters for call to function LCD_WrCmd
        MOV     R1,#0x2
        LCALL   ??LCD_WrCmd?relay
//  540     LCD_WrCmd(0x8d);//--set Charge Pump enable/disable
        ; Setup parameters for call to function LCD_WrCmd
        MOV     R1,#-0x73
        LCALL   ??LCD_WrCmd?relay
//  541     LCD_WrCmd(0x14);//--set(0x10) disable
        ; Setup parameters for call to function LCD_WrCmd
        MOV     R1,#0x14
        LCALL   ??LCD_WrCmd?relay
//  542     LCD_WrCmd(0xa4);// Disable Entire Display On (0xa4/0xa5)
        ; Setup parameters for call to function LCD_WrCmd
        MOV     R1,#-0x5c
        LCALL   ??LCD_WrCmd?relay
//  543     LCD_WrCmd(0xa6);// Disable Inverse Display On (0xa6/a7) 
        ; Setup parameters for call to function LCD_WrCmd
        MOV     R1,#-0x5a
        LCALL   ??LCD_WrCmd?relay
//  544     LCD_WrCmd(0xaf);//--turn on oled panel
        ; Setup parameters for call to function LCD_WrCmd
        MOV     R1,#-0x51
        LCALL   ??LCD_WrCmd?relay
//  545     LCD_Fill(0x00);  //初始清屏 
        ; Setup parameters for call to function LCD_Fill
        MOV     R1,#0x0
        LCALL   ??LCD_Fill?relay
//  546     LCD_Set_Pos(0,0); 
        ; Setup parameters for call to function LCD_Set_Pos
        MOV     R2,#0x0
        MOV     R1,#0x0
        LCALL   ??LCD_Set_Pos?relay
//  547 }
        POP     DPH
        CFI DPH0 SameValue
        CFI CFA_SP SP+-4
        POP     DPL
        CFI DPL0 SameValue
        CFI CFA_SP SP+-3
        LJMP    ?BRET
        CFI EndBlock cfiBlock17
        REQUIRE P0SEL
        REQUIRE P0DIR
        REQUIRE P1SEL
        REQUIRE P1DIR
        REQUIRE _A_P1

        RSEG XDATA_ID:CODE:NOROOT(0)
`?<Initializer for F16x16>`:
        DATA8
        DB 16
        DB 33
        DB 134
        DB 112
        DB 0
        DB 126
        DB 74
        DB 74
        DB 74
        DB 74
        DB 74
        DB 126
        DB 0
        DB 0
        DB 0
        DB 0
        DB 2
        DB 254
        DB 1
        DB 64
        DB 127
        DB 65
        DB 65
        DB 127
        DB 65
        DB 65
        DB 127
        DB 65
        DB 65
        DB 127
        DB 64
        DB 0
        DB 0
        DB 0
        DB 252
        DB 4
        DB 36
        DB 36
        DB 252
        DB 165
        DB 166
        DB 164
        DB 252
        DB 36
        DB 36
        DB 36
        DB 4
        DB 0
        DB 128
        DB 96
        DB 31
        DB 128
        DB 128
        DB 66
        DB 70
        DB 42
        DB 18
        DB 18
        DB 42
        DB 38
        DB 66
        DB 192
        DB 64
        DB 0
        DB 0
        DB 0
        DB 0
        DB 0
        DB 0
        DB 0
        DB 0
        DB 0
        DB 0
        DB 0
        DB 0
        DB 0
        DB 0
        DB 0
        DB 0
        DB 0
        DB 0
        DB 0
        DB 54
        DB 54
        DB 0
        DB 0
        DB 0
        DB 0
        DB 0
        DB 0
        DB 0
        DB 0
        DB 0
        DB 0
        DB 0
        DB 0
        DB 16
        DB 96
        DB 2
        DB 204
        DB 0
        DB 0
        DB 62
        DB 42
        DB 170
        DB 42
        DB 170
        DB 42
        DB 62
        DB 0
        DB 0
        DB 0
        DB 8
        DB 8
        DB 254
        DB 1
        DB 64
        DB 66
        DB 76
        DB 64
        DB 127
        DB 64
        DB 127
        DB 72
        DB 68
        DB 66
        DB 64
        DB 0

        RSEG BANK_RELAYS:CODE:REORDER:NOROOT(0)
??HalLcdInit?relay:
        LCALL   ?BDISPATCH
        DATA
        DC24    HalLcdInit

        RSEG BANK_RELAYS:CODE:REORDER:NOROOT(0)
??HalLcdWriteValue?relay:
        LCALL   ?BDISPATCH
        DATA
        DC24    HalLcdWriteValue

        RSEG BANK_RELAYS:CODE:REORDER:NOROOT(0)
??HalLcdWriteScreen?relay:
        LCALL   ?BDISPATCH
        DATA
        DC24    HalLcdWriteScreen

        RSEG BANK_RELAYS:CODE:REORDER:NOROOT(0)
??HalLcdWriteStringValue?relay:
        LCALL   ?BDISPATCH
        DATA
        DC24    HalLcdWriteStringValue

        RSEG BANK_RELAYS:CODE:REORDER:NOROOT(0)
??HalLcdWriteStringValueValue?relay:
        LCALL   ?BDISPATCH
        DATA
        DC24    HalLcdWriteStringValueValue

        RSEG BANK_RELAYS:CODE:REORDER:NOROOT(0)
??DelayMS?relay:
        LCALL   ?BDISPATCH
        DATA
        DC24    DelayMS

        RSEG BANK_RELAYS:CODE:REORDER:NOROOT(0)
??LCD_DLY_ms?relay:
        LCALL   ?BDISPATCH
        DATA
        DC24    LCD_DLY_ms

        RSEG BANK_RELAYS:CODE:REORDER:NOROOT(0)
??LCD_WrDat?relay:
        LCALL   ?BDISPATCH
        DATA
        DC24    LCD_WrDat

        RSEG BANK_RELAYS:CODE:REORDER:NOROOT(0)
??LCD_WrCmd?relay:
        LCALL   ?BDISPATCH
        DATA
        DC24    LCD_WrCmd

        RSEG BANK_RELAYS:CODE:REORDER:NOROOT(0)
??LCD_Set_Pos?relay:
        LCALL   ?BDISPATCH
        DATA
        DC24    LCD_Set_Pos

        RSEG BANK_RELAYS:CODE:REORDER:NOROOT(0)
??LCD_Fill?relay:
        LCALL   ?BDISPATCH
        DATA
        DC24    LCD_Fill

        RSEG BANK_RELAYS:CODE:REORDER:NOROOT(0)
??LCD_CLS?relay:
        LCALL   ?BDISPATCH
        DATA
        DC24    LCD_CLS

        RSEG BANK_RELAYS:CODE:REORDER:NOROOT(0)
??LcdClearLine?relay:
        LCALL   ?BDISPATCH
        DATA
        DC24    LcdClearLine

        RSEG BANK_RELAYS:CODE:REORDER:NOROOT(0)
??HalLcdWriteString?relay:
        LCALL   ?BDISPATCH
        DATA
        DC24    HalLcdWriteString

        RSEG BANK_RELAYS:CODE:REORDER:NOROOT(0)
??LCD_P8x16Str?relay:
        LCALL   ?BDISPATCH
        DATA
        DC24    LCD_P8x16Str

        RSEG BANK_RELAYS:CODE:REORDER:NOROOT(0)
??LCD_P16x16Ch?relay:
        LCALL   ?BDISPATCH
        DATA
        DC24    LCD_P16x16Ch

        RSEG BANK_RELAYS:CODE:REORDER:NOROOT(0)
??HalLcd_HW_WaitUs?relay:
        LCALL   ?BDISPATCH
        DATA
        DC24    HalLcd_HW_WaitUs

        RSEG BANK_RELAYS:CODE:REORDER:NOROOT(0)
??HalLcd_HW_Init?relay:
        LCALL   ?BDISPATCH
        DATA
        DC24    HalLcd_HW_Init

        END
//  548 
//  549 
//  550 #endif
// 
// 1 536 bytes in segment BANKED_CODE
//   108 bytes in segment BANK_RELAYS
//     6 bytes in segment SFR_AN
//   128 bytes in segment XDATA_I
//   128 bytes in segment XDATA_ID
// 1 520 bytes in segment XDATA_ROM_C
// 
// 1 772 bytes of CODE  memory
// 1 520 bytes of CONST memory
//     0 bytes of DATA  memory (+ 6 bytes shared)
//   128 bytes of XDATA memory
//
//Errors: none
//Warnings: none
