###############################################################################
#                                                                             #
# IAR C/C++ Compiler V8.10.3.10338/W32 for 8051         06/Aug/2016  17:34:36 #
# Copyright 2004-2011 IAR Systems AB.                                         #
#                                                                             #
#    Core               =  plain                                              #
#    Code model         =  banked                                             #
#    Data model         =  large                                              #
#    Calling convention =  xdata reentrant                                    #
#    Constant location  =  data_rom                                           #
#    Dptr setup         =  1,16                                               #
#    Source file        =  C:\Users\zhuyi\Desktop\2016 µçÈü                   #
#                          ¾öÈü\8.6\Components\zmac\f8w\zmac_cb.c             #
#    Command line       =  -f "C:\Users\zhuyi\Desktop\2016 µçÈü               #
#                          ¾öÈü\8.6\Projects\zstack\Utilities\SerialApp\CC253 #
#                          0DB\..\..\..\Tools\CC2530DB\f8wEndev.cfg"          #
#                          (-DCPU32MHZ -DROOT=__near_func -DBLINK_LEDS) -f    #
#                          "C:\Users\zhuyi\Desktop\2016 µçÈü                  #
#                          ¾öÈü\8.6\Projects\zstack\Utilities\SerialApp\CC253 #
#                          0DB\..\..\..\Tools\CC2530DB\f8wConfig.cfg"         #
#                          (-DSECURE=0 -DZG_SECURE_DYNAMIC=0 -DREFLECTOR      #
#                          -DDEFAULT_CHANLIST=0x00000800                      #
#                          -DZDAPP_CONFIG_PAN_ID=0xFFF1                       #
#                          -DNWK_START_DELAY=100 -DEXTENDED_JOINING_RANDOM_MA #
#                          SK=0x007F -DBEACON_REQUEST_DELAY=100               #
#                          -DBEACON_REQ_DELAY_MASK=0x00FF                     #
#                          -DROUTE_EXPIRY_TIME=30 -DAPSC_ACK_WAIT_DURATION_PO #
#                          LLED=3000 -DNWK_INDIRECT_MSG_TIMEOUT=7             #
#                          -DMAX_RREQ_ENTRIES=8 -DAPSC_MAX_FRAME_RETRIES=3    #
#                          -DNWK_MAX_DATA_RETRIES=2                           #
#                          -DMAX_POLL_FAILURE_RETRIES=2 -DMAX_BCAST=9         #
#                          -DAPS_MAX_GROUPS=16 -DMAX_RTG_ENTRIES=40           #
#                          -DNWK_MAX_BINDING_ENTRIES=4                        #
#                          -DMAX_BINDING_CLUSTER_IDS=4 "-DDEFAULT_KEY={0x01,  #
#                          0x03, 0x05, 0x07, 0x09, 0x0B, 0x0D, 0x0F, 0x00,    #
#                          0x02, 0x04, 0x06, 0x08, 0x0A, 0x0C, 0x0D}"         #
#                          -DMAC_MAX_FRAME_SIZE=116 "-DCONST=const __code"    #
#                          -DGENERIC=__generic -DRFD_RCVC_ALWAYS_ON=FALSE     #
#                          -DPOLL_RATE=1000 -DQUEUED_POLL_RATE=100            #
#                          -DRESPONSE_POLL_RATE=100) -DREJOIN_POLL_RATE=440   #
#                          "C:\Users\zhuyi\Desktop\2016 µçÈü                  #
#                          ¾öÈü\8.6\Components\zmac\f8w\zmac_cb.c" -D         #
#                          ZIGBEEPRO -D NWK_AUTO_POLL -D HAL_UART=TRUE -D     #
#                          SERIAL_APP_PORT=0 -D LCD_SUPPORTED -D              #
#                          xPOWER_SAVING -lC "C:\Users\zhuyi\Desktop\2016     #
#                          µçÈü  ¾öÈü\8.6\Projects\zstack\Utilities\SerialApp #
#                          \CC2530DB\EndDeviceEB-Pro\List\" -lA               #
#                          "C:\Users\zhuyi\Desktop\2016 µçÈü                  #
#                          ¾öÈü\8.6\Projects\zstack\Utilities\SerialApp\CC253 #
#                          0DB\EndDeviceEB-Pro\List\" --diag_suppress         #
#                          Pe001,Pa010 -o "C:\Users\zhuyi\Desktop\2016 µçÈü   #
#                          ¾öÈü\8.6\Projects\zstack\Utilities\SerialApp\CC253 #
#                          0DB\EndDeviceEB-Pro\Obj\" -e --no_unroll           #
#                          --no_inline --no_tbaa --debug --core=plain         #
#                          --dptr=16,1 --data_model=large                     #
#                          --code_model=banked --calling_convention=xdata_ree #
#                          ntrant --place_constants=data_rom                  #
#                          --nr_virtual_regs 8 -I "C:\Users\zhuyi\Desktop\201 #
#                          6 µçÈü  ¾öÈü\8.6\Projects\zstack\Utilities\SerialA #
#                          pp\CC2530DB\" -I "C:\Users\zhuyi\Desktop\2016      #
#                          µçÈü  ¾öÈü\8.6\Projects\zstack\Utilities\SerialApp #
#                          \CC2530DB\..\SOURCE\" -I                           #
#                          "C:\Users\zhuyi\Desktop\2016 µçÈü                  #
#                          ¾öÈü\8.6\Projects\zstack\Utilities\SerialApp\CC253 #
#                          0DB\..\..\..\ZMAIN\TI2530DB\" -I                   #
#                          "C:\Users\zhuyi\Desktop\2016 µçÈü                  #
#                          ¾öÈü\8.6\Projects\zstack\Utilities\SerialApp\CC253 #
#                          0DB\..\..\..\..\..\COMPONENTS\MT\" -I              #
#                          "C:\Users\zhuyi\Desktop\2016 µçÈü                  #
#                          ¾öÈü\8.6\Projects\zstack\Utilities\SerialApp\CC253 #
#                          0DB\..\..\..\..\..\COMPONENTS\HAL\INCLUDE\" -I     #
#                          "C:\Users\zhuyi\Desktop\2016 µçÈü                  #
#                          ¾öÈü\8.6\Projects\zstack\Utilities\SerialApp\CC253 #
#                          0DB\..\..\..\..\..\COMPONENTS\HAL\TARGET\CC2530EB\ #
#                          " -I "C:\Users\zhuyi\Desktop\2016 µçÈü             #
#                          ¾öÈü\8.6\Projects\zstack\Utilities\SerialApp\CC253 #
#                          0DB\..\..\..\..\..\COMPONENTS\OSAL\MCU\CCSOC\" -I  #
#                          "C:\Users\zhuyi\Desktop\2016 µçÈü                  #
#                          ¾öÈü\8.6\Projects\zstack\Utilities\SerialApp\CC253 #
#                          0DB\..\..\..\..\..\COMPONENTS\OSAL\INCLUDE\" -I    #
#                          "C:\Users\zhuyi\Desktop\2016 µçÈü                  #
#                          ¾öÈü\8.6\Projects\zstack\Utilities\SerialApp\CC253 #
#                          0DB\..\..\..\..\..\COMPONENTS\STACK\AF\" -I        #
#                          "C:\Users\zhuyi\Desktop\2016 µçÈü                  #
#                          ¾öÈü\8.6\Projects\zstack\Utilities\SerialApp\CC253 #
#                          0DB\..\..\..\..\..\COMPONENTS\STACK\NWK\" -I       #
#                          "C:\Users\zhuyi\Desktop\2016 µçÈü                  #
#                          ¾öÈü\8.6\Projects\zstack\Utilities\SerialApp\CC253 #
#                          0DB\..\..\..\..\..\COMPONENTS\STACK\SEC\" -I       #
#                          "C:\Users\zhuyi\Desktop\2016 µçÈü                  #
#                          ¾öÈü\8.6\Projects\zstack\Utilities\SerialApp\CC253 #
#                          0DB\..\..\..\..\..\COMPONENTS\STACK\SAPI\" -I      #
#                          "C:\Users\zhuyi\Desktop\2016 µçÈü                  #
#                          ¾öÈü\8.6\Projects\zstack\Utilities\SerialApp\CC253 #
#                          0DB\..\..\..\..\..\COMPONENTS\STACK\SYS\" -I       #
#                          "C:\Users\zhuyi\Desktop\2016 µçÈü                  #
#                          ¾öÈü\8.6\Projects\zstack\Utilities\SerialApp\CC253 #
#                          0DB\..\..\..\..\..\COMPONENTS\STACK\ZDO\" -I       #
#                          "C:\Users\zhuyi\Desktop\2016 µçÈü                  #
#                          ¾öÈü\8.6\Projects\zstack\Utilities\SerialApp\CC253 #
#                          0DB\..\..\..\..\..\COMPONENTS\ZMAC\F8W\" -I        #
#                          "C:\Users\zhuyi\Desktop\2016 µçÈü                  #
#                          ¾öÈü\8.6\Projects\zstack\Utilities\SerialApp\CC253 #
#                          0DB\..\..\..\..\..\COMPONENTS\ZMAC\" -I            #
#                          "C:\Users\zhuyi\Desktop\2016 µçÈü                  #
#                          ¾öÈü\8.6\Projects\zstack\Utilities\SerialApp\CC253 #
#                          0DB\..\..\..\..\..\COMPONENTS\SERVICES\SADDR\" -I  #
#                          "C:\Users\zhuyi\Desktop\2016 µçÈü                  #
#                          ¾öÈü\8.6\Projects\zstack\Utilities\SerialApp\CC253 #
#                          0DB\..\..\..\..\..\COMPONENTS\SERVICES\SDATA\" -I  #
#                          "C:\Users\zhuyi\Desktop\2016 µçÈü                  #
#                          ¾öÈü\8.6\Projects\zstack\Utilities\SerialApp\CC253 #
#                          0DB\..\..\..\..\..\COMPONENTS\MAC\INCLUDE\" -I     #
#                          "C:\Users\zhuyi\Desktop\2016 µçÈü                  #
#                          ¾öÈü\8.6\Projects\zstack\Utilities\SerialApp\CC253 #
#                          0DB\..\..\..\..\..\COMPONENTS\MAC\HIGH_LEVEL\" -I  #
#                          "C:\Users\zhuyi\Desktop\2016 µçÈü                  #
#                          ¾öÈü\8.6\Projects\zstack\Utilities\SerialApp\CC253 #
#                          0DB\..\..\..\..\..\COMPONENTS\MAC\LOW_LEVEL\srf04\ #
#                          " -I "C:\Users\zhuyi\Desktop\2016 µçÈü             #
#                          ¾öÈü\8.6\Projects\zstack\Utilities\SerialApp\CC253 #
#                          0DB\..\..\..\..\..\COMPONENTS\MAC\LOW_LEVEL\srf04\ #
#                          SINGLE_CHIP\" -Om --require_prototypes             #
#    List file          =  C:\Users\zhuyi\Desktop\2016 µçÈü                   #
#                          ¾öÈü\8.6\Projects\zstack\Utilities\SerialApp\CC253 #
#                          0DB\EndDeviceEB-Pro\List\zmac_cb.lst               #
#    Object file        =  C:\Users\zhuyi\Desktop\2016 µçÈü                   #
#                          ¾öÈü\8.6\Projects\zstack\Utilities\SerialApp\CC253 #
#                          0DB\EndDeviceEB-Pro\Obj\zmac_cb.r51                #
#                                                                             #
#                                                                             #
###############################################################################

C:\Users\zhuyi\Desktop\2016 µçÈü  ¾öÈü\8.6\Components\zmac\f8w\zmac_cb.c
      1          /**************************************************************************************************
      2            Filename:       zmac_cb.c
      3            Revised:        $Date: 2009-03-06 14:52:01 -0800 (Fri, 06 Mar 2009) $
      4            Revision:       $Revision: 19326 $
      5          
      6            Description:    This file contains the NWK functions that the ZMAC calls
      7          
      8          
      9            Copyright 2005-2009 Texas Instruments Incorporated. All rights reserved.
     10          
     11            IMPORTANT: Your use of this Software is limited to those specific rights
     12            granted under the terms of a software license agreement between the user
     13            who downloaded the software, his/her employer (which must be your employer)
     14            and Texas Instruments Incorporated (the "License").  You may not use this
     15            Software unless you agree to abide by the terms of the License. The License
     16            limits your use, and you acknowledge, that the Software may not be modified,
     17            copied or distributed unless embedded on a Texas Instruments microcontroller
     18            or used solely and exclusively in conjunction with a Texas Instruments radio
     19            frequency transceiver, which is integrated into your product.  Other than for
     20            the foregoing purpose, you may not use, reproduce, copy, prepare derivative
     21            works of, modify, distribute, perform, display or sell this Software and/or
     22            its documentation for any purpose.
     23          
     24            YOU FURTHER ACKNOWLEDGE AND AGREE THAT THE SOFTWARE AND DOCUMENTATION ARE
     25            PROVIDED “AS IS” WITHOUT WARRANTY OF ANY KIND, EITHER EXPRESS OR IMPLIED, 
     26            INCLUDING WITHOUT LIMITATION, ANY WARRANTY OF MERCHANTABILITY, TITLE, 
     27            NON-INFRINGEMENT AND FITNESS FOR A PARTICULAR PURPOSE. IN NO EVENT SHALL
     28            TEXAS INSTRUMENTS OR ITS LICENSORS BE LIABLE OR OBLIGATED UNDER CONTRACT,
     29            NEGLIGENCE, STRICT LIABILITY, CONTRIBUTION, BREACH OF WARRANTY, OR OTHER
     30            LEGAL EQUITABLE THEORY ANY DIRECT OR INDIRECT DAMAGES OR EXPENSES
     31            INCLUDING BUT NOT LIMITED TO ANY INCIDENTAL, SPECIAL, INDIRECT, PUNITIVE
     32            OR CONSEQUENTIAL DAMAGES, LOST PROFITS OR LOST DATA, COST OF PROCUREMENT
     33            OF SUBSTITUTE GOODS, TECHNOLOGY, SERVICES, OR ANY CLAIMS BY THIRD PARTIES
     34            (INCLUDING BUT NOT LIMITED TO ANY DEFENSE THEREOF), OR OTHER SIMILAR COSTS.
     35          
     36            Should you have any questions regarding your right to use this Software,
     37            contact Texas Instruments Incorporated at www.TI.com. 
     38          **************************************************************************************************/
     39          
     40          /********************************************************************************************************
     41           *                                               INCLUDES
     42           ********************************************************************************************************/
     43          
     44          #include "ZComDef.h"
     45          #include "OSAL.h"
     46          #include "ZMAC.h"
     47          #include "MT_MAC.h"
     48          #include "hal_mcu.h"

   \                                 In  segment SFR_AN, at 0xa8
   \   union <unnamed> volatile __sfr _A_IEN0
   \                     _A_IEN0:
   \   000000                DS 1
     49          
     50          #if !defined NONWK
     51          #include "nwk.h"
     52          #include "nwk_bufs.h"
     53          #include "ZGlobals.h"
     54          #endif
     55          
     56          #if defined( MACSIM )
     57            #include "mac_sim.h"
     58          #endif
     59          
     60          #include "mac_main.h"
     61          extern void *ZMac_ScanBuf;
     62          
     63          /********************************************************************************************************
     64           *                                               CONSTANTS
     65           ********************************************************************************************************/
     66          
     67          #if !defined NONWK
     68          /* Lookup table for size of structures. Must match with the order of MAC callback events */

   \                                 In  segment CODE_C, align 1
     69          const uint8 CODE zmacCBSizeTable [] = {
   \                     zmacCBSizeTable:
   \   000000   00           DB 0
   \   000001   16           DB 22
   \   000002   0F           DB 15
   \   000003   00           DB 0
   \   000004   00           DB 0
   \   000005   0B           DB 11
   \   000006   15           DB 21
   \   000007   0B           DB 11
   \   000008   02           DB 2
   \   000009   00           DB 0
   \   00000A   02           DB 2
   \   00000B   22           DB 34
   \   00000C   0F           DB 15
   \   00000D   32           DB 50
   \   00000E   00           DB 0
   \   00000F   00           DB 0
   \   000010   06           DB 6
     70            0,
     71            sizeof(ZMacAssociateInd_t),       // MAC_MLME_ASSOCIATE_IND      1   Associate indication
     72            sizeof(ZMacAssociateCnf_t),       // MAC_MLME_ASSOCIATE_CNF      2   Associate confirm
     73            0,                                // MAC_MLME_DISASSOCIATE_IND   3   Disassociate indication
     74            0,                                // MAC_MLME_DISASSOCIATE_CNF   4   Disassociate confirm
     75            sizeof(macMlmeBeaconNotifyInd_t), // MAC_MLME_BEACON_NOTIFY_IND  5   con notify indication
     76            sizeof(ZMacOrphanInd_t),          // MAC_MLME_ORPHAN_IND         6   Orphan indication
     77            sizeof(ZMacScanCnf_t),            // MAC_MLME_SCAN_CNF           7   Scan confirm
     78            sizeof(ZMacStartCnf_t),           // MAC_MLME_START_CNF          8   Start confirm
     79            0,                                // MAC_MLME_SYNC_LOSS_IND      9   Sync loss indication
     80            sizeof(ZMacPollCnf_t),            // MAC_MLME_POLL_CNF           10  Poll confirm
     81            sizeof(ZMacCommStatusInd_t),      // MAC_MLME_COMM_STATUS_IND    11  Comm status indication
     82            sizeof(ZMacDataCnf_t),            // MAC_MCPS_DATA_CNF           12  Data confirm
     83            sizeof(macMcpsDataInd_t),         // MAC_MCPS_DATA_IND           13  Data indication
     84            0,                                // MAC_MCPS_PURGE_CNF          14  Purge confirm
     85            0,                                // MAC_PWR_ON_CNF              15  Power on confirm
     86            sizeof(ZMacPollInd_t)             // MAC_MLME_POLL_IND           16  Poll indication
     87          };
     88          #endif /* !defined NONWK */
     89          
     90          
     91          /*********************************************************************
     92           * ZMAC Function Pointers
     93           */
     94          
     95          /*
     96           * ZMac Application callback function. This function will be called
     97           * for every MAC message that is received over-the-air or generated
     98           * locally by MAC for the application.
     99           *
    100           * The callback function should return TRUE if it has handled the
    101           * MAC message and no further action should be taken with it. It 
    102           * should return FALSE if it has not handled the MAC message and
    103           * normal processing should take place.
    104           *
    105           * NOTE: The processing in this function should be kept to the
    106           *       minimum.
    107           */

   \                                 In  segment XDATA_Z, align 1, keep-with-next
    108          uint8 (*pZMac_AppCallback)( uint8 *msgPtr ) = (void*)NULL;
   \                     pZMac_AppCallback:
   \   000000                DS 2
   \   000002                REQUIRE __INIT_XDATA_Z
    109          
    110          
    111          /*********************************************************************
    112           * ZMAC Functions
    113           */
    114          
    115          /**************************************************************************************************
    116           * @fn       MAC_CbackEvent()
    117           *
    118           * @brief    convert MAC data confirm and indication to ZMac and send to NWK
    119           *
    120           * @param    pData - pointer to macCbackEvent_t
    121           *
    122           * @return   none
    123           *************************************************************************************************/

   \                                 In  segment BANKED_CODE, align 1, keep-with-next
    124          void MAC_CbackEvent(macCbackEvent_t *pData)
   \                     MAC_CbackEvent:
    125          #ifndef MT_MAC_CB_FUNC
    126          {
   \   000000   74F0         MOV     A,#-0x10
   \   000002   12....       LCALL   ?BANKED_ENTER_XDATA
   \   000005                ; Saved register size: 16
   \   000005                ; Auto size: 5
   \   000005   74FB         MOV     A,#-0x5
   \   000007   12....       LCALL   ?ALLOC_XSTACK8
   \   00000A   7401         MOV     A,#0x1
   \   00000C   12....       LCALL   ?XSTACK_DISP0_8
   \   00000F   EA           MOV     A,R2
   \   000010   F0           MOVX    @DPTR,A
   \   000011   A3           INC     DPTR
   \   000012   EB           MOV     A,R3
   \   000013   F0           MOVX    @DPTR,A
    127          #if !defined NONWK
    128            uint8 event = pData->hdr.event;
   \   000014   7401         MOV     A,#0x1
   \   000016   12....       LCALL   ?XSTACK_DISP0_8
   \   000019   E0           MOVX    A,@DPTR
   \   00001A   F8           MOV     R0,A
   \   00001B   A3           INC     DPTR
   \   00001C   E0           MOVX    A,@DPTR
   \   00001D   F583         MOV     DPH,A
   \   00001F   8882         MOV     DPL,R0
   \   000021   E0           MOVX    A,@DPTR
   \   000022   85..82       MOV     DPL,?XSP + 0
   \   000025   85..83       MOV     DPH,?XSP + 1
   \   000028   F0           MOVX    @DPTR,A
    129            uint16 tmp = zmacCBSizeTable[event];
   \   000029   E0           MOVX    A,@DPTR
   \   00002A   F8           MOV     R0,A
   \   00002B   74..         MOV     A,#zmacCBSizeTable & 0xff
   \   00002D   28           ADD     A,R0
   \   00002E   F582         MOV     DPL,A
   \   000030   74..         MOV     A,#(zmacCBSizeTable >> 8) & 0xff
   \   000032   3400         ADDC    A,#0x0
   \   000034   F583         MOV     DPH,A
   \   000036   E4           CLR     A
   \   000037   93           MOVC    A,@A+DPTR
   \   000038   FE           MOV     R6,A
   \   000039   7403         MOV     A,#0x3
   \   00003B   12....       LCALL   ?XSTACK_DISP0_8
   \   00003E   EE           MOV     A,R6
   \   00003F   F0           MOVX    @DPTR,A
   \   000040   A3           INC     DPTR
   \   000041   E4           CLR     A
   \   000042   F0           MOVX    @DPTR,A
    130            macCbackEvent_t *msgPtr;
    131          
    132            /* If the Network layer will handle a new MAC callback, a non-zero value must be entered in the
    133             * corresponding location in the zmacCBSizeTable[] - thus the table acts as "should handle"?
    134             */
    135            if (tmp == 0)
   \   000043   7403         MOV     A,#0x3
   \   000045   12....       LCALL   ?XSTACK_DISP0_8
   \   000048   E0           MOVX    A,@DPTR
   \   000049   F8           MOV     R0,A
   \   00004A   A3           INC     DPTR
   \   00004B   E0           MOVX    A,@DPTR
   \   00004C   F9           MOV     R1,A
   \   00004D   E8           MOV     A,R0
   \   00004E   49           ORL     A,R1
   \   00004F   7003         JNZ     $+5
   \   000051   02....       LJMP    ??MAC_CbackEvent_0 & 0xFFFF
    136            {
    137              return;
    138            }
    139          
    140            // MAC_MCPS_DATA_IND is very special - it is the only event where the MAC does not free *pData.
    141            if ( event == MAC_MCPS_DATA_IND )
   \   000054   85..82       MOV     DPL,?XSP + 0
   \   000057   85..83       MOV     DPH,?XSP + 1
   \   00005A   E0           MOVX    A,@DPTR
   \   00005B   640D         XRL     A,#0xd
   \   00005D   7056         JNZ     ??MAC_CbackEvent_1
    142            {
    143              MAC_MlmeGetReq( MAC_SHORT_ADDRESS, &tmp );
   \   00005F                ; Setup parameters for call to function MAC_MlmeGetReq
   \   00005F   7403         MOV     A,#0x3
   \   000061   12....       LCALL   ?XSTACK_DISP0_8
   \   000064   AA82         MOV     R2,DPL
   \   000066   AB83         MOV     R3,DPH
   \   000068   7953         MOV     R1,#0x53
   \   00006A   12....       LCALL   ??MAC_MlmeGetReq?relay
    144              if ((tmp == INVALID_NODE_ADDR) || (tmp == NWK_BROADCAST_SHORTADDR_DEVALL) ||
    145                  (pData->dataInd.msdu.len == 0))
   \   00006D   7403         MOV     A,#0x3
   \   00006F   12....       LCALL   ?XSTACK_DISP0_8
   \   000072   E0           MOVX    A,@DPTR
   \   000073   64FE         XRL     A,#0xfe
   \   000075   7003         JNZ     ??MAC_CbackEvent_2
   \   000077   A3           INC     DPTR
   \   000078   E0           MOVX    A,@DPTR
   \   000079   F4           CPL     A
   \                     ??MAC_CbackEvent_2:
   \   00007A   6022         JZ      ??MAC_CbackEvent_3
   \   00007C   7403         MOV     A,#0x3
   \   00007E   12....       LCALL   ?XSTACK_DISP0_8
   \   000081   E0           MOVX    A,@DPTR
   \   000082   F4           CPL     A
   \   000083   7003         JNZ     ??MAC_CbackEvent_4
   \   000085   A3           INC     DPTR
   \   000086   E0           MOVX    A,@DPTR
   \   000087   F4           CPL     A
   \                     ??MAC_CbackEvent_4:
   \   000088   6014         JZ      ??MAC_CbackEvent_3
   \   00008A   7401         MOV     A,#0x1
   \   00008C   12....       LCALL   ?XSTACK_DISP0_8
   \   00008F   E0           MOVX    A,@DPTR
   \   000090   F8           MOV     R0,A
   \   000091   A3           INC     DPTR
   \   000092   E0           MOVX    A,@DPTR
   \   000093   F583         MOV     DPH,A
   \   000095   8882         MOV     DPL,R0
   \   000097   A3           INC     DPTR
   \   000098   A3           INC     DPTR
   \   000099   A3           INC     DPTR
   \   00009A   A3           INC     DPTR
   \   00009B   E0           MOVX    A,@DPTR
   \   00009C   7008         JNZ     ??MAC_CbackEvent_5
    146              {
    147                osal_msg_deallocate( (uint8 *)pData );
   \                     ??MAC_CbackEvent_3:
   \   00009E                ; Setup parameters for call to function osal_msg_deallocate
   \   00009E   7401         MOV     A,#0x1
   \   0000A0   12....       LCALL   ?XSTACK_DISP0_8
   \   0000A3   02....       LJMP    ??MAC_CbackEvent_6 & 0xFFFF
    148                return;
    149              }
    150              msgPtr = pData;
   \                     ??MAC_CbackEvent_5:
   \   0000A6   7401         MOV     A,#0x1
   \   0000A8   12....       LCALL   ?XSTACK_DISP0_8
   \   0000AB   E0           MOVX    A,@DPTR
   \   0000AC   F5..         MOV     ?V0 + 4,A
   \   0000AE   A3           INC     DPTR
   \   0000AF   E0           MOVX    A,@DPTR
   \   0000B0   F5..         MOV     ?V0 + 5,A
   \   0000B2   02....       LJMP    ??MAC_CbackEvent_7 & 0xFFFF
    151            }
    152            else
    153            {
    154              if (event == MAC_MLME_BEACON_NOTIFY_IND )
   \                     ??MAC_CbackEvent_1:
   \   0000B5   E0           MOVX    A,@DPTR
   \   0000B6   6405         XRL     A,#0x5
   \   0000B8   701F         JNZ     ??MAC_CbackEvent_8
    155              {
    156                tmp += sizeof(macPanDesc_t) + pData->beaconNotifyInd.sduLength;
   \   0000BA   7401         MOV     A,#0x1
   \   0000BC   12....       LCALL   ?XSTACK_DISP0_8
   \   0000BF   E0           MOVX    A,@DPTR
   \   0000C0   F8           MOV     R0,A
   \   0000C1   A3           INC     DPTR
   \   0000C2   E0           MOVX    A,@DPTR
   \   0000C3   F583         MOV     DPH,A
   \   0000C5   8882         MOV     DPL,R0
   \   0000C7   A3           INC     DPTR
   \   0000C8   A3           INC     DPTR
   \   0000C9   A3           INC     DPTR
   \   0000CA   A3           INC     DPTR
   \   0000CB   A3           INC     DPTR
   \   0000CC   A3           INC     DPTR
   \   0000CD   A3           INC     DPTR
   \   0000CE   A3           INC     DPTR
   \   0000CF   E0           MOVX    A,@DPTR
   \   0000D0   2421         ADD     A,#0x21
   \   0000D2   F8           MOV     R0,A
   \   0000D3   E4           CLR     A
   \   0000D4   3400         ADDC    A,#0x0
   \   0000D6   F9           MOV     R1,A
   \   0000D7   8043         SJMP    ??MAC_CbackEvent_9
    157              }
    158              else if (event == MAC_MLME_SCAN_CNF)
   \                     ??MAC_CbackEvent_8:
   \   0000D9   E0           MOVX    A,@DPTR
   \   0000DA   6407         XRL     A,#0x7
   \   0000DC   704A         JNZ     ??MAC_CbackEvent_10
    159              {
    160                if (pData->scanCnf.scanType == ZMAC_ED_SCAN)
   \   0000DE   7401         MOV     A,#0x1
   \   0000E0   12....       LCALL   ?XSTACK_DISP0_8
   \   0000E3   E0           MOVX    A,@DPTR
   \   0000E4   F8           MOV     R0,A
   \   0000E5   A3           INC     DPTR
   \   0000E6   E0           MOVX    A,@DPTR
   \   0000E7   F583         MOV     DPH,A
   \   0000E9   8882         MOV     DPL,R0
   \   0000EB   A3           INC     DPTR
   \   0000EC   A3           INC     DPTR
   \   0000ED   E0           MOVX    A,@DPTR
   \   0000EE   700F         JNZ     ??MAC_CbackEvent_11
    161                {
    162                  tmp += ZMAC_ED_SCAN_MAXCHANNELS;
   \   0000F0   7403         MOV     A,#0x3
   \   0000F2   12....       LCALL   ?XSTACK_DISP0_8
   \   0000F5   E0           MOVX    A,@DPTR
   \   0000F6   241B         ADD     A,#0x1b
   \   0000F8   F0           MOVX    @DPTR,A
   \   0000F9   A3           INC     DPTR
   \   0000FA   E0           MOVX    A,@DPTR
   \   0000FB   3400         ADDC    A,#0x0
   \   0000FD   8028         SJMP    ??MAC_CbackEvent_12
    163                }
    164                else
    165                {
    166                  tmp += sizeof( ZMacPanDesc_t ) * pData->scanCnf.resultListSize;
   \                     ??MAC_CbackEvent_11:
   \   0000FF   7401         MOV     A,#0x1
   \   000101   12....       LCALL   ?XSTACK_DISP0_8
   \   000104   E0           MOVX    A,@DPTR
   \   000105   F8           MOV     R0,A
   \   000106   A3           INC     DPTR
   \   000107   E0           MOVX    A,@DPTR
   \   000108   F583         MOV     DPH,A
   \   00010A   8882         MOV     DPL,R0
   \   00010C   A3           INC     DPTR
   \   00010D   A3           INC     DPTR
   \   00010E   A3           INC     DPTR
   \   00010F   A3           INC     DPTR
   \   000110   A3           INC     DPTR
   \   000111   A3           INC     DPTR
   \   000112   A3           INC     DPTR
   \   000113   A3           INC     DPTR
   \   000114   E0           MOVX    A,@DPTR
   \   000115   75F021       MOV     B,#0x21
   \   000118   A4           MUL     AB
   \   000119   F8           MOV     R0,A
   \   00011A   A9F0         MOV     R1,B
   \                     ??MAC_CbackEvent_9:
   \   00011C   7403         MOV     A,#0x3
   \   00011E   12....       LCALL   ?XSTACK_DISP0_8
   \   000121   E0           MOVX    A,@DPTR
   \   000122   28           ADD     A,R0
   \   000123   F0           MOVX    @DPTR,A
   \   000124   A3           INC     DPTR
   \   000125   E0           MOVX    A,@DPTR
   \   000126   39           ADDC    A,R1
   \                     ??MAC_CbackEvent_12:
   \   000127   F0           MOVX    @DPTR,A
    167                }
    168              }
    169          
    170              if ( !(msgPtr = (macCbackEvent_t *)osal_msg_allocate(tmp)) )
   \                     ??MAC_CbackEvent_10:
   \   000128                ; Setup parameters for call to function osal_msg_allocate
   \   000128   7403         MOV     A,#0x3
   \   00012A   12....       LCALL   ?XSTACK_DISP0_8
   \   00012D   E0           MOVX    A,@DPTR
   \   00012E   FA           MOV     R2,A
   \   00012F   A3           INC     DPTR
   \   000130   E0           MOVX    A,@DPTR
   \   000131   FB           MOV     R3,A
   \   000132   12....       LCALL   ??osal_msg_allocate?relay
   \   000135   8A..         MOV     ?V0 + 4,R2
   \   000137   8B..         MOV     ?V0 + 5,R3
   \   000139   EA           MOV     A,R2
   \   00013A   45..         ORL     A,?V0 + 5
   \   00013C   7070         JNZ     ??MAC_CbackEvent_13
    171              {
    172                // Not enough memory. If data confirm - try again
    173                if ( event == MAC_MCPS_DATA_CNF )
   \   00013E   85..82       MOV     DPL,?XSP + 0
   \   000141   85..83       MOV     DPH,?XSP + 1
   \   000144   E0           MOVX    A,@DPTR
   \   000145   640C         XRL     A,#0xc
   \   000147   6003         JZ      $+5
   \   000149   02....       LJMP    ??MAC_CbackEvent_0 & 0xFFFF
    174                {
    175                  halIntState_t intState;
    176                  
    177                  // This is not normally deallocated here because the pZMac_AppCallback()
    178                  // application may need it.
    179                  HAL_ENTER_CRITICAL_SECTION( intState );  // Hold off interrupts.
   \   00014C   A2AF         MOV     C,0xa8.7
   \   00014E   E4           CLR     A
   \   00014F   33           RLC     A
   \   000150   F5..         MOV     ?V0 + 6,A
   \   000152   C2AF         CLR     0xa8.7
    180          
    181                  /* mark MAC data buffer as reserved so that MAC won't deallocate it */
    182                  macMainReserve( (uint8 *)pData->dataCnf.pDataReq );
   \   000154   7401         MOV     A,#0x1
   \   000156   12....       LCALL   ?XSTACK_DISP0_8
   \   000159   E0           MOVX    A,@DPTR
   \   00015A   2403         ADD     A,#0x3
   \   00015C   F5..         MOV     ?V0 + 0,A
   \   00015E   A3           INC     DPTR
   \   00015F   E0           MOVX    A,@DPTR
   \   000160   3400         ADDC    A,#0x0
   \   000162   F5..         MOV     ?V0 + 1,A
   \   000164                ; Setup parameters for call to function macMainReserve
   \   000164   85..82       MOV     DPL,?V0 + 0
   \   000167   F583         MOV     DPH,A
   \   000169   E0           MOVX    A,@DPTR
   \   00016A   FA           MOV     R2,A
   \   00016B   A3           INC     DPTR
   \   00016C   E0           MOVX    A,@DPTR
   \   00016D   FB           MOV     R3,A
   \   00016E   12....       LCALL   ??macMainReserve?relay
    183                  osal_msg_deallocate( (uint8*)pData->dataCnf.pDataReq );
   \   000171                ; Setup parameters for call to function osal_msg_deallocate
   \   000171   85..82       MOV     DPL,?V0 + 0
   \   000174   85..83       MOV     DPH,?V0 + 1
   \   000177   E0           MOVX    A,@DPTR
   \   000178   FA           MOV     R2,A
   \   000179   A3           INC     DPTR
   \   00017A   E0           MOVX    A,@DPTR
   \   00017B   FB           MOV     R3,A
   \   00017C   12....       LCALL   ??osal_msg_deallocate?relay
    184                  if ( !(msgPtr = (macCbackEvent_t *)osal_msg_allocate(tmp)) )
   \   00017F                ; Setup parameters for call to function osal_msg_allocate
   \   00017F   7403         MOV     A,#0x3
   \   000181   12....       LCALL   ?XSTACK_DISP0_8
   \   000184   E0           MOVX    A,@DPTR
   \   000185   FA           MOV     R2,A
   \   000186   A3           INC     DPTR
   \   000187   E0           MOVX    A,@DPTR
   \   000188   FB           MOV     R3,A
   \   000189   12....       LCALL   ??osal_msg_allocate?relay
   \   00018C   8A..         MOV     ?V0 + 4,R2
   \   00018E   8B..         MOV     ?V0 + 5,R3
   \   000190   EA           MOV     A,R2
   \   000191   45..         ORL     A,?V0 + 5
   \   000193   7009         JNZ     ??MAC_CbackEvent_14
    185                  {
    186                    // Still no allocation, something is wrong
    187                    HAL_EXIT_CRITICAL_SECTION( intState );   // Re-enable interrupts.
   \   000195   E5..         MOV     A,?V0 + 6
   \   000197   A2E0         MOV     C,0xE0 /* A   */.0
   \   000199   92AF         MOV     0xa8.7,C
    188                    return;
   \   00019B   02....       LJMP    ??MAC_CbackEvent_0 & 0xFFFF
    189                  }
    190                  HAL_EXIT_CRITICAL_SECTION( intState );   // Re-enable interrupts.
   \                     ??MAC_CbackEvent_14:
   \   00019E   E5..         MOV     A,?V0 + 6
   \   0001A0   A2E0         MOV     C,0xE0 /* A   */.0
   \   0001A2   92AF         MOV     0xa8.7,C
    191                  pData->dataCnf.pDataReq = NULL;
   \   0001A4   85..82       MOV     DPL,?V0 + 0
   \   0001A7   85..83       MOV     DPH,?V0 + 1
   \   0001AA   E4           CLR     A
   \   0001AB   F0           MOVX    @DPTR,A
   \   0001AC   A3           INC     DPTR
   \   0001AD   F0           MOVX    @DPTR,A
    192                }
    193                else
    194                {     
    195                  // This message is dropped
    196                  return;
    197                }
    198              }
    199              osal_memcpy(msgPtr, pData, zmacCBSizeTable[event]);
   \                     ??MAC_CbackEvent_13:
   \   0001AE                ; Setup parameters for call to function osal_memcpy
   \   0001AE   7401         MOV     A,#0x1
   \   0001B0   12....       LCALL   ?XSTACK_DISP0_8
   \   0001B3   E0           MOVX    A,@DPTR
   \   0001B4   F5..         MOV     ?V0 + 0,A
   \   0001B6   A3           INC     DPTR
   \   0001B7   E0           MOVX    A,@DPTR
   \   0001B8   F5..         MOV     ?V0 + 1,A
   \   0001BA   75..00       MOV     ?V0 + 2,#0x0
   \   0001BD   78..         MOV     R0,#?V0 + 0
   \   0001BF   12....       LCALL   ?PUSH_XSTACK_I_THREE
   \   0001C2   EE           MOV     A,R6
   \   0001C3   FC           MOV     R4,A
   \   0001C4   7D00         MOV     R5,#0x0
   \   0001C6   AA..         MOV     R2,?V0 + 4
   \   0001C8   AB..         MOV     R3,?V0 + 5
   \   0001CA   12....       LCALL   ??osal_memcpy?relay
   \   0001CD   7403         MOV     A,#0x3
   \   0001CF   12....       LCALL   ?DEALLOC_XSTACK8
    200            }
    201          
    202            if ( event == MAC_MLME_BEACON_NOTIFY_IND )
   \                     ??MAC_CbackEvent_7:
   \   0001D2   85..82       MOV     DPL,?XSP + 0
   \   0001D5   85..83       MOV     DPH,?XSP + 1
   \   0001D8   E0           MOVX    A,@DPTR
   \   0001D9   6405         XRL     A,#0x5
   \   0001DB   6003         JZ      $+5
   \   0001DD   02....       LJMP    ??MAC_CbackEvent_15 & 0xFFFF
    203            {
    204              macMlmeBeaconNotifyInd_t *pBeacon = (macMlmeBeaconNotifyInd_t*)msgPtr;
    205          
    206              osal_memcpy(pBeacon+1, pBeacon->pPanDesc, sizeof(macPanDesc_t));
   \   0001E0   E5..         MOV     A,?V0 + 4
   \   0001E2   240B         ADD     A,#0xb
   \   0001E4   F5..         MOV     ?V0 + 6,A
   \   0001E6   E5..         MOV     A,?V0 + 5
   \   0001E8   3400         ADDC    A,#0x0
   \   0001EA   F5..         MOV     ?V0 + 7,A
   \   0001EC                ; Setup parameters for call to function osal_memcpy
   \   0001EC   85..82       MOV     DPL,?V0 + 4
   \   0001EF   85..83       MOV     DPH,?V0 + 5
   \   0001F2   A3           INC     DPTR
   \   0001F3   A3           INC     DPTR
   \   0001F4   A3           INC     DPTR
   \   0001F5   E0           MOVX    A,@DPTR
   \   0001F6   F5..         MOV     ?V0 + 0,A
   \   0001F8   A3           INC     DPTR
   \   0001F9   E0           MOVX    A,@DPTR
   \   0001FA   F5..         MOV     ?V0 + 1,A
   \   0001FC   75..00       MOV     ?V0 + 2,#0x0
   \   0001FF   78..         MOV     R0,#?V0 + 0
   \   000201   12....       LCALL   ?PUSH_XSTACK_I_THREE
   \   000204   7C21         MOV     R4,#0x21
   \   000206   7D00         MOV     R5,#0x0
   \   000208   AA..         MOV     R2,?V0 + 6
   \   00020A   AB..         MOV     R3,?V0 + 7
   \   00020C   12....       LCALL   ??osal_memcpy?relay
   \   00020F   7403         MOV     A,#0x3
   \   000211   12....       LCALL   ?DEALLOC_XSTACK8
    207              pBeacon->pPanDesc = (macPanDesc_t *)(pBeacon+1);
   \   000214   85..82       MOV     DPL,?V0 + 4
   \   000217   85..83       MOV     DPH,?V0 + 5
   \   00021A   A3           INC     DPTR
   \   00021B   A3           INC     DPTR
   \   00021C   A3           INC     DPTR
   \   00021D   E5..         MOV     A,?V0 + 6
   \   00021F   F0           MOVX    @DPTR,A
   \   000220   A3           INC     DPTR
   \   000221   E5..         MOV     A,?V0 + 7
   \   000223   F0           MOVX    @DPTR,A
    208              osal_memcpy(pBeacon->pPanDesc+1, pBeacon->pSdu, pBeacon->sduLength);
   \   000224   E5..         MOV     A,?V0 + 4
   \   000226   2409         ADD     A,#0x9
   \   000228   FE           MOV     R6,A
   \   000229   E5..         MOV     A,?V0 + 5
   \   00022B   3400         ADDC    A,#0x0
   \   00022D   FF           MOV     R7,A
   \   00022E                ; Setup parameters for call to function osal_memcpy
   \   00022E   8E82         MOV     DPL,R6
   \   000230   8F83         MOV     DPH,R7
   \   000232   E0           MOVX    A,@DPTR
   \   000233   F5..         MOV     ?V0 + 0,A
   \   000235   A3           INC     DPTR
   \   000236   E0           MOVX    A,@DPTR
   \   000237   F5..         MOV     ?V0 + 1,A
   \   000239   78..         MOV     R0,#?V0 + 0
   \   00023B   12....       LCALL   ?PUSH_XSTACK_I_THREE
   \   00023E   85..82       MOV     DPL,?V0 + 4
   \   000241   85..83       MOV     DPH,?V0 + 5
   \   000244   A3           INC     DPTR
   \   000245   A3           INC     DPTR
   \   000246   A3           INC     DPTR
   \   000247   A3           INC     DPTR
   \   000248   A3           INC     DPTR
   \   000249   A3           INC     DPTR
   \   00024A   A3           INC     DPTR
   \   00024B   A3           INC     DPTR
   \   00024C   E0           MOVX    A,@DPTR
   \   00024D   FC           MOV     R4,A
   \   00024E   7D00         MOV     R5,#0x0
   \   000250   85..82       MOV     DPL,?V0 + 4
   \   000253   85..83       MOV     DPH,?V0 + 5
   \   000256   A3           INC     DPTR
   \   000257   A3           INC     DPTR
   \   000258   A3           INC     DPTR
   \   000259   E0           MOVX    A,@DPTR
   \   00025A   2421         ADD     A,#0x21
   \   00025C   FA           MOV     R2,A
   \   00025D   A3           INC     DPTR
   \   00025E   E0           MOVX    A,@DPTR
   \   00025F   3400         ADDC    A,#0x0
   \   000261   FB           MOV     R3,A
   \   000262   12....       LCALL   ??osal_memcpy?relay
   \   000265   7403         MOV     A,#0x3
   \   000267   12....       LCALL   ?DEALLOC_XSTACK8
    209              pBeacon->pSdu = (uint8 *)(pBeacon->pPanDesc+1);
   \   00026A   85..82       MOV     DPL,?V0 + 4
   \   00026D   85..83       MOV     DPH,?V0 + 5
   \   000270   A3           INC     DPTR
   \   000271   A3           INC     DPTR
   \   000272   A3           INC     DPTR
   \   000273   E0           MOVX    A,@DPTR
   \   000274   2421         ADD     A,#0x21
   \   000276   F8           MOV     R0,A
   \   000277   A3           INC     DPTR
   \   000278   E0           MOVX    A,@DPTR
   \   000279   3400         ADDC    A,#0x0
   \   00027B   F9           MOV     R1,A
   \   00027C   8E82         MOV     DPL,R6
   \   00027E   8F83         MOV     DPH,R7
   \   000280   E8           MOV     A,R0
   \   000281   F0           MOVX    @DPTR,A
   \   000282   A3           INC     DPTR
   \   000283   E9           MOV     A,R1
   \   000284   02....       LJMP    ??MAC_CbackEvent_16 & 0xFFFF
    210            }
    211            else if (event == MAC_MLME_SCAN_CNF)
   \                     ??MAC_CbackEvent_15:
   \   000287   E0           MOVX    A,@DPTR
   \   000288   6407         XRL     A,#0x7
   \   00028A   6003         JZ      $+5
   \   00028C   02....       LJMP    ??MAC_CbackEvent_17 & 0xFFFF
    212            {
    213              macMlmeScanCnf_t *pScan = (macMlmeScanCnf_t*)msgPtr;
    214          
    215              if (ZMac_ScanBuf != NULL)
   \   00028F   90....       MOV     DPTR,#ZMac_ScanBuf
   \   000292   E0           MOVX    A,@DPTR
   \   000293   F8           MOV     R0,A
   \   000294   A3           INC     DPTR
   \   000295   E0           MOVX    A,@DPTR
   \   000296   F9           MOV     R1,A
   \   000297   E8           MOV     A,R0
   \   000298   49           ORL     A,R1
   \   000299   7003         JNZ     $+5
   \   00029B   02....       LJMP    ??MAC_CbackEvent_17 & 0xFFFF
    216              {
    217                if (pScan->scanType == ZMAC_ED_SCAN)
   \   00029E   E5..         MOV     A,?V0 + 4
   \   0002A0   2409         ADD     A,#0x9
   \   0002A2   FE           MOV     R6,A
   \   0002A3   E5..         MOV     A,?V0 + 5
   \   0002A5   3400         ADDC    A,#0x0
   \   0002A7   FF           MOV     R7,A
   \   0002A8   E5..         MOV     A,?V0 + 4
   \   0002AA   240B         ADD     A,#0xb
   \   0002AC   F5..         MOV     ?V0 + 6,A
   \   0002AE   E5..         MOV     A,?V0 + 5
   \   0002B0   3400         ADDC    A,#0x0
   \   0002B2   F5..         MOV     ?V0 + 7,A
   \   0002B4   85..82       MOV     DPL,?V0 + 4
   \   0002B7   85..83       MOV     DPH,?V0 + 5
   \   0002BA   A3           INC     DPTR
   \   0002BB   A3           INC     DPTR
   \   0002BC   E0           MOVX    A,@DPTR
   \   0002BD   8E82         MOV     DPL,R6
   \   0002BF   8F83         MOV     DPH,R7
   \   0002C1   7028         JNZ     ??MAC_CbackEvent_18
    218                {
    219                  pScan->result.pEnergyDetect = (uint8*) (pScan + 1);
   \   0002C3   E5..         MOV     A,?V0 + 6
   \   0002C5   F0           MOVX    @DPTR,A
   \   0002C6   A3           INC     DPTR
   \   0002C7   E5..         MOV     A,?V0 + 7
   \   0002C9   F0           MOVX    @DPTR,A
    220                  osal_memcpy(pScan->result.pEnergyDetect, ZMac_ScanBuf, ZMAC_ED_SCAN_MAXCHANNELS);
   \   0002CA                ; Setup parameters for call to function osal_memcpy
   \   0002CA   90....       MOV     DPTR,#ZMac_ScanBuf
   \   0002CD   E0           MOVX    A,@DPTR
   \   0002CE   F5..         MOV     ?V0 + 0,A
   \   0002D0   A3           INC     DPTR
   \   0002D1   E0           MOVX    A,@DPTR
   \   0002D2   F5..         MOV     ?V0 + 1,A
   \   0002D4   75..00       MOV     ?V0 + 2,#0x0
   \   0002D7   78..         MOV     R0,#?V0 + 0
   \   0002D9   12....       LCALL   ?PUSH_XSTACK_I_THREE
   \   0002DC   7C1B         MOV     R4,#0x1b
   \   0002DE   7D00         MOV     R5,#0x0
   \   0002E0   8E82         MOV     DPL,R6
   \   0002E2   8F83         MOV     DPH,R7
   \   0002E4   E0           MOVX    A,@DPTR
   \   0002E5   FA           MOV     R2,A
   \   0002E6   A3           INC     DPTR
   \   0002E7   E0           MOVX    A,@DPTR
   \   0002E8   FB           MOV     R3,A
   \   0002E9   8033         SJMP    ??MAC_CbackEvent_19
    221                }
    222                else
    223                {
    224                  pScan->result.pPanDescriptor = (macPanDesc_t*) (pScan + 1);
   \                     ??MAC_CbackEvent_18:
   \   0002EB   E5..         MOV     A,?V0 + 6
   \   0002ED   F0           MOVX    @DPTR,A
   \   0002EE   A3           INC     DPTR
   \   0002EF   E5..         MOV     A,?V0 + 7
   \   0002F1   F0           MOVX    @DPTR,A
    225                  osal_memcpy(pScan + 1, ZMac_ScanBuf, sizeof( ZMacPanDesc_t ) * pScan->resultListSize);
   \   0002F2                ; Setup parameters for call to function osal_memcpy
   \   0002F2   90....       MOV     DPTR,#ZMac_ScanBuf
   \   0002F5   E0           MOVX    A,@DPTR
   \   0002F6   F5..         MOV     ?V0 + 0,A
   \   0002F8   A3           INC     DPTR
   \   0002F9   E0           MOVX    A,@DPTR
   \   0002FA   F5..         MOV     ?V0 + 1,A
   \   0002FC   75..00       MOV     ?V0 + 2,#0x0
   \   0002FF   78..         MOV     R0,#?V0 + 0
   \   000301   12....       LCALL   ?PUSH_XSTACK_I_THREE
   \   000304   85..82       MOV     DPL,?V0 + 4
   \   000307   85..83       MOV     DPH,?V0 + 5
   \   00030A   A3           INC     DPTR
   \   00030B   A3           INC     DPTR
   \   00030C   A3           INC     DPTR
   \   00030D   A3           INC     DPTR
   \   00030E   A3           INC     DPTR
   \   00030F   A3           INC     DPTR
   \   000310   A3           INC     DPTR
   \   000311   A3           INC     DPTR
   \   000312   E0           MOVX    A,@DPTR
   \   000313   75F021       MOV     B,#0x21
   \   000316   A4           MUL     AB
   \   000317   FC           MOV     R4,A
   \   000318   ADF0         MOV     R5,B
   \   00031A   AA..         MOV     R2,?V0 + 6
   \   00031C   AB..         MOV     R3,?V0 + 7
   \                     ??MAC_CbackEvent_19:
   \   00031E   12....       LCALL   ??osal_memcpy?relay
   \   000321   7403         MOV     A,#0x3
   \   000323   12....       LCALL   ?DEALLOC_XSTACK8
    226                }
    227          
    228                osal_mem_free(ZMac_ScanBuf);
   \   000326                ; Setup parameters for call to function osal_mem_free
   \   000326   90....       MOV     DPTR,#ZMac_ScanBuf
   \   000329   E0           MOVX    A,@DPTR
   \   00032A   FA           MOV     R2,A
   \   00032B   A3           INC     DPTR
   \   00032C   E0           MOVX    A,@DPTR
   \   00032D   FB           MOV     R3,A
   \   00032E   12....       LCALL   ??osal_mem_free?relay
    229                ZMac_ScanBuf = NULL;
   \   000331   90....       MOV     DPTR,#ZMac_ScanBuf
   \   000334   E4           CLR     A
   \   000335   F0           MOVX    @DPTR,A
   \   000336   A3           INC     DPTR
   \                     ??MAC_CbackEvent_16:
   \   000337   F0           MOVX    @DPTR,A
    230              }
    231            }
    232          
    233            if ( ( pZMac_AppCallback == NULL ) || ( pZMac_AppCallback( (uint8 *)msgPtr ) == FALSE ) )
   \                     ??MAC_CbackEvent_17:
   \   000338   90....       MOV     DPTR,#pZMac_AppCallback
   \   00033B   E0           MOVX    A,@DPTR
   \   00033C   F8           MOV     R0,A
   \   00033D   A3           INC     DPTR
   \   00033E   E0           MOVX    A,@DPTR
   \   00033F   F9           MOV     R1,A
   \   000340   E8           MOV     A,R0
   \   000341   49           ORL     A,R1
   \   000342   6015         JZ      ??MAC_CbackEvent_20
   \   000344                ; Setup parameters for indirect call
   \   000344   AA..         MOV     R2,?V0 + 4
   \   000346   AB..         MOV     R3,?V0 + 5
   \   000348   90....       MOV     DPTR,#pZMac_AppCallback
   \   00034B   E0           MOVX    A,@DPTR
   \   00034C   F8           MOV     R0,A
   \   00034D   A3           INC     DPTR
   \   00034E   E0           MOVX    A,@DPTR
   \   00034F   F583         MOV     DPH,A
   \   000351   8882         MOV     DPL,R0
   \   000353   12....       LCALL   ?CALL_IND
   \   000356   E9           MOV     A,R1
   \   000357   700C         JNZ     ??MAC_CbackEvent_21
    234            {
    235              // Application hasn't already processed this message. Send it to NWK task.
    236              osal_msg_send( NWK_TaskID, (uint8 *)msgPtr );
   \                     ??MAC_CbackEvent_20:
   \   000359                ; Setup parameters for call to function osal_msg_send
   \   000359   AA..         MOV     R2,?V0 + 4
   \   00035B   AB..         MOV     R3,?V0 + 5
   \   00035D   90....       MOV     DPTR,#NWK_TaskID
   \   000360   E0           MOVX    A,@DPTR
   \   000361   F9           MOV     R1,A
   \   000362   12....       LCALL   ??osal_msg_send?relay
    237            }
    238          
    239            if ( event == MAC_MCPS_DATA_CNF )
   \                     ??MAC_CbackEvent_21:
   \   000365   85..82       MOV     DPL,?XSP + 0
   \   000368   85..83       MOV     DPH,?XSP + 1
   \   00036B   E0           MOVX    A,@DPTR
   \   00036C   640C         XRL     A,#0xc
   \   00036E   702B         JNZ     ??MAC_CbackEvent_0
    240            {
    241              // If the application needs 'pDataReq' then we cannot free it here.
    242              // The application must free it after using it. Note that 'pDataReq'
    243              // is of macMcpsDataReq_t (and not ZMacDataReq_t) type.
    244              
    245              /* mark MAC data buffer as reserved so that MAC won't deallocate it */
    246              macMainReserve( (uint8 *)pData->dataCnf.pDataReq );
   \   000370   7401         MOV     A,#0x1
   \   000372   12....       LCALL   ?XSTACK_DISP0_8
   \   000375   E0           MOVX    A,@DPTR
   \   000376   2403         ADD     A,#0x3
   \   000378   F5..         MOV     ?V0 + 0,A
   \   00037A   A3           INC     DPTR
   \   00037B   E0           MOVX    A,@DPTR
   \   00037C   3400         ADDC    A,#0x0
   \   00037E   F5..         MOV     ?V0 + 1,A
   \   000380                ; Setup parameters for call to function macMainReserve
   \   000380   85..82       MOV     DPL,?V0 + 0
   \   000383   F583         MOV     DPH,A
   \   000385   E0           MOVX    A,@DPTR
   \   000386   FA           MOV     R2,A
   \   000387   A3           INC     DPTR
   \   000388   E0           MOVX    A,@DPTR
   \   000389   FB           MOV     R3,A
   \   00038A   12....       LCALL   ??macMainReserve?relay
    247              osal_msg_deallocate( (uint8*)pData->dataCnf.pDataReq );
   \   00038D                ; Setup parameters for call to function osal_msg_deallocate
   \   00038D   85..82       MOV     DPL,?V0 + 0
   \   000390   85..83       MOV     DPH,?V0 + 1
   \                     ??MAC_CbackEvent_6:
   \   000393   E0           MOVX    A,@DPTR
   \   000394   FA           MOV     R2,A
   \   000395   A3           INC     DPTR
   \   000396   E0           MOVX    A,@DPTR
   \   000397   FB           MOV     R3,A
   \   000398   12....       LCALL   ??osal_msg_deallocate?relay
   \                     ??MAC_CbackEvent_0:
   \   00039B   7405         MOV     A,#0x5
   \   00039D   12....       LCALL   ?DEALLOC_XSTACK8
   \   0003A0   7F08         MOV     R7,#0x8
   \   0003A2   02....       LJMP    ?BANKED_LEAVE_XDATA
   \   0003A5                REQUIRE _A_IEN0
    248            }
    249          #endif
    250          }
    251          #else  // ifdef MT_MAC_CB_FUNC
    252          {
    253            /* Check if MT has subscribed for this callback If so, pass it as an event to MonitorTest */
    254            switch (pData->hdr.event)
    255            {
    256              case MAC_MLME_ASSOCIATE_IND:
    257                if ( _macCallbackSub & CB_ID_NWK_ASSOCIATE_IND )
    258                  nwk_MTCallbackSubNwkAssociateInd ( (ZMacAssociateInd_t *)pData );
    259                break;
    260          
    261              case MAC_MLME_ASSOCIATE_CNF:
    262                if ( _macCallbackSub & CB_ID_NWK_ASSOCIATE_CNF )
    263                  nwk_MTCallbackSubNwkAssociateCnf ( (ZMacAssociateCnf_t *)pData );
    264                break;
    265          
    266              case MAC_MLME_DISASSOCIATE_IND:
    267                if ( _macCallbackSub & CB_ID_NWK_DISASSOCIATE_IND )
    268                  nwk_MTCallbackSubNwkDisassociateInd ( (ZMacDisassociateInd_t *)pData );
    269                break;
    270          
    271              case MAC_MLME_DISASSOCIATE_CNF:
    272                if ( _macCallbackSub & CB_ID_NWK_DISASSOCIATE_CNF )
    273                  nwk_MTCallbackSubNwkDisassociateCnf ( (ZMacDisassociateCnf_t *)pData );
    274                break;
    275          
    276              case MAC_MLME_BEACON_NOTIFY_IND:
    277                if ( _macCallbackSub & CB_ID_NWK_BEACON_NOTIFY_IND )
    278                  nwk_MTCallbackSubNwkBeaconNotifyInd( (ZMacBeaconNotifyInd_t *)pData );
    279                break;
    280          
    281              case MAC_MLME_ORPHAN_IND:
    282                if ( _macCallbackSub & CB_ID_NWK_ORPHAN_IND )
    283                  nwk_MTCallbackSubNwkOrphanInd( (ZMacOrphanInd_t *) pData );
    284                break;
    285          
    286              case MAC_MLME_SCAN_CNF:
    287                if ( _macCallbackSub & CB_ID_NWK_SCAN_CNF )
    288                {
    289                  pData->scanCnf.result.pEnergyDetect = ZMac_ScanBuf;
    290                  nwk_MTCallbackSubNwkScanCnf ( (ZMacScanCnf_t *) pData );
    291                }
    292          
    293                if (ZMac_ScanBuf != NULL)
    294                {
    295                  osal_mem_free(ZMac_ScanBuf);
    296                  ZMac_ScanBuf = NULL;
    297                }
    298                break;
    299          
    300              case MAC_MLME_START_CNF:
    301                if ( _macCallbackSub & CB_ID_NWK_START_CNF )
    302                  nwk_MTCallbackSubNwkStartCnf ( pData->hdr.status );
    303                break;
    304          
    305              case MAC_MLME_SYNC_LOSS_IND:
    306                if ( _macCallbackSub & CB_ID_NWK_SYNC_LOSS_IND )
    307                 nwk_MTCallbackSubNwkSyncLossInd( (ZMacSyncLossInd_t *) pData );
    308                break;
    309          
    310              case MAC_MLME_POLL_CNF:
    311                if ( _macCallbackSub & CB_ID_NWK_POLL_CNF )
    312                   nwk_MTCallbackSubNwkPollCnf( pData->hdr.status );
    313                break;
    314          
    315              case MAC_MLME_COMM_STATUS_IND:
    316                if ( _macCallbackSub & CB_ID_NWK_COMM_STATUS_IND )
    317                  nwk_MTCallbackSubCommStatusInd ( (ZMacCommStatusInd_t *) pData );
    318                break;
    319          
    320              case MAC_MCPS_DATA_CNF:
    321                /* mark MAC data buffer as reserved so that MAC won't deallocate it */
    322                macMainReserve( (uint8 *)pData->dataCnf.pDataReq );
    323                
    324                osal_msg_deallocate((uint8*)pData->dataCnf.pDataReq);
    325          
    326                if ( _macCallbackSub & CB_ID_NWK_DATA_CNF )
    327                  nwk_MTCallbackSubNwkDataCnf( (ZMacDataCnf_t *) pData );
    328                break;
    329          
    330              case MAC_MCPS_DATA_IND:
    331                  {
    332                    /*
    333                       Data Ind is unconventional: to save an alloc/copy, reuse the MAC
    334                       buffer and re-organize the contents into ZMAC format.
    335                    */
    336                    ZMacDataInd_t *pDataInd = (ZMacDataInd_t *) pData;
    337                    uint8 event, status, len, *msdu;
    338          
    339                    /* Store parameters */
    340                    event = pData->hdr.event;
    341                    status = pData->hdr.status;
    342                    len = pData->dataInd.msdu.len;
    343                    msdu = pData->dataInd.msdu.p;
    344          
    345                    /* Copy header */
    346                    osal_memcpy(&pDataInd->SrcAddr, &pData->dataInd.mac, sizeof(ZMacDataInd_t) - sizeof(ZMacEventHdr_t));
    347          
    348                    /* Security - set to zero for now*/
    349                    pDataInd->Sec.SecurityLevel = false;
    350          
    351                    /* Restore parameters */
    352                    pDataInd->hdr.Status = status;
    353                    pDataInd->hdr.Event = event;
    354                    pDataInd->msduLength = len;
    355          
    356                    if (len)
    357                      pDataInd->msdu = msdu;
    358                    else
    359                      pDataInd->msdu = NULL;
    360          
    361                    if ( _macCallbackSub & CB_ID_NWK_DATA_IND )
    362                      nwk_MTCallbackSubNwkDataInd ( pDataInd );
    363          
    364                    /* free buffer */
    365                    osal_msg_deallocate( (uint8 *) pData );
    366                  }
    367                  break;
    368          
    369              case MAC_MCPS_PURGE_CNF:
    370                if ( _macCallbackSub & CB_ID_NWK_PURGE_CNF )
    371                  nwk_MTCallbackSubNwkPurgeCnf( (ZMacPurgeCnf_t *) pData);
    372                break;
    373          
    374              default:
    375                break;
    376            }
    377          }
    378          #endif
    379          
    380          /********************************************************************************************************
    381           * @fn      MAC_CbackCheckPending
    382           *
    383           * @brief   Return number of pending indirect msg
    384           *
    385           * @param   None
    386           *
    387           * @return  Number of indirect msg holding
    388           ********************************************************************************************************/

   \                                 In  segment BANKED_CODE, align 1, keep-with-next
    389          uint8 MAC_CbackCheckPending(void)
   \                     MAC_CbackCheckPending:
    390          {
   \   000000                ; Saved register size: 0
   \   000000                ; Auto size: 0
    391          #if !defined (NONWK) 
    392            if ( ZSTACK_ROUTER_BUILD )
    393            {
    394              return (nwkDB_ReturnIndirectHoldingCnt());
    395            }
    396            else 
    397            {
    398              return (0);
   \   000000   7900         MOV     R1,#0x0
   \   000002   02....       LJMP    ?BRET
    399            }
    400          #else
    401            return (0);
    402          #endif
    403          }

   \                                 In  segment BANK_RELAYS, align 1
   \                     ??MAC_CbackEvent?relay:
   \   000000   12....       LCALL   ?BDISPATCH
   \   000003   ......       DC24    MAC_CbackEvent

   \                                 In  segment BANK_RELAYS, align 1
   \                     ??MAC_CbackCheckPending?relay:
   \   000000   12....       LCALL   ?BDISPATCH
   \   000003   ......       DC24    MAC_CbackCheckPending

   Maximum stack usage in bytes:

     Function                 ISTACK PSTACK XSTACK
     --------                 ------ ------ ------
     MAC_CbackCheckPending        0      0      0
     MAC_CbackEvent               1      0     24
       -> MAC_MlmeGetReq          0      0     42
       -> osal_msg_deallocate     0      0     42
       -> osal_msg_allocate       0      0     42
       -> macMainReserve          0      0     42
       -> osal_msg_deallocate     0      0     42
       -> osal_msg_allocate       0      0     42
       -> osal_memcpy             0      0     48
       -> osal_memcpy             0      0     48
       -> osal_memcpy             0      0     48
       -> osal_memcpy             0      0     48
       -> osal_memcpy             0      0     48
       -> osal_mem_free           0      0     42
       -> osal_msg_send           0      0     42
       -> macMainReserve          0      0     42
       -> osal_msg_deallocate     0      0     42


   Segment part sizes:

     Function/Label                Bytes
     --------------                -----
     _A_IEN0                          1
     zmacCBSizeTable                 17
     pZMac_AppCallback                2
     MAC_CbackEvent                 933
     MAC_CbackCheckPending            5
     ??MAC_CbackEvent?relay           6
     ??MAC_CbackCheckPending?relay    6

 
 938 bytes in segment BANKED_CODE
  12 bytes in segment BANK_RELAYS
  17 bytes in segment CODE_C
   1 byte  in segment SFR_AN
   2 bytes in segment XDATA_Z
 
 967 bytes of CODE  memory
   0 bytes of DATA  memory (+ 1 byte shared)
   2 bytes of XDATA memory

Errors: none
Warnings: none
